(lp0
(lp1
I65533
aI0
aI622775
aa(lp2
I54296
aI15
aI624728
aa(lp3
I54295
aI0
aI624742
aa(lp4
I54294
aI0
aI624756
aa(lp5
I54293
aI0
aI624770
aa(lp6
I54292
aI74
aI624784
aa(lp7
I54291
aI27
aI624798
aa(lp8
I54290
aI33
aI624812
aa(lp9
I54289
aI0
aI624826
aa(lp10
I54288
aI0
aI624840
aa(lp11
I54287
aI26
aI624854
aa(lp12
I54286
aI19
aI624868
aa(lp13
I54285
aI83
aI624882
aa(lp14
I54284
aI120
aI624896
aa(lp15
I54283
aI65
aI624910
aa(lp16
I54282
aI5
aI624924
aa(lp17
I54281
aI0
aI624938
aa(lp18
I54280
aI26
aI624952
aa(lp19
I54279
aI19
aI624966
aa(lp20
I54278
aI44
aI624980
aa(lp21
I54277
aI25
aI624994
aa(lp22
I54276
aI17
aI625008
aa(lp23
I54275
aI6
aI625022
aa(lp24
I54274
aI0
aI625036
aa(lp25
I54273
aI24
aI625050
aa(lp26
I54272
aI156
aI625064
aa(lp27
I65533
aI0
aI625094
aa(lp28
I54296
aI15
aI626481
aa(lp29
I54295
aI0
aI626495
aa(lp30
I54294
aI0
aI626509
aa(lp31
I54293
aI0
aI626523
aa(lp32
I54292
aI74
aI626537
aa(lp33
I54291
aI27
aI626551
aa(lp34
I54290
aI33
aI626565
aa(lp35
I54289
aI0
aI626579
aa(lp36
I54288
aI0
aI626593
aa(lp37
I54287
aI31
aI626607
aa(lp38
I54286
aI2
aI626621
aa(lp39
I54285
aI83
aI626635
aa(lp40
I54284
aI120
aI626649
aa(lp41
I54283
aI65
aI626663
aa(lp42
I54282
aI5
aI626677
aa(lp43
I54281
aI255
aI626691
aa(lp44
I54280
aI26
aI626705
aa(lp45
I54279
aI69
aI626719
aa(lp46
I54278
aI44
aI626733
aa(lp47
I54277
aI25
aI626747
aa(lp48
I54276
aI17
aI626761
aa(lp49
I54275
aI6
aI626775
aa(lp50
I54274
aI20
aI626789
aa(lp51
I54273
aI24
aI626803
aa(lp52
I54272
aI166
aI626817
aa(lp53
I65533
aI0
aI626847
aa(lp54
I54296
aI15
aI628087
aa(lp55
I54295
aI0
aI628101
aa(lp56
I54294
aI0
aI628115
aa(lp57
I54293
aI0
aI628129
aa(lp58
I54292
aI74
aI628143
aa(lp59
I54291
aI27
aI628157
aa(lp60
I54290
aI33
aI628171
aa(lp61
I54289
aI0
aI628185
aa(lp62
I54288
aI0
aI628199
aa(lp63
I54287
aI39
aI628213
aa(lp64
I54286
aI17
aI628227
aa(lp65
I54285
aI83
aI628241
aa(lp66
I54284
aI120
aI628255
aa(lp67
I54283
aI65
aI628269
aa(lp68
I54282
aI6
aI628283
aa(lp69
I54281
aI254
aI628297
aa(lp70
I54280
aI26
aI628311
aa(lp71
I54279
aI119
aI628325
aa(lp72
I54278
aI44
aI628339
aa(lp73
I54277
aI25
aI628353
aa(lp74
I54276
aI129
aI628367
aa(lp75
I54275
aI6
aI628381
aa(lp76
I54274
aI40
aI628395
aa(lp77
I54273
aI24
aI628409
aa(lp78
I54272
aI176
aI628423
aa(lp79
I65533
aI0
aI628453
aa(lp80
I54296
aI15
aI629681
aa(lp81
I54295
aI0
aI629695
aa(lp82
I54294
aI0
aI629709
aa(lp83
I54293
aI0
aI629723
aa(lp84
I54292
aI74
aI629737
aa(lp85
I54291
aI27
aI629751
aa(lp86
I54290
aI33
aI629765
aa(lp87
I54289
aI0
aI629779
aa(lp88
I54288
aI0
aI629793
aa(lp89
I54287
aI26
aI629807
aa(lp90
I54286
aI19
aI629821
aa(lp91
I54285
aI83
aI629835
aa(lp92
I54284
aI120
aI629849
aa(lp93
I54283
aI65
aI629863
aa(lp94
I54282
aI7
aI629877
aa(lp95
I54281
aI253
aI629891
aa(lp96
I54280
aI26
aI629905
aa(lp97
I54279
aI69
aI629919
aa(lp98
I54278
aI44
aI629933
aa(lp99
I54277
aI25
aI629947
aa(lp100
I54276
aI17
aI629961
aa(lp101
I54275
aI6
aI629975
aa(lp102
I54274
aI60
aI629989
aa(lp103
I54273
aI24
aI630003
aa(lp104
I54272
aI166
aI630017
aa(lp105
I65533
aI0
aI630047
aa(lp106
I54296
aI15
aI631328
aa(lp107
I54295
aI0
aI631342
aa(lp108
I54294
aI0
aI631356
aa(lp109
I54293
aI0
aI631370
aa(lp110
I54292
aI74
aI631384
aa(lp111
I54291
aI27
aI631398
aa(lp112
I54290
aI33
aI631412
aa(lp113
I54289
aI0
aI631426
aa(lp114
I54288
aI0
aI631440
aa(lp115
I54287
aI31
aI631454
aa(lp116
I54286
aI2
aI631468
aa(lp117
I54285
aI83
aI631482
aa(lp118
I54284
aI120
aI631496
aa(lp119
I54283
aI65
aI631510
aa(lp120
I54282
aI8
aI631524
aa(lp121
I54281
aI252
aI631538
aa(lp122
I54280
aI26
aI631552
aa(lp123
I54279
aI19
aI631566
aa(lp124
I54278
aI44
aI631580
aa(lp125
I54277
aI25
aI631594
aa(lp126
I54276
aI129
aI631608
aa(lp127
I54275
aI6
aI631622
aa(lp128
I54274
aI80
aI631636
aa(lp129
I54273
aI24
aI631650
aa(lp130
I54272
aI156
aI631664
aa(lp131
I65533
aI0
aI631694
aa(lp132
I54296
aI15
aI632877
aa(lp133
I54295
aI0
aI632891
aa(lp134
I54294
aI0
aI632905
aa(lp135
I54293
aI0
aI632919
aa(lp136
I54292
aI74
aI632933
aa(lp137
I54291
aI27
aI632947
aa(lp138
I54290
aI33
aI632961
aa(lp139
I54289
aI0
aI632975
aa(lp140
I54288
aI0
aI632989
aa(lp141
I54287
aI39
aI633003
aa(lp142
I54286
aI17
aI633017
aa(lp143
I54285
aI83
aI633031
aa(lp144
I54284
aI120
aI633045
aa(lp145
I54283
aI65
aI633059
aa(lp146
I54282
aI9
aI633073
aa(lp147
I54281
aI251
aI633087
aa(lp148
I54280
aI25
aI633101
aa(lp149
I54279
aI225
aI633115
aa(lp150
I54278
aI44
aI633129
aa(lp151
I54277
aI25
aI633143
aa(lp152
I54276
aI17
aI633157
aa(lp153
I54275
aI6
aI633171
aa(lp154
I54274
aI100
aI633185
aa(lp155
I54273
aI24
aI633199
aa(lp156
I54272
aI146
aI633213
aa(lp157
I65533
aI0
aI633243
aa(lp158
I54296
aI15
aI634476
aa(lp159
I54295
aI0
aI634490
aa(lp160
I54294
aI0
aI634504
aa(lp161
I54293
aI0
aI634518
aa(lp162
I54292
aI74
aI634532
aa(lp163
I54291
aI27
aI634546
aa(lp164
I54290
aI33
aI634560
aa(lp165
I54289
aI0
aI634574
aa(lp166
I54288
aI0
aI634588
aa(lp167
I54287
aI26
aI634602
aa(lp168
I54286
aI19
aI634616
aa(lp169
I54285
aI83
aI634630
aa(lp170
I54284
aI120
aI634644
aa(lp171
I54283
aI65
aI634658
aa(lp172
I54282
aI10
aI634672
aa(lp173
I54281
aI250
aI634686
aa(lp174
I54280
aI25
aI634700
aa(lp175
I54279
aI175
aI634714
aa(lp176
I54278
aI44
aI634728
aa(lp177
I54277
aI25
aI634742
aa(lp178
I54276
aI129
aI634756
aa(lp179
I54275
aI6
aI634770
aa(lp180
I54274
aI120
aI634784
aa(lp181
I54273
aI24
aI634798
aa(lp182
I54272
aI136
aI634812
aa(lp183
I65533
aI0
aI634842
aa(lp184
I54296
aI15
aI636050
aa(lp185
I54295
aI0
aI636064
aa(lp186
I54294
aI0
aI636078
aa(lp187
I54293
aI0
aI636092
aa(lp188
I54292
aI74
aI636106
aa(lp189
I54291
aI27
aI636120
aa(lp190
I54290
aI33
aI636134
aa(lp191
I54289
aI0
aI636148
aa(lp192
I54288
aI0
aI636162
aa(lp193
I54287
aI31
aI636176
aa(lp194
I54286
aI2
aI636190
aa(lp195
I54285
aI83
aI636204
aa(lp196
I54284
aI120
aI636218
aa(lp197
I54283
aI65
aI636232
aa(lp198
I54282
aI11
aI636246
aa(lp199
I54281
aI249
aI636260
aa(lp200
I54280
aI25
aI636274
aa(lp201
I54279
aI225
aI636288
aa(lp202
I54278
aI44
aI636302
aa(lp203
I54277
aI25
aI636316
aa(lp204
I54276
aI17
aI636330
aa(lp205
I54275
aI6
aI636344
aa(lp206
I54274
aI140
aI636358
aa(lp207
I54273
aI24
aI636372
aa(lp208
I54272
aI146
aI636386
aa(lp209
I65533
aI0
aI636416
aa(lp210
I54296
aI15
aI637643
aa(lp211
I54295
aI0
aI637657
aa(lp212
I54294
aI0
aI637671
aa(lp213
I54293
aI0
aI637685
aa(lp214
I54292
aI74
aI637699
aa(lp215
I54291
aI27
aI637713
aa(lp216
I54290
aI33
aI637727
aa(lp217
I54289
aI0
aI637741
aa(lp218
I54288
aI0
aI637755
aa(lp219
I54287
aI39
aI637769
aa(lp220
I54286
aI17
aI637783
aa(lp221
I54285
aI83
aI637797
aa(lp222
I54284
aI120
aI637811
aa(lp223
I54283
aI65
aI637825
aa(lp224
I54282
aI10
aI637839
aa(lp225
I54281
aI250
aI637853
aa(lp226
I54280
aI26
aI637867
aa(lp227
I54279
aI19
aI637881
aa(lp228
I54278
aI44
aI637895
aa(lp229
I54277
aI25
aI637909
aa(lp230
I54276
aI129
aI637923
aa(lp231
I54275
aI6
aI637937
aa(lp232
I54274
aI160
aI637951
aa(lp233
I54273
aI24
aI637965
aa(lp234
I54272
aI156
aI637979
aa(lp235
I65533
aI0
aI638009
aa(lp236
I54296
aI15
aI639192
aa(lp237
I54295
aI0
aI639206
aa(lp238
I54294
aI0
aI639220
aa(lp239
I54293
aI0
aI639234
aa(lp240
I54292
aI74
aI639248
aa(lp241
I54291
aI27
aI639262
aa(lp242
I54290
aI33
aI639276
aa(lp243
I54289
aI0
aI639290
aa(lp244
I54288
aI0
aI639304
aa(lp245
I54287
aI26
aI639318
aa(lp246
I54286
aI19
aI639332
aa(lp247
I54285
aI83
aI639346
aa(lp248
I54284
aI120
aI639360
aa(lp249
I54283
aI65
aI639374
aa(lp250
I54282
aI9
aI639388
aa(lp251
I54281
aI251
aI639402
aa(lp252
I54280
aI26
aI639416
aa(lp253
I54279
aI69
aI639430
aa(lp254
I54278
aI44
aI639444
aa(lp255
I54277
aI25
aI639458
aa(lp256
I54276
aI17
aI639472
aa(lp257
I54275
aI6
aI639486
aa(lp258
I54274
aI180
aI639500
aa(lp259
I54273
aI24
aI639514
aa(lp260
I54272
aI166
aI639528
aa(lp261
I65533
aI0
aI639558
aa(lp262
I54296
aI15
aI640794
aa(lp263
I54295
aI0
aI640808
aa(lp264
I54294
aI0
aI640822
aa(lp265
I54293
aI0
aI640836
aa(lp266
I54292
aI74
aI640850
aa(lp267
I54291
aI27
aI640864
aa(lp268
I54290
aI33
aI640878
aa(lp269
I54289
aI0
aI640892
aa(lp270
I54288
aI0
aI640906
aa(lp271
I54287
aI31
aI640920
aa(lp272
I54286
aI2
aI640934
aa(lp273
I54285
aI83
aI640948
aa(lp274
I54284
aI120
aI640962
aa(lp275
I54283
aI65
aI640976
aa(lp276
I54282
aI8
aI640990
aa(lp277
I54281
aI252
aI641004
aa(lp278
I54280
aI26
aI641018
aa(lp279
I54279
aI119
aI641032
aa(lp280
I54278
aI44
aI641046
aa(lp281
I54277
aI25
aI641060
aa(lp282
I54276
aI129
aI641074
aa(lp283
I54275
aI6
aI641088
aa(lp284
I54274
aI200
aI641102
aa(lp285
I54273
aI24
aI641116
aa(lp286
I54272
aI176
aI641130
aa(lp287
I65533
aI0
aI641160
aa(lp288
I54296
aI15
aI642372
aa(lp289
I54295
aI0
aI642386
aa(lp290
I54294
aI0
aI642400
aa(lp291
I54293
aI0
aI642414
aa(lp292
I54292
aI74
aI642428
aa(lp293
I54291
aI27
aI642442
aa(lp294
I54290
aI33
aI642456
aa(lp295
I54289
aI0
aI642470
aa(lp296
I54288
aI0
aI642484
aa(lp297
I54287
aI39
aI642498
aa(lp298
I54286
aI17
aI642512
aa(lp299
I54285
aI83
aI642526
aa(lp300
I54284
aI120
aI642540
aa(lp301
I54283
aI65
aI642554
aa(lp302
I54282
aI7
aI642568
aa(lp303
I54281
aI253
aI642582
aa(lp304
I54280
aI26
aI642596
aa(lp305
I54279
aI69
aI642610
aa(lp306
I54278
aI44
aI642624
aa(lp307
I54277
aI25
aI642638
aa(lp308
I54276
aI17
aI642652
aa(lp309
I54275
aI6
aI642666
aa(lp310
I54274
aI220
aI642680
aa(lp311
I54273
aI24
aI642694
aa(lp312
I54272
aI166
aI642708
aa(lp313
I65533
aI0
aI642738
aa(lp314
I54296
aI15
aI644000
aa(lp315
I54295
aI0
aI644014
aa(lp316
I54294
aI0
aI644028
aa(lp317
I54293
aI0
aI644042
aa(lp318
I54292
aI74
aI644056
aa(lp319
I54291
aI27
aI644070
aa(lp320
I54290
aI33
aI644084
aa(lp321
I54289
aI0
aI644098
aa(lp322
I54288
aI0
aI644112
aa(lp323
I54287
aI26
aI644126
aa(lp324
I54286
aI19
aI644140
aa(lp325
I54285
aI83
aI644154
aa(lp326
I54284
aI120
aI644168
aa(lp327
I54283
aI65
aI644182
aa(lp328
I54282
aI6
aI644196
aa(lp329
I54281
aI254
aI644210
aa(lp330
I54280
aI26
aI644224
aa(lp331
I54279
aI19
aI644238
aa(lp332
I54278
aI44
aI644252
aa(lp333
I54277
aI25
aI644266
aa(lp334
I54276
aI129
aI644280
aa(lp335
I54275
aI6
aI644294
aa(lp336
I54274
aI240
aI644308
aa(lp337
I54273
aI24
aI644322
aa(lp338
I54272
aI156
aI644336
aa(lp339
I65533
aI0
aI644366
aa(lp340
I54296
aI15
aI645551
aa(lp341
I54295
aI0
aI645565
aa(lp342
I54294
aI0
aI645579
aa(lp343
I54293
aI0
aI645593
aa(lp344
I54292
aI74
aI645607
aa(lp345
I54291
aI27
aI645621
aa(lp346
I54290
aI33
aI645635
aa(lp347
I54289
aI0
aI645649
aa(lp348
I54288
aI0
aI645663
aa(lp349
I54287
aI31
aI645677
aa(lp350
I54286
aI2
aI645691
aa(lp351
I54285
aI83
aI645705
aa(lp352
I54284
aI120
aI645719
aa(lp353
I54283
aI65
aI645733
aa(lp354
I54282
aI5
aI645747
aa(lp355
I54281
aI255
aI645761
aa(lp356
I54280
aI25
aI645775
aa(lp357
I54279
aI225
aI645789
aa(lp358
I54278
aI44
aI645803
aa(lp359
I54277
aI25
aI645817
aa(lp360
I54276
aI17
aI645831
aa(lp361
I54275
aI7
aI645845
aa(lp362
I54274
aI4
aI645859
aa(lp363
I54273
aI24
aI645873
aa(lp364
I54272
aI146
aI645887
aa(lp365
I65533
aI0
aI645917
aa(lp366
I54296
aI15
aI647118
aa(lp367
I54295
aI0
aI647132
aa(lp368
I54294
aI0
aI647146
aa(lp369
I54293
aI0
aI647160
aa(lp370
I54292
aI74
aI647174
aa(lp371
I54291
aI27
aI647188
aa(lp372
I54290
aI33
aI647202
aa(lp373
I54289
aI0
aI647216
aa(lp374
I54288
aI0
aI647230
aa(lp375
I54287
aI39
aI647244
aa(lp376
I54286
aI17
aI647258
aa(lp377
I54285
aI83
aI647272
aa(lp378
I54284
aI120
aI647286
aa(lp379
I54283
aI65
aI647300
aa(lp380
I54282
aI5
aI647314
aa(lp381
I54281
aI0
aI647328
aa(lp382
I54280
aI25
aI647342
aa(lp383
I54279
aI175
aI647356
aa(lp384
I54278
aI44
aI647370
aa(lp385
I54277
aI25
aI647384
aa(lp386
I54276
aI129
aI647398
aa(lp387
I54275
aI7
aI647412
aa(lp388
I54274
aI24
aI647426
aa(lp389
I54273
aI24
aI647440
aa(lp390
I54272
aI136
aI647454
aa(lp391
I65533
aI0
aI647484
aa(lp392
I54296
aI15
aI648676
aa(lp393
I54295
aI0
aI648690
aa(lp394
I54294
aI0
aI648704
aa(lp395
I54293
aI0
aI648718
aa(lp396
I54292
aI74
aI648732
aa(lp397
I54291
aI27
aI648746
aa(lp398
I54290
aI33
aI648760
aa(lp399
I54289
aI0
aI648774
aa(lp400
I54288
aI0
aI648788
aa(lp401
I54287
aI26
aI648802
aa(lp402
I54286
aI19
aI648816
aa(lp403
I54285
aI83
aI648830
aa(lp404
I54284
aI120
aI648844
aa(lp405
I54283
aI65
aI648858
aa(lp406
I54282
aI4
aI648872
aa(lp407
I54281
aI1
aI648886
aa(lp408
I54280
aI25
aI648900
aa(lp409
I54279
aI225
aI648914
aa(lp410
I54278
aI44
aI648928
aa(lp411
I54277
aI25
aI648942
aa(lp412
I54276
aI17
aI648956
aa(lp413
I54275
aI7
aI648970
aa(lp414
I54274
aI44
aI648984
aa(lp415
I54273
aI24
aI648998
aa(lp416
I54272
aI146
aI649012
aa(lp417
I65533
aI0
aI649042
aa(lp418
I54296
aI15
aI650291
aa(lp419
I54295
aI0
aI650305
aa(lp420
I54294
aI0
aI650319
aa(lp421
I54293
aI0
aI650333
aa(lp422
I54292
aI74
aI650347
aa(lp423
I54291
aI27
aI650361
aa(lp424
I54290
aI33
aI650375
aa(lp425
I54289
aI0
aI650389
aa(lp426
I54288
aI0
aI650403
aa(lp427
I54287
aI31
aI650417
aa(lp428
I54286
aI2
aI650431
aa(lp429
I54285
aI83
aI650445
aa(lp430
I54284
aI120
aI650459
aa(lp431
I54283
aI65
aI650473
aa(lp432
I54282
aI5
aI650487
aa(lp433
I54281
aI0
aI650501
aa(lp434
I54280
aI26
aI650515
aa(lp435
I54279
aI19
aI650529
aa(lp436
I54278
aI44
aI650543
aa(lp437
I54277
aI25
aI650557
aa(lp438
I54276
aI129
aI650571
aa(lp439
I54275
aI7
aI650585
aa(lp440
I54274
aI64
aI650599
aa(lp441
I54273
aI24
aI650613
aa(lp442
I54272
aI156
aI650627
aa(lp443
I65533
aI0
aI650657
aa(lp444
I54296
aI15
aI651844
aa(lp445
I54295
aI0
aI651858
aa(lp446
I54294
aI0
aI651872
aa(lp447
I54293
aI0
aI651886
aa(lp448
I54292
aI74
aI651900
aa(lp449
I54291
aI27
aI651914
aa(lp450
I54290
aI33
aI651928
aa(lp451
I54289
aI0
aI651942
aa(lp452
I54288
aI0
aI651956
aa(lp453
I54287
aI39
aI651970
aa(lp454
I54286
aI17
aI651984
aa(lp455
I54285
aI83
aI651998
aa(lp456
I54284
aI120
aI652012
aa(lp457
I54283
aI65
aI652026
aa(lp458
I54282
aI5
aI652040
aa(lp459
I54281
aI255
aI652054
aa(lp460
I54280
aI26
aI652068
aa(lp461
I54279
aI69
aI652082
aa(lp462
I54278
aI44
aI652096
aa(lp463
I54277
aI25
aI652110
aa(lp464
I54276
aI17
aI652124
aa(lp465
I54275
aI7
aI652138
aa(lp466
I54274
aI84
aI652152
aa(lp467
I54273
aI24
aI652166
aa(lp468
I54272
aI166
aI652180
aa(lp469
I65533
aI0
aI652210
aa(lp470
I54296
aI15
aI653453
aa(lp471
I54295
aI0
aI653467
aa(lp472
I54294
aI0
aI653481
aa(lp473
I54293
aI0
aI653495
aa(lp474
I54292
aI74
aI653509
aa(lp475
I54291
aI27
aI653523
aa(lp476
I54290
aI33
aI653537
aa(lp477
I54289
aI0
aI653551
aa(lp478
I54288
aI0
aI653565
aa(lp479
I54287
aI26
aI653579
aa(lp480
I54286
aI19
aI653593
aa(lp481
I54285
aI83
aI653607
aa(lp482
I54284
aI120
aI653621
aa(lp483
I54283
aI65
aI653635
aa(lp484
I54282
aI6
aI653649
aa(lp485
I54281
aI254
aI653663
aa(lp486
I54280
aI26
aI653677
aa(lp487
I54279
aI119
aI653691
aa(lp488
I54278
aI44
aI653705
aa(lp489
I54277
aI25
aI653719
aa(lp490
I54276
aI129
aI653733
aa(lp491
I54275
aI7
aI653747
aa(lp492
I54274
aI104
aI653761
aa(lp493
I54273
aI24
aI653775
aa(lp494
I54272
aI176
aI653789
aa(lp495
I65533
aI0
aI653819
aa(lp496
I54296
aI15
aI655053
aa(lp497
I54295
aI0
aI655067
aa(lp498
I54294
aI0
aI655081
aa(lp499
I54293
aI0
aI655095
aa(lp500
I54292
aI74
aI655109
aa(lp501
I54291
aI27
aI655123
aa(lp502
I54290
aI33
aI655137
aa(lp503
I54289
aI0
aI655151
aa(lp504
I54288
aI0
aI655165
aa(lp505
I54287
aI31
aI655179
aa(lp506
I54286
aI2
aI655193
aa(lp507
I54285
aI83
aI655207
aa(lp508
I54284
aI120
aI655221
aa(lp509
I54283
aI65
aI655235
aa(lp510
I54282
aI7
aI655249
aa(lp511
I54281
aI253
aI655263
aa(lp512
I54280
aI26
aI655277
aa(lp513
I54279
aI69
aI655291
aa(lp514
I54278
aI44
aI655305
aa(lp515
I54277
aI25
aI655319
aa(lp516
I54276
aI17
aI655333
aa(lp517
I54275
aI7
aI655347
aa(lp518
I54274
aI124
aI655361
aa(lp519
I54273
aI24
aI655375
aa(lp520
I54272
aI166
aI655389
aa(lp521
I65533
aI0
aI655419
aa(lp522
I54296
aI15
aI656691
aa(lp523
I54295
aI0
aI656705
aa(lp524
I54294
aI0
aI656719
aa(lp525
I54293
aI0
aI656733
aa(lp526
I54292
aI74
aI656747
aa(lp527
I54291
aI27
aI656761
aa(lp528
I54290
aI33
aI656775
aa(lp529
I54289
aI0
aI656789
aa(lp530
I54288
aI0
aI656803
aa(lp531
I54287
aI39
aI656817
aa(lp532
I54286
aI17
aI656831
aa(lp533
I54285
aI83
aI656845
aa(lp534
I54284
aI120
aI656859
aa(lp535
I54283
aI65
aI656873
aa(lp536
I54282
aI8
aI656887
aa(lp537
I54281
aI252
aI656901
aa(lp538
I54280
aI26
aI656915
aa(lp539
I54279
aI19
aI656929
aa(lp540
I54278
aI44
aI656943
aa(lp541
I54277
aI25
aI656957
aa(lp542
I54276
aI129
aI656971
aa(lp543
I54275
aI7
aI656985
aa(lp544
I54274
aI144
aI656999
aa(lp545
I54273
aI24
aI657013
aa(lp546
I54272
aI156
aI657027
aa(lp547
I65533
aI0
aI657057
aa(lp548
I54296
aI15
aI658243
aa(lp549
I54295
aI0
aI658257
aa(lp550
I54294
aI0
aI658271
aa(lp551
I54293
aI0
aI658285
aa(lp552
I54292
aI74
aI658299
aa(lp553
I54291
aI27
aI658313
aa(lp554
I54290
aI33
aI658327
aa(lp555
I54289
aI0
aI658341
aa(lp556
I54288
aI0
aI658355
aa(lp557
I54287
aI26
aI658369
aa(lp558
I54286
aI19
aI658383
aa(lp559
I54285
aI83
aI658397
aa(lp560
I54284
aI120
aI658411
aa(lp561
I54283
aI65
aI658425
aa(lp562
I54282
aI9
aI658439
aa(lp563
I54281
aI251
aI658453
aa(lp564
I54280
aI25
aI658467
aa(lp565
I54279
aI225
aI658481
aa(lp566
I54278
aI44
aI658495
aa(lp567
I54277
aI25
aI658509
aa(lp568
I54276
aI17
aI658523
aa(lp569
I54275
aI7
aI658537
aa(lp570
I54274
aI164
aI658551
aa(lp571
I54273
aI24
aI658565
aa(lp572
I54272
aI146
aI658579
aa(lp573
I65533
aI0
aI658609
aa(lp574
I54296
aI15
aI659848
aa(lp575
I54295
aI0
aI659862
aa(lp576
I54294
aI0
aI659876
aa(lp577
I54293
aI0
aI659890
aa(lp578
I54292
aI74
aI659904
aa(lp579
I54291
aI27
aI659918
aa(lp580
I54290
aI33
aI659932
aa(lp581
I54289
aI0
aI659946
aa(lp582
I54288
aI0
aI659960
aa(lp583
I54287
aI31
aI659974
aa(lp584
I54286
aI2
aI659988
aa(lp585
I54285
aI83
aI660002
aa(lp586
I54284
aI120
aI660016
aa(lp587
I54283
aI65
aI660030
aa(lp588
I54282
aI10
aI660044
aa(lp589
I54281
aI250
aI660058
aa(lp590
I54280
aI25
aI660072
aa(lp591
I54279
aI175
aI660086
aa(lp592
I54278
aI44
aI660100
aa(lp593
I54277
aI25
aI660114
aa(lp594
I54276
aI129
aI660128
aa(lp595
I54275
aI7
aI660142
aa(lp596
I54274
aI184
aI660156
aa(lp597
I54273
aI24
aI660170
aa(lp598
I54272
aI136
aI660184
aa(lp599
I65533
aI0
aI660214
aa(lp600
I54296
aI15
aI661423
aa(lp601
I54295
aI0
aI661437
aa(lp602
I54294
aI0
aI661451
aa(lp603
I54293
aI0
aI661465
aa(lp604
I54292
aI74
aI661479
aa(lp605
I54291
aI27
aI661493
aa(lp606
I54290
aI33
aI661507
aa(lp607
I54289
aI0
aI661521
aa(lp608
I54288
aI0
aI661535
aa(lp609
I54287
aI39
aI661549
aa(lp610
I54286
aI17
aI661563
aa(lp611
I54285
aI83
aI661577
aa(lp612
I54284
aI120
aI661591
aa(lp613
I54283
aI65
aI661605
aa(lp614
I54282
aI11
aI661619
aa(lp615
I54281
aI249
aI661633
aa(lp616
I54280
aI25
aI661647
aa(lp617
I54279
aI225
aI661661
aa(lp618
I54278
aI44
aI661675
aa(lp619
I54277
aI25
aI661689
aa(lp620
I54276
aI16
aI661703
aa(lp621
I54275
aI7
aI661717
aa(lp622
I54274
aI204
aI661731
aa(lp623
I54273
aI24
aI661745
aa(lp624
I54272
aI146
aI661759
aa.I624
.I624
.F67.256
.(lp0
I1
aI1
aI1
a.I8
.F0.25
.