(lp0
(lp1
I65533
aI0
aI128406
aa(lp2
I54288
aI132
aI128556
aa(lp3
I54280
aI17
aI128781
aa(lp4
I54283
aI64
aI128795
aa(lp5
I54280
aI21
aI128850
aa(lp6
I54279
aI235
aI128859
aa(lp7
I54273
aI26
aI129037
aa(lp8
I54276
aI128
aI129044
aa(lp9
I54273
aI26
aI129099
aa(lp10
I54272
aI19
aI129108
aa(lp11
I65533
aI0
aI129161
aa(lp12
I54288
aI154
aI129311
aa(lp13
I54280
aI16
aI129536
aa(lp14
I54283
aI64
aI129550
aa(lp15
I54280
aI43
aI129611
aa(lp16
I54279
aI214
aI129620
aa(lp17
I54273
aI26
aI129798
aa(lp18
I54276
aI128
aI129805
aa(lp19
I54273
aI52
aI129866
aa(lp20
I54272
aI38
aI129875
aa(lp21
I65533
aI0
aI129928
aa(lp22
I54288
aI176
aI130133
aa(lp23
I54280
aI15
aI130406
aa(lp24
I54283
aI64
aI130420
aa(lp25
I54280
aI21
aI130475
aa(lp26
I54279
aI235
aI130484
aa(lp27
I54276
aI64
aI130592
aa(lp28
I54277
aI0
aI130599
aa(lp29
I54278
aI0
aI130604
aa(lp30
I54273
aI26
aI130758
aa(lp31
I54272
aI19
aI130767
aa(lp32
I65533
aI0
aI130820
aa(lp33
I54288
aI198
aI130970
aa(lp34
I54280
aI14
aI131195
aa(lp35
I54283
aI64
aI131209
aa(lp36
I54280
aI43
aI131270
aa(lp37
I54279
aI214
aI131279
aa(lp38
I54273
aI52
aI131489
aa(lp39
I54272
aI38
aI131498
aa(lp40
I65533
aI0
aI131551
aa(lp41
I54288
aI220
aI131701
aa(lp42
I54280
aI13
aI131926
aa(lp43
I54283
aI64
aI131940
aa(lp44
I54280
aI21
aI131995
aa(lp45
I54279
aI235
aI132004
aa(lp46
I54273
aI26
aI132208
aa(lp47
I54272
aI19
aI132217
aa(lp48
I65533
aI0
aI132270
aa(lp49
I54288
aI242
aI132475
aa(lp50
I54280
aI12
aI132748
aa(lp51
I54283
aI64
aI132762
aa(lp52
I54280
aI43
aI132823
aa(lp53
I54279
aI214
aI132832
aa(lp54
I54273
aI29
aI133037
aa(lp55
I54272
aI70
aI133051
aa(lp56
I54276
aI65
aI133106
aa(lp57
I54274
aI128
aI133115
aa(lp58
I54275
aI1
aI133124
aa(lp59
I54277
aI6
aI133133
aa(lp60
I54278
aI75
aI133142
aa(lp61
I65533
aI0
aI133232
aa(lp62
I54288
aI8
aI133382
aa(lp63
I54280
aI11
aI133607
aa(lp64
I54283
aI64
aI133621
aa(lp65
I54280
aI21
aI133676
aa(lp66
I54279
aI235
aI133685
aa(lp67
I54273
aI29
aI133863
aa(lp68
I54276
aI128
aI133870
aa(lp69
I54273
aI29
aI133925
aa(lp70
I54272
aI70
aI133934
aa(lp71
I65533
aI0
aI133987
aa(lp72
I54288
aI30
aI134137
aa(lp73
I54280
aI10
aI134362
aa(lp74
I54283
aI64
aI134376
aa(lp75
I54280
aI43
aI134437
aa(lp76
I54279
aI214
aI134446
aa(lp77
I54273
aI29
aI134624
aa(lp78
I54276
aI128
aI134631
aa(lp79
I54273
aI58
aI134692
aa(lp80
I54272
aI140
aI134701
aa(lp81
I65533
aI0
aI134754
aa(lp82
I54288
aI52
aI134959
aa(lp83
I54280
aI9
aI135232
aa(lp84
I54283
aI64
aI135246
aa(lp85
I54280
aI21
aI135301
aa(lp86
I54279
aI235
aI135310
aa(lp87
I54273
aI29
aI135542
aa(lp88
I54276
aI64
aI135556
aa(lp89
I54273
aI29
aI135611
aa(lp90
I54272
aI70
aI135620
aa(lp91
I65533
aI0
aI135673
aa(lp92
I54288
aI74
aI135823
aa(lp93
I54280
aI8
aI136048
aa(lp94
I54283
aI64
aI136062
aa(lp95
I54280
aI43
aI136123
aa(lp96
I54279
aI214
aI136132
aa(lp97
I54273
aI28
aI136316
aa(lp98
I54276
aI64
aI136330
aa(lp99
I54273
aI58
aI136391
aa(lp100
I54272
aI140
aI136400
aa(lp101
I65533
aI0
aI136453
aa(lp102
I54288
aI96
aI136603
aa(lp103
I54280
aI7
aI136828
aa(lp104
I54283
aI64
aI136842
aa(lp105
I54280
aI21
aI136897
aa(lp106
I54279
aI235
aI136906
aa(lp107
I54273
aI27
aI137090
aa(lp108
I54276
aI64
aI137104
aa(lp109
I54273
aI29
aI137159
aa(lp110
I54272
aI70
aI137168
aa(lp111
I65533
aI0
aI137221
aa(lp112
I54288
aI118
aI137426
aa(lp113
I54280
aI6
aI137699
aa(lp114
I54283
aI64
aI137713
aa(lp115
I54280
aI43
aI137774
aa(lp116
I54279
aI214
aI137783
aa(lp117
I54273
aI26
aI138015
aa(lp118
I54276
aI64
aI138029
aa(lp119
I54273
aI58
aI138090
aa(lp120
I54272
aI140
aI138099
aa(lp121
I65533
aI0
aI138152
aa(lp122
I54288
aI140
aI138302
aa(lp123
I54280
aI5
aI138527
aa(lp124
I54283
aI64
aI138541
aa(lp125
I54280
aI21
aI138596
aa(lp126
I54279
aI235
aI138605
aa(lp127
I54273
aI25
aI138789
aa(lp128
I54276
aI64
aI138803
aa(lp129
I54273
aI29
aI138858
aa(lp130
I54272
aI70
aI138867
aa(lp131
I65533
aI0
aI138920
aa(lp132
I54288
aI162
aI139070
aa(lp133
I54280
aI4
aI139295
aa(lp134
I54283
aI64
aI139309
aa(lp135
I54280
aI43
aI139370
aa(lp136
I54279
aI214
aI139379
aa(lp137
I54273
aI24
aI139563
aa(lp138
I54276
aI64
aI139577
aa(lp139
I54273
aI58
aI139638
aa(lp140
I54272
aI140
aI139647
aa(lp141
I65533
aI0
aI139700
aa(lp142
I54290
aI64
aI139829
aa(lp143
I54291
aI0
aI139836
aa(lp144
I54292
aI0
aI139841
aa(lp145
I54288
aI184
aI139927
aa(lp146
I54283
aI64
aI140076
aa(lp147
I54284
aI0
aI140083
aa(lp148
I54285
aI0
aI140088
aa(lp149
I54280
aI21
aI140242
aa(lp150
I54279
aI235
aI140251
aa(lp151
I54276
aI64
aI140359
aa(lp152
I54277
aI0
aI140366
aa(lp153
I54278
aI0
aI140371
aa(lp154
I54273
aI29
aI140525
aa(lp155
I54272
aI70
aI140534
aa(lp156
I65533
aI0
aI140587
aa(lp157
I54288
aI206
aI140737
aa(lp158
I54280
aI43
aI140988
aa(lp159
I54279
aI214
aI140997
aa(lp160
I54273
aI58
aI141207
aa(lp161
I54272
aI140
aI141216
aa(lp162
I65533
aI0
aI141269
aa(lp163
I54288
aI228
aI141419
aa(lp164
I54280
aI21
aI141664
aa(lp165
I54279
aI235
aI141673
aa(lp166
I54273
aI29
aI141877
aa(lp167
I54272
aI70
aI141886
aa(lp168
I65533
aI0
aI141939
aa(lp169
I54287
aI15
aI142186
aa(lp170
I54286
aI130
aI142200
aa(lp171
I54290
aI129
aI142256
aa(lp172
I54288
aI0
aI142265
aa(lp173
I54289
aI2
aI142274
aa(lp174
I54291
aI10
aI142283
aa(lp175
I54292
aI9
aI142292
aa(lp176
I54283
aI64
aI142530
aa(lp177
I54281
aI128
aI142539
aa(lp178
I54282
aI1
aI142548
aa(lp179
I54284
aI6
aI142557
aa(lp180
I54285
aI75
aI142566
aa(lp181
I54273
aI175
aI142830
aa(lp182
I54272
aI88
aI142844
aa(lp183
I54276
aI21
aI142899
aa(lp184
I54274
aI128
aI142908
aa(lp185
I54275
aI1
aI142917
aa(lp186
I54277
aI13
aI142926
aa(lp187
I54278
aI251
aI142935
aa(lp188
I65533
aI0
aI143025
aa(lp189
I54287
aI15
aI143218
aa(lp190
I54290
aI128
aI143225
aa(lp191
I54287
aI15
aI143280
aa(lp192
I54286
aI130
aI143289
aa(lp193
I54280
aI3
aI143467
aa(lp194
I54283
aI128
aI143474
aa(lp195
I54280
aI21
aI143529
aa(lp196
I54279
aI235
aI143538
aa(lp197
I54272
aI88
aI143753
aa(lp198
I54273
aI175
aI143762
aa(lp199
I54273
aI175
aI143839
aa(lp200
I54276
aI128
aI143846
aa(lp201
I54273
aI175
aI143901
aa(lp202
I54272
aI88
aI143910
aa(lp203
I65533
aI0
aI143963
aa(lp204
I54287
aI15
aI144156
aa(lp205
I54290
aI128
aI144163
aa(lp206
I54287
aI31
aI144224
aa(lp207
I54286
aI4
aI144233
aa(lp208
I54280
aI3
aI144411
aa(lp209
I54283
aI128
aI144418
aa(lp210
I54280
aI43
aI144479
aa(lp211
I54279
aI214
aI144488
aa(lp212
I54272
aI88
aI144703
aa(lp213
I54273
aI175
aI144712
aa(lp214
I54273
aI175
aI144789
aa(lp215
I54276
aI128
aI144796
aa(lp216
I54273
aI16
aI144857
aa(lp217
I54272
aI37
aI144866
aa(lp218
I65533
aI0
aI144919
aa(lp219
I54287
aI15
aI145173
aa(lp220
I54290
aI128
aI145187
aa(lp221
I54287
aI15
aI145242
aa(lp222
I54286
aI130
aI145251
aa(lp223
I54280
aI3
aI145483
aa(lp224
I54283
aI64
aI145497
aa(lp225
I54280
aI21
aI145552
aa(lp226
I54279
aI235
aI145561
aa(lp227
I54272
aI88
aI145825
aa(lp228
I54273
aI175
aI145834
aa(lp229
I54273
aI175
aI145917
aa(lp230
I54276
aI20
aI145931
aa(lp231
I54273
aI175
aI145986
aa(lp232
I54272
aI88
aI145995
aa(lp233
I65533
aI0
aI146048
aa(lp234
I54287
aI14
aI146247
aa(lp235
I54290
aI128
aI146261
aa(lp236
I54287
aI31
aI146322
aa(lp237
I54286
aI4
aI146331
aa(lp238
I54280
aI2
aI146515
aa(lp239
I54283
aI64
aI146529
aa(lp240
I54280
aI43
aI146590
aa(lp241
I54279
aI214
aI146599
aa(lp242
I54272
aI88
aI146815
aa(lp243
I54273
aI175
aI146824
aa(lp244
I54273
aI174
aI146907
aa(lp245
I54276
aI20
aI146921
aa(lp246
I54273
aI16
aI146982
aa(lp247
I54272
aI37
aI146991
aa(lp248
I65533
aI0
aI147044
aa(lp249
I54287
aI13
aI147243
aa(lp250
I54290
aI128
aI147257
aa(lp251
I54287
aI15
aI147312
aa(lp252
I54286
aI130
aI147321
aa(lp253
I54280
aI1
aI147505
aa(lp254
I54283
aI64
aI147519
aa(lp255
I54280
aI21
aI147574
aa(lp256
I54279
aI235
aI147583
aa(lp257
I54272
aI88
aI147799
aa(lp258
I54273
aI175
aI147808
aa(lp259
I54273
aI173
aI147891
aa(lp260
I54276
aI20
aI147905
aa(lp261
I54273
aI175
aI147960
aa(lp262
I54272
aI88
aI147969
aa(lp263
I65533
aI0
aI148022
aa(lp264
I54287
aI12
aI148276
aa(lp265
I54290
aI128
aI148290
aa(lp266
I54287
aI31
aI148351
aa(lp267
I54286
aI4
aI148360
aa(lp268
I54280
aI43
aI148612
aa(lp269
I54279
aI214
aI148621
aa(lp270
I54272
aI88
aI148885
aa(lp271
I54273
aI175
aI148894
aa(lp272
I54273
aI172
aI148977
aa(lp273
I54276
aI20
aI148991
aa(lp274
I54273
aI16
aI149052
aa(lp275
I54272
aI37
aI149061
aa(lp276
I65533
aI0
aI149114
aa(lp277
I54287
aI11
aI149313
aa(lp278
I54290
aI128
aI149327
aa(lp279
I54287
aI15
aI149382
aa(lp280
I54286
aI130
aI149391
aa(lp281
I54280
aI21
aI149589
aa(lp282
I54279
aI235
aI149598
aa(lp283
I54272
aI88
aI149813
aa(lp284
I54273
aI175
aI149822
aa(lp285
I54273
aI171
aI149905
aa(lp286
I54276
aI20
aI149919
aa(lp287
I54273
aI175
aI149974
aa(lp288
I54272
aI88
aI149983
aa(lp289
I65533
aI0
aI150036
aa(lp290
I54287
aI10
aI150235
aa(lp291
I54290
aI128
aI150249
aa(lp292
I54287
aI31
aI150310
aa(lp293
I54286
aI4
aI150319
aa(lp294
I54280
aI43
aI150523
aa(lp295
I54279
aI214
aI150532
aa(lp296
I54272
aI88
aI150747
aa(lp297
I54273
aI175
aI150756
aa(lp298
I54273
aI170
aI150839
aa(lp299
I54276
aI20
aI150853
aa(lp300
I54273
aI16
aI150914
aa(lp301
I54272
aI37
aI150923
aa(lp302
I65533
aI0
aI150976
aa(lp303
I54290
aI128
aI151105
aa(lp304
I54291
aI0
aI151112
aa(lp305
I54292
aI0
aI151117
aa(lp306
I54287
aI15
aI151272
aa(lp307
I54286
aI130
aI151281
aa(lp308
I54280
aI21
aI151527
aa(lp309
I54279
aI235
aI151536
aa(lp310
I54276
aI20
aI151644
aa(lp311
I54277
aI0
aI151651
aa(lp312
I54278
aI0
aI151656
aa(lp313
I54272
aI88
aI151821
aa(lp314
I54273
aI175
aI151830
aa(lp315
I54273
aI175
aI151933
aa(lp316
I54272
aI88
aI151942
aa(lp317
I65533
aI0
aI151995
aa(lp318
I54287
aI31
aI152220
aa(lp319
I54286
aI4
aI152229
aa(lp320
I54280
aI43
aI152433
aa(lp321
I54279
aI214
aI152442
aa(lp322
I54272
aI88
aI152657
aa(lp323
I54273
aI175
aI152666
aa(lp324
I54273
aI16
aI152775
aa(lp325
I54272
aI37
aI152784
aa(lp326
I65533
aI0
aI152837
aa(lp327
I54287
aI15
aI153056
aa(lp328
I54286
aI130
aI153065
aa(lp329
I54280
aI21
aI153263
aa(lp330
I54279
aI235
aI153272
aa(lp331
I54272
aI88
aI153488
aa(lp332
I54273
aI175
aI153497
aa(lp333
I54273
aI175
aI153600
aa(lp334
I54272
aI88
aI153609
aa(lp335
I65533
aI0
aI153662
aa(lp336
I54287
aI6
aI153909
aa(lp337
I54286
aI133
aI153923
aa(lp338
I54290
aI65
aI153979
aa(lp339
I54288
aI228
aI153988
aa(lp340
I54289
aI1
aI153997
aa(lp341
I54291
aI9
aI154006
aa(lp342
I54292
aI159
aI154015
aa(lp343
I54280
aI43
aI154304
aa(lp344
I54279
aI214
aI154313
aa(lp345
I54273
aI117
aI154518
aa(lp346
I54272
aI24
aI154532
aa(lp347
I54276
aI21
aI154587
aa(lp348
I54274
aI128
aI154596
aa(lp349
I54275
aI1
aI154605
aa(lp350
I54277
aI13
aI154614
aa(lp351
I54278
aI251
aI154623
aa(lp352
I65533
aI0
aI154726
aa(lp353
I54288
aI250
aI154876
aa(lp354
I54280
aI21
aI155115
aa(lp355
I54279
aI235
aI155124
aa(lp356
I54272
aI24
aI155340
aa(lp357
I54273
aI117
aI155349
aa(lp358
I54273
aI117
aI155426
aa(lp359
I54276
aI128
aI155433
aa(lp360
I54273
aI117
aI155488
aa(lp361
I54272
aI24
aI155497
aa(lp362
I65533
aI0
aI155550
aa(lp363
I54288
aI16
aI155700
aa(lp364
I54280
aI43
aI155945
aa(lp365
I54279
aI214
aI155954
aa(lp366
I54272
aI24
aI156170
aa(lp367
I54273
aI117
aI156179
aa(lp368
I54273
aI117
aI156256
aa(lp369
I54276
aI128
aI156263
aa(lp370
I54273
aI234
aI156324
aa(lp371
I54272
aI48
aI156333
aa(lp372
I65533
aI0
aI156386
aa(lp373
I54290
aI64
aI156515
aa(lp374
I54291
aI0
aI156522
aa(lp375
I54292
aI0
aI156527
aa(lp376
I54288
aI38
aI156613
aa(lp377
I54280
aI21
aI156900
aa(lp378
I54279
aI235
aI156909
aa(lp379
I54272
aI24
aI157172
aa(lp380
I54273
aI117
aI157181
aa(lp381
I54273
aI117
aI157264
aa(lp382
I54276
aI20
aI157278
aa(lp383
I54273
aI117
aI157333
aa(lp384
I54272
aI24
aI157342
aa(lp385
I65533
aI0
aI157395
aa(lp386
I54288
aI60
aI157545
aa(lp387
I54280
aI43
aI157790
aa(lp388
I54279
aI214
aI157799
aa(lp389
I54272
aI24
aI158014
aa(lp390
I54273
aI117
aI158023
aa(lp391
I54273
aI116
aI158106
aa(lp392
I54276
aI20
aI158120
aa(lp393
I54273
aI234
aI158181
aa(lp394
I54272
aI48
aI158190
aa(lp395
I65533
aI0
aI158243
aa(lp396
I54288
aI82
aI158393
aa(lp397
I54280
aI21
aI158632
aa(lp398
I54279
aI235
aI158641
aa(lp399
I54272
aI24
aI158856
aa(lp400
I54273
aI117
aI158865
aa(lp401
I54273
aI115
aI158948
aa(lp402
I54276
aI20
aI158962
aa(lp403
I54273
aI117
aI159017
aa(lp404
I54272
aI24
aI159026
aa(lp405
I65533
aI0
aI159079
aa(lp406
I54287
aI7
aI159305
aa(lp407
I54286
aI81
aI159319
aa(lp408
I54290
aI65
aI159375
aa(lp409
I54288
aI82
aI159384
aa(lp410
I54289
aI1
aI159393
aa(lp411
I54291
aI9
aI159402
aa(lp412
I54292
aI159
aI159411
aa(lp413
I54280
aI43
aI159713
aa(lp414
I54279
aI214
aI159722
aa(lp415
I54272
aI24
aI159985
aa(lp416
I54273
aI117
aI159994
aa(lp417
I54273
aI114
aI160077
aa(lp418
I54276
aI20
aI160091
aa(lp419
I54273
aI234
aI160152
aa(lp420
I54272
aI48
aI160161
aa(lp421
I65533
aI0
aI160214
aa(lp422
I54288
aI104
aI160364
aa(lp423
I54280
aI21
aI160603
aa(lp424
I54279
aI235
aI160612
aa(lp425
I54272
aI24
aI160828
aa(lp426
I54273
aI117
aI160837
aa(lp427
I54273
aI113
aI160920
aa(lp428
I54276
aI20
aI160934
aa(lp429
I54273
aI117
aI160989
aa(lp430
I54272
aI24
aI160998
aa(lp431
I65533
aI0
aI161051
aa(lp432
I54288
aI126
aI161201
aa(lp433
I54280
aI43
aI161446
aa(lp434
I54279
aI214
aI161455
aa(lp435
I54272
aI24
aI161671
aa(lp436
I54273
aI117
aI161680
aa(lp437
I54273
aI112
aI161763
aa(lp438
I54276
aI20
aI161777
aa(lp439
I54273
aI234
aI161838
aa(lp440
I54272
aI48
aI161847
aa(lp441
I65533
aI0
aI161900
aa(lp442
I54290
aI64
aI162029
aa(lp443
I54291
aI0
aI162036
aa(lp444
I54292
aI0
aI162041
aa(lp445
I54288
aI148
aI162127
aa(lp446
I54283
aI64
aI162276
aa(lp447
I54284
aI0
aI162283
aa(lp448
I54285
aI0
aI162288
aa(lp449
I54280
aI21
aI162436
aa(lp450
I54279
aI235
aI162445
aa(lp451
I54276
aI20
aI162553
aa(lp452
I54277
aI0
aI162560
aa(lp453
I54278
aI0
aI162565
aa(lp454
I54272
aI24
aI162731
aa(lp455
I54273
aI117
aI162740
aa(lp456
I54273
aI117
aI162843
aa(lp457
I54272
aI24
aI162852
aa(lp458
I65533
aI0
aI162905
aa(lp459
I54288
aI170
aI163055
aa(lp460
I54280
aI43
aI163300
aa(lp461
I54279
aI214
aI163309
aa(lp462
I54272
aI24
aI163525
aa(lp463
I54273
aI117
aI163534
aa(lp464
I54273
aI234
aI163643
aa(lp465
I54272
aI48
aI163652
aa(lp466
I65533
aI0
aI163705
aa(lp467
I54288
aI192
aI163855
aa(lp468
I54280
aI21
aI164094
aa(lp469
I54279
aI235
aI164103
aa(lp470
I54272
aI24
aI164318
aa(lp471
I54273
aI117
aI164327
aa(lp472
I54273
aI117
aI164430
aa(lp473
I54272
aI24
aI164439
aa(lp474
I65533
aI0
aI164492
aa(lp475
I54287
aI3
aI164739
aa(lp476
I54286
aI224
aI164753
aa(lp477
I54290
aI65
aI164809
aa(lp478
I54288
aI192
aI164818
aa(lp479
I54289
aI1
aI164827
aa(lp480
I54291
aI9
aI164836
aa(lp481
I54292
aI159
aI164845
aa(lp482
I54280
aI65
aI165111
aa(lp483
I54279
aI21
aI165125
aa(lp484
I54283
aI67
aI165180
aa(lp485
I54281
aI0
aI165189
aa(lp486
I54282
aI2
aI165198
aa(lp487
I54284
aI15
aI165207
aa(lp488
I54285
aI196
aI165216
aa(lp489
I54273
aI175
aI165480
aa(lp490
I54272
aI88
aI165494
aa(lp491
I54276
aI21
aI165549
aa(lp492
I54274
aI128
aI165558
aa(lp493
I54275
aI1
aI165567
aa(lp494
I54277
aI13
aI165576
aa(lp495
I54278
aI251
aI165585
aa(lp496
I65533
aI0
aI165675
aa(lp497
I54288
aI214
aI165825
aa(lp498
I54280
aI65
aI166044
aa(lp499
I54283
aI128
aI166051
aa(lp500
I54272
aI88
aI166294
aa(lp501
I54273
aI175
aI166303
aa(lp502
I54273
aI175
aI166380
aa(lp503
I54276
aI128
aI166387
aa(lp504
I54273
aI175
aI166442
aa(lp505
I54272
aI88
aI166451
aa(lp506
I65533
aI0
aI166504
aa(lp507
I54288
aI236
aI166654
aa(lp508
I54280
aI65
aI166873
aa(lp509
I54283
aI128
aI166880
aa(lp510
I54272
aI88
aI167123
aa(lp511
I54273
aI175
aI167132
aa(lp512
I54273
aI175
aI167209
aa(lp513
I54276
aI128
aI167216
aa(lp514
I54273
aI3
aI167277
aa(lp515
I54272
aI40
aI167286
aa(lp516
I65533
aI0
aI167339
aa(lp517
I54288
aI2
aI167544
aa(lp518
I54283
aI66
aI167693
aa(lp519
I54284
aI0
aI167700
aa(lp520
I54285
aI0
aI167705
aa(lp521
I54272
aI88
aI168096
aa(lp522
I54273
aI175
aI168105
aa(lp523
I54273
aI175
aI168188
aa(lp524
I54276
aI20
aI168202
aa(lp525
I54273
aI175
aI168257
aa(lp526
I54272
aI88
aI168266
aa(lp527
I65533
aI0
aI168319
aa(lp528
I54288
aI24
aI168469
aa(lp529
I54272
aI88
aI168903
aa(lp530
I54273
aI175
aI168912
aa(lp531
I54273
aI174
aI168995
aa(lp532
I54276
aI20
aI169009
aa(lp533
I54273
aI3
aI169070
aa(lp534
I54272
aI40
aI169079
aa(lp535
I65533
aI0
aI169132
aa(lp536
I54288
aI46
aI169282
aa(lp537
I54272
aI88
aI169716
aa(lp538
I54273
aI175
aI169725
aa(lp539
I54273
aI173
aI169808
aa(lp540
I54276
aI20
aI169822
aa(lp541
I54273
aI175
aI169877
aa(lp542
I54272
aI88
aI169886
aa(lp543
I65533
aI0
aI169939
aa(lp544
I54288
aI68
aI170144
aa(lp545
I54280
aI67
aI170392
aa(lp546
I54279
aI21
aI170406
aa(lp547
I54283
aI67
aI170461
aa(lp548
I54281
aI0
aI170470
aa(lp549
I54282
aI2
aI170479
aa(lp550
I54284
aI15
aI170488
aa(lp551
I54285
aI196
aI170497
aa(lp552
I54272
aI88
aI170799
aa(lp553
I54273
aI175
aI170808
aa(lp554
I54273
aI172
aI170891
aa(lp555
I54276
aI20
aI170905
aa(lp556
I54273
aI3
aI170966
aa(lp557
I54272
aI42
aI170975
aa(lp558
I65533
aI0
aI171028
aa(lp559
I54288
aI90
aI171178
aa(lp560
I54280
aI67
aI171397
aa(lp561
I54283
aI128
aI171404
aa(lp562
I54272
aI88
aI171647
aa(lp563
I54273
aI175
aI171656
aa(lp564
I54273
aI171
aI171739
aa(lp565
I54276
aI20
aI171753
aa(lp566
I54273
aI175
aI171808
aa(lp567
I54272
aI88
aI171817
aa(lp568
I65533
aI0
aI171870
aa(lp569
I54288
aI112
aI172020
aa(lp570
I54280
aI67
aI172239
aa(lp571
I54283
aI128
aI172246
aa(lp572
I54272
aI88
aI172489
aa(lp573
I54273
aI175
aI172498
aa(lp574
I54273
aI170
aI172581
aa(lp575
I54276
aI20
aI172595
aa(lp576
I54273
aI3
aI172656
aa(lp577
I54272
aI42
aI172665
aa(lp578
I65533
aI0
aI172718
aa(lp579
I54288
aI134
aI172923
aa(lp580
I54283
aI66
aI173072
aa(lp581
I54284
aI0
aI173079
aa(lp582
I54285
aI0
aI173084
aa(lp583
I54276
aI20
aI173319
aa(lp584
I54277
aI0
aI173326
aa(lp585
I54278
aI0
aI173331
aa(lp586
I54272
aI88
aI173496
aa(lp587
I54273
aI175
aI173505
aa(lp588
I54273
aI175
aI173608
aa(lp589
I54272
aI88
aI173617
aa(lp590
I65533
aI0
aI173670
aa(lp591
I54288
aI156
aI173820
aa(lp592
I54272
aI88
aI174253
aa(lp593
I54273
aI175
aI174262
aa(lp594
I54273
aI3
aI174371
aa(lp595
I54272
aI42
aI174380
aa(lp596
I65533
aI0
aI174433
aa(lp597
I54288
aI178
aI174583
aa(lp598
I54272
aI88
aI175017
aa(lp599
I54273
aI175
aI175026
aa(lp600
I54273
aI175
aI175129
aa(lp601
I54272
aI88
aI175138
aa(lp602
I65533
aI0
aI175191
aa(lp603
I54288
aI200
aI175396
aa(lp604
I54280
aI67
aI175644
aa(lp605
I54279
aI21
aI175658
aa(lp606
I54283
aI67
aI175713
aa(lp607
I54281
aI0
aI175722
aa(lp608
I54282
aI2
aI175731
aa(lp609
I54284
aI15
aI175740
aa(lp610
I54285
aI196
aI175749
aa(lp611
I54273
aI117
aI175992
aa(lp612
I54272
aI24
aI176006
aa(lp613
I54276
aI21
aI176061
aa(lp614
I54274
aI128
aI176070
aa(lp615
I54275
aI1
aI176079
aa(lp616
I54277
aI13
aI176088
aa(lp617
I54278
aI251
aI176097
aa(lp618
I65533
aI0
aI176187
aa(lp619
I54288
aI222
aI176337
aa(lp620
I54280
aI67
aI176556
aa(lp621
I54283
aI128
aI176563
aa(lp622
I54272
aI24
aI176807
aa(lp623
I54273
aI117
aI176816
aa(lp624
I54273
aI117
aI176893
aa(lp625
I54276
aI128
aI176900
aa(lp626
I54273
aI117
aI176955
aa(lp627
I54272
aI24
aI176964
aa(lp628
I65533
aI0
aI177017
aa(lp629
I54288
aI244
aI177167
aa(lp630
I54280
aI67
aI177386
aa(lp631
I54283
aI128
aI177393
aa(lp632
I54272
aI24
aI177637
aa(lp633
I54273
aI117
aI177646
aa(lp634
I54273
aI117
aI177723
aa(lp635
I54276
aI128
aI177730
aa(lp636
I54273
aI234
aI177791
aa(lp637
I54272
aI48
aI177800
aa(lp638
I65533
aI0
aI177853
aa(lp639
I54290
aI64
aI177982
aa(lp640
I54291
aI0
aI177989
aa(lp641
I54292
aI0
aI177994
aa(lp642
I54288
aI10
aI178080
aa(lp643
I54283
aI66
aI178229
aa(lp644
I54284
aI0
aI178236
aa(lp645
I54285
aI0
aI178241
aa(lp646
I54272
aI24
aI178631
aa(lp647
I54273
aI117
aI178640
aa(lp648
I54273
aI117
aI178723
aa(lp649
I54276
aI20
aI178737
aa(lp650
I54273
aI117
aI178792
aa(lp651
I54272
aI24
aI178801
aa(lp652
I65533
aI0
aI178854
aa(lp653
I54288
aI32
aI179004
aa(lp654
I54272
aI24
aI179437
aa(lp655
I54273
aI117
aI179446
aa(lp656
I54273
aI116
aI179529
aa(lp657
I54276
aI20
aI179543
aa(lp658
I54273
aI234
aI179604
aa(lp659
I54272
aI48
aI179613
aa(lp660
I65533
aI0
aI179666
aa(lp661
I54288
aI54
aI179816
aa(lp662
I54272
aI24
aI180249
aa(lp663
I54273
aI117
aI180258
aa(lp664
I54273
aI115
aI180341
aa(lp665
I54276
aI20
aI180355
aa(lp666
I54273
aI117
aI180410
aa(lp667
I54272
aI24
aI180419
aa(lp668
I65533
aI0
aI180472
aa(lp669
I54287
aI7
aI180698
aa(lp670
I54286
aI193
aI180712
aa(lp671
I54290
aI65
aI180768
aa(lp672
I54288
aI54
aI180777
aa(lp673
I54289
aI1
aI180786
aa(lp674
I54291
aI9
aI180795
aa(lp675
I54292
aI159
aI180804
aa(lp676
I54280
aI67
aI181048
aa(lp677
I54279
aI21
aI181062
aa(lp678
I54283
aI67
aI181117
aa(lp679
I54281
aI0
aI181126
aa(lp680
I54282
aI2
aI181135
aa(lp681
I54284
aI15
aI181144
aa(lp682
I54285
aI196
aI181153
aa(lp683
I54272
aI24
aI181454
aa(lp684
I54273
aI117
aI181463
aa(lp685
I54273
aI114
aI181546
aa(lp686
I54276
aI20
aI181560
aa(lp687
I54273
aI234
aI181621
aa(lp688
I54272
aI48
aI181630
aa(lp689
I65533
aI0
aI181683
aa(lp690
I54288
aI76
aI181833
aa(lp691
I54280
aI67
aI182052
aa(lp692
I54283
aI128
aI182059
aa(lp693
I54272
aI24
aI182303
aa(lp694
I54273
aI117
aI182312
aa(lp695
I54273
aI113
aI182395
aa(lp696
I54276
aI20
aI182409
aa(lp697
I54273
aI117
aI182464
aa(lp698
I54272
aI24
aI182473
aa(lp699
I65533
aI0
aI182526
aa(lp700
I54288
aI98
aI182676
aa(lp701
I54280
aI67
aI182895
aa(lp702
I54283
aI128
aI182902
aa(lp703
I54272
aI24
aI183146
aa(lp704
I54273
aI117
aI183155
aa(lp705
I54273
aI112
aI183238
aa(lp706
I54276
aI20
aI183252
aa(lp707
I54273
aI234
aI183313
aa(lp708
I54272
aI48
aI183322
aa(lp709
I65533
aI0
aI183375
aa(lp710
I54290
aI64
aI183504
aa(lp711
I54291
aI0
aI183511
aa(lp712
I54292
aI0
aI183516
aa(lp713
I54288
aI120
aI183602
aa(lp714
I54283
aI66
aI183751
aa(lp715
I54284
aI0
aI183758
aa(lp716
I54285
aI0
aI183763
aa(lp717
I54276
aI20
aI183998
aa(lp718
I54277
aI0
aI184005
aa(lp719
I54278
aI0
aI184010
aa(lp720
I54272
aI24
aI184176
aa(lp721
I54273
aI117
aI184185
aa(lp722
I54273
aI117
aI184288
aa(lp723
I54272
aI24
aI184297
aa(lp724
I65533
aI0
aI184350
aa(lp725
I54288
aI142
aI184500
aa(lp726
I54272
aI24
aI184934
aa(lp727
I54273
aI117
aI184943
aa(lp728
I54273
aI234
aI185052
aa(lp729
I54272
aI48
aI185061
aa(lp730
I65533
aI0
aI185114
aa(lp731
I54288
aI164
aI185264
aa(lp732
I54272
aI24
aI185697
aa(lp733
I54273
aI117
aI185706
aa(lp734
I54273
aI117
aI185809
aa(lp735
I54272
aI24
aI185818
aa.I735
.I735
.F79.257
.(lp0
I1
aI1
aI0
a.I9
.F0.25
.