(lp0
(lp1
I65533
aI0
aI981773
aa(lp2
I54287
aI2
aI982001
aa(lp3
I54286
aI189
aI982015
aa(lp4
I54290
aI65
aI982071
aa(lp5
I54288
aI162
aI982080
aa(lp6
I54289
aI1
aI982089
aa(lp7
I54291
aI9
aI982098
aa(lp8
I54292
aI159
aI982107
aa(lp9
I54280
aI21
aI982352
aa(lp10
I54279
aI235
aI982366
aa(lp11
I54283
aI65
aI982421
aa(lp12
I54281
aI128
aI982430
aa(lp13
I54282
aI1
aI982439
aa(lp14
I54284
aI6
aI982448
aa(lp15
I54285
aI75
aI982457
aa(lp16
I54273
aI32
aI982700
aa(lp17
I54272
aI220
aI982714
aa(lp18
I54276
aI65
aI982769
aa(lp19
I54274
aI96
aI982778
aa(lp20
I54275
aI13
aI982787
aa(lp21
I54277
aI41
aI982796
aa(lp22
I54278
aI95
aI982805
aa(lp23
I65533
aI0
aI982895
aa(lp24
I54288
aI184
aI983045
aa(lp25
I54280
aI21
aI983264
aa(lp26
I54283
aI128
aI983271
aa(lp27
I54280
aI21
aI983326
aa(lp28
I54279
aI235
aI983335
aa(lp29
I54272
aI88
aI983638
aa(lp30
I54273
aI33
aI983647
aa(lp31
I54275
aI12
aI983750
aa(lp32
I54274
aI128
aI983764
aa(lp33
I65533
aI0
aI983859
aa(lp34
I54288
aI206
aI984009
aa(lp35
I54280
aI21
aI984228
aa(lp36
I54283
aI128
aI984235
aa(lp37
I54280
aI43
aI984296
aa(lp38
I54279
aI214
aI984305
aa(lp39
I54272
aI150
aI984641
aa(lp40
I54273
aI33
aI984650
aa(lp41
I54275
aI11
aI984753
aa(lp42
I54274
aI160
aI984767
aa(lp43
I65533
aI0
aI984862
aa(lp44
I54288
aI228
aI985067
aa(lp45
I54280
aI21
aI985340
aa(lp46
I54283
aI64
aI985354
aa(lp47
I54280
aI21
aI985409
aa(lp48
I54279
aI235
aI985418
aa(lp49
I54272
aI150
aI985803
aa(lp50
I54273
aI33
aI985812
aa(lp51
I54275
aI10
aI985915
aa(lp52
I54274
aI192
aI985929
aa(lp53
I65533
aI0
aI986024
aa(lp54
I54288
aI250
aI986174
aa(lp55
I54280
aI20
aI986399
aa(lp56
I54283
aI64
aI986413
aa(lp57
I54280
aI43
aI986474
aa(lp58
I54279
aI214
aI986483
aa(lp59
I54272
aI88
aI986787
aa(lp60
I54273
aI33
aI986796
aa(lp61
I54275
aI9
aI986899
aa(lp62
I54274
aI224
aI986913
aa(lp63
I65533
aI0
aI987008
aa(lp64
I54288
aI16
aI987158
aa(lp65
I54280
aI19
aI987383
aa(lp66
I54283
aI64
aI987397
aa(lp67
I54280
aI21
aI987452
aa(lp68
I54279
aI235
aI987461
aa(lp69
I54272
aI26
aI987732
aa(lp70
I54273
aI33
aI987741
aa(lp71
I54275
aI9
aI987844
aa(lp72
I54274
aI0
aI987858
aa(lp73
I65533
aI0
aI987953
aa(lp74
I54288
aI38
aI988158
aa(lp75
I54280
aI18
aI988431
aa(lp76
I54283
aI64
aI988445
aa(lp77
I54280
aI43
aI988506
aa(lp78
I54279
aI214
aI988515
aa(lp79
I54272
aI220
aI988801
aa(lp80
I54273
aI32
aI988810
aa(lp81
I54275
aI8
aI988919
aa(lp82
I54274
aI32
aI988933
aa(lp83
I65533
aI0
aI989028
aa(lp84
I54288
aI60
aI989178
aa(lp85
I54280
aI17
aI989403
aa(lp86
I54283
aI64
aI989417
aa(lp87
I54280
aI21
aI989472
aa(lp88
I54279
aI235
aI989481
aa(lp89
I54272
aI220
aI989718
aa(lp90
I54273
aI32
aI989727
aa(lp91
I54275
aI9
aI989829
aa(lp92
I54274
aI0
aI989843
aa(lp93
I65533
aI0
aI989938
aa(lp94
I54288
aI82
aI990088
aa(lp95
I54280
aI16
aI990313
aa(lp96
I54283
aI64
aI990327
aa(lp97
I54280
aI43
aI990388
aa(lp98
I54279
aI214
aI990397
aa(lp99
I54272
aI26
aI990667
aa(lp100
I54273
aI33
aI990676
aa(lp101
I54275
aI9
aI990778
aa(lp102
I54274
aI224
aI990792
aa(lp103
I65533
aI0
aI990887
aa(lp104
I54288
aI104
aI991092
aa(lp105
I54280
aI15
aI991365
aa(lp106
I54283
aI64
aI991379
aa(lp107
I54280
aI21
aI991434
aa(lp108
I54279
aI235
aI991443
aa(lp109
I54272
aI88
aI991794
aa(lp110
I54273
aI33
aI991803
aa(lp111
I54275
aI10
aI991905
aa(lp112
I54274
aI192
aI991919
aa(lp113
I65533
aI0
aI992014
aa(lp114
I54288
aI126
aI992164
aa(lp115
I54280
aI14
aI992389
aa(lp116
I54283
aI64
aI992403
aa(lp117
I54280
aI43
aI992464
aa(lp118
I54279
aI214
aI992473
aa(lp119
I54272
aI150
aI992809
aa(lp120
I54273
aI33
aI992818
aa(lp121
I54275
aI11
aI992920
aa(lp122
I54274
aI160
aI992934
aa(lp123
I65533
aI0
aI993029
aa(lp124
I54288
aI148
aI993179
aa(lp125
I54280
aI13
aI993404
aa(lp126
I54283
aI64
aI993418
aa(lp127
I54280
aI21
aI993473
aa(lp128
I54279
aI235
aI993482
aa(lp129
I54272
aI150
aI993819
aa(lp130
I54273
aI33
aI993828
aa(lp131
I54275
aI12
aI993930
aa(lp132
I54274
aI128
aI993944
aa(lp133
I65533
aI0
aI994039
aa(lp134
I54288
aI170
aI994244
aa(lp135
I54280
aI12
aI994517
aa(lp136
I54283
aI64
aI994531
aa(lp137
I54280
aI43
aI994592
aa(lp138
I54279
aI214
aI994601
aa(lp139
I54272
aI88
aI994953
aa(lp140
I54273
aI33
aI994962
aa(lp141
I54275
aI13
aI995064
aa(lp142
I54274
aI96
aI995078
aa(lp143
I65533
aI0
aI995173
aa(lp144
I54288
aI192
aI995323
aa(lp145
I54280
aI11
aI995548
aa(lp146
I54283
aI64
aI995562
aa(lp147
I54280
aI21
aI995617
aa(lp148
I54279
aI235
aI995626
aa(lp149
I54272
aI26
aI995897
aa(lp150
I54273
aI33
aI995906
aa(lp151
I54275
aI14
aI996017
aa(lp152
I54274
aI64
aI996031
aa(lp153
I65533
aI0
aI996126
aa(lp154
I54288
aI214
aI996276
aa(lp155
I54280
aI10
aI996501
aa(lp156
I54283
aI64
aI996515
aa(lp157
I54280
aI43
aI996576
aa(lp158
I54279
aI214
aI996585
aa(lp159
I54272
aI220
aI996823
aa(lp160
I54273
aI32
aI996832
aa(lp161
I54275
aI13
aI996935
aa(lp162
I54274
aI96
aI996949
aa(lp163
I65533
aI0
aI997044
aa(lp164
I54288
aI236
aI997249
aa(lp165
I54280
aI9
aI997522
aa(lp166
I54283
aI64
aI997536
aa(lp167
I54280
aI21
aI997591
aa(lp168
I54279
aI235
aI997600
aa(lp169
I54272
aI220
aI997885
aa(lp170
I54273
aI32
aI997894
aa(lp171
I54275
aI12
aI997997
aa(lp172
I54274
aI128
aI998011
aa(lp173
I65533
aI0
aI998106
aa(lp174
I54288
aI2
aI998256
aa(lp175
I54280
aI8
aI998481
aa(lp176
I54283
aI64
aI998495
aa(lp177
I54280
aI43
aI998556
aa(lp178
I54279
aI214
aI998565
aa(lp179
I54272
aI26
aI998835
aa(lp180
I54273
aI33
aI998844
aa(lp181
I54275
aI11
aI998947
aa(lp182
I54274
aI160
aI998961
aa(lp183
I65533
aI0
aI999056
aa(lp184
I54288
aI24
aI999206
aa(lp185
I54280
aI7
aI999431
aa(lp186
I54283
aI64
aI999445
aa(lp187
I54280
aI21
aI999500
aa(lp188
I54279
aI235
aI999509
aa(lp189
I54272
aI88
aI999812
aa(lp190
I54273
aI33
aI999821
aa(lp191
I54275
aI10
aI999924
aa(lp192
I54274
aI192
aI999938
aa(lp193
I65533
aI0
aI1000033
aa(lp194
I54288
aI46
aI1000238
aa(lp195
I54280
aI6
aI1000511
aa(lp196
I54283
aI64
aI1000525
aa(lp197
I54280
aI43
aI1000586
aa(lp198
I54279
aI214
aI1000595
aa(lp199
I54272
aI150
aI1000979
aa(lp200
I54273
aI33
aI1000988
aa(lp201
I54275
aI9
aI1001091
aa(lp202
I54274
aI224
aI1001105
aa(lp203
I65533
aI0
aI1001200
aa(lp204
I54288
aI68
aI1001350
aa(lp205
I54280
aI5
aI1001575
aa(lp206
I54283
aI64
aI1001589
aa(lp207
I54280
aI21
aI1001644
aa(lp208
I54279
aI235
aI1001653
aa(lp209
I54272
aI150
aI1001990
aa(lp210
I54273
aI33
aI1001999
aa(lp211
I54275
aI9
aI1002102
aa(lp212
I54274
aI0
aI1002116
aa(lp213
I65533
aI0
aI1002211
aa(lp214
I54288
aI90
aI1002361
aa(lp215
I54280
aI4
aI1002586
aa(lp216
I54283
aI64
aI1002600
aa(lp217
I54280
aI43
aI1002661
aa(lp218
I54279
aI214
aI1002670
aa(lp219
I54272
aI88
aI1002974
aa(lp220
I54273
aI33
aI1002983
aa(lp221
I54275
aI8
aI1003092
aa(lp222
I54274
aI32
aI1003106
aa(lp223
I65533
aI0
aI1003201
aa(lp224
I54290
aI64
aI1003330
aa(lp225
I54291
aI0
aI1003337
aa(lp226
I54292
aI0
aI1003342
aa(lp227
I54288
aI112
aI1003428
aa(lp228
I54283
aI64
aI1003577
aa(lp229
I54284
aI0
aI1003584
aa(lp230
I54285
aI0
aI1003589
aa(lp231
I54280
aI21
aI1003743
aa(lp232
I54279
aI235
aI1003752
aa(lp233
I54276
aI64
aI1003860
aa(lp234
I54277
aI0
aI1003867
aa(lp235
I54278
aI0
aI1003872
aa(lp236
I54272
aI26
aI1004093
aa(lp237
I54273
aI33
aI1004102
aa(lp238
I54275
aI9
aI1004204
aa(lp239
I54274
aI0
aI1004218
aa(lp240
I65533
aI0
aI1004313
aa(lp241
I54288
aI134
aI1004463
aa(lp242
I54280
aI43
aI1004714
aa(lp243
I54279
aI214
aI1004723
aa(lp244
I54272
aI220
aI1004961
aa(lp245
I54273
aI32
aI1004970
aa(lp246
I54275
aI9
aI1005072
aa(lp247
I54274
aI224
aI1005086
aa(lp248
I65533
aI0
aI1005181
aa(lp249
I54288
aI156
aI1005331
aa(lp250
I54280
aI21
aI1005576
aa(lp251
I54279
aI235
aI1005585
aa(lp252
I54272
aI220
aI1005822
aa(lp253
I54273
aI32
aI1005831
aa(lp254
I54275
aI10
aI1005933
aa(lp255
I54274
aI192
aI1005947
aa(lp256
I65533
aI0
aI1006042
aa(lp257
I54287
aI15
aI1006292
aa(lp258
I54286
aI130
aI1006306
aa(lp259
I54290
aI129
aI1006362
aa(lp260
I54288
aI0
aI1006371
aa(lp261
I54289
aI2
aI1006380
aa(lp262
I54291
aI10
aI1006389
aa(lp263
I54292
aI9
aI1006398
aa(lp264
I54283
aI64
aI1006637
aa(lp265
I54281
aI128
aI1006646
aa(lp266
I54282
aI1
aI1006655
aa(lp267
I54284
aI6
aI1006664
aa(lp268
I54285
aI75
aI1006673
aa(lp269
I54273
aI13
aI1006950
aa(lp270
I54272
aI208
aI1006964
aa(lp271
I54276
aI65
aI1007019
aa(lp272
I54274
aI0
aI1007028
aa(lp273
I54275
aI8
aI1007037
aa(lp274
I54277
aI9
aI1007046
aa(lp275
I54278
aI10
aI1007055
aa(lp276
I65533
aI0
aI1007145
aa(lp277
I54287
aI15
aI1007338
aa(lp278
I54290
aI128
aI1007345
aa(lp279
I54287
aI15
aI1007400
aa(lp280
I54286
aI130
aI1007409
aa(lp281
I54280
aI3
aI1007587
aa(lp282
I54283
aI128
aI1007594
aa(lp283
I54280
aI21
aI1007649
aa(lp284
I54279
aI235
aI1007658
aa(lp285
I54273
aI13
aI1007836
aa(lp286
I54276
aI128
aI1007843
aa(lp287
I65533
aI0
aI1007914
aa(lp288
I54287
aI15
aI1008107
aa(lp289
I54290
aI128
aI1008114
aa(lp290
I54287
aI31
aI1008175
aa(lp291
I54286
aI4
aI1008184
aa(lp292
I54280
aI3
aI1008362
aa(lp293
I54283
aI128
aI1008369
aa(lp294
I54280
aI43
aI1008430
aa(lp295
I54279
aI214
aI1008439
aa(lp296
I54273
aI13
aI1008617
aa(lp297
I54276
aI128
aI1008624
aa(lp298
I65533
aI0
aI1008695
aa(lp299
I54287
aI15
aI1008949
aa(lp300
I54290
aI128
aI1008963
aa(lp301
I54287
aI15
aI1009018
aa(lp302
I54286
aI130
aI1009027
aa(lp303
I54280
aI3
aI1009259
aa(lp304
I54283
aI64
aI1009273
aa(lp305
I54280
aI21
aI1009328
aa(lp306
I54279
aI235
aI1009337
aa(lp307
I54273
aI13
aI1009569
aa(lp308
I54276
aI64
aI1009583
aa(lp309
I65533
aI0
aI1009654
aa(lp310
I54287
aI14
aI1009853
aa(lp311
I54290
aI128
aI1009867
aa(lp312
I54287
aI31
aI1009928
aa(lp313
I54286
aI4
aI1009937
aa(lp314
I54280
aI2
aI1010121
aa(lp315
I54283
aI64
aI1010135
aa(lp316
I54280
aI43
aI1010196
aa(lp317
I54279
aI214
aI1010205
aa(lp318
I54273
aI12
aI1010389
aa(lp319
I54276
aI64
aI1010403
aa(lp320
I65533
aI0
aI1010474
aa(lp321
I54287
aI13
aI1010673
aa(lp322
I54290
aI128
aI1010687
aa(lp323
I54287
aI15
aI1010742
aa(lp324
I54286
aI130
aI1010751
aa(lp325
I54280
aI1
aI1010935
aa(lp326
I54283
aI64
aI1010949
aa(lp327
I54280
aI21
aI1011004
aa(lp328
I54279
aI235
aI1011013
aa(lp329
I54273
aI11
aI1011197
aa(lp330
I54276
aI64
aI1011211
aa(lp331
I65533
aI0
aI1011282
aa(lp332
I54287
aI12
aI1011536
aa(lp333
I54290
aI128
aI1011550
aa(lp334
I54287
aI31
aI1011611
aa(lp335
I54286
aI4
aI1011620
aa(lp336
I54280
aI43
aI1011872
aa(lp337
I54279
aI214
aI1011881
aa(lp338
I54273
aI10
aI1012113
aa(lp339
I54276
aI64
aI1012127
aa(lp340
I65533
aI0
aI1012198
aa(lp341
I54287
aI11
aI1012397
aa(lp342
I54290
aI128
aI1012411
aa(lp343
I54287
aI15
aI1012466
aa(lp344
I54286
aI130
aI1012475
aa(lp345
I54280
aI21
aI1012673
aa(lp346
I54279
aI235
aI1012682
aa(lp347
I54273
aI9
aI1012866
aa(lp348
I54276
aI64
aI1012880
aa(lp349
I65533
aI0
aI1012951
aa(lp350
I54287
aI10
aI1013150
aa(lp351
I54290
aI128
aI1013164
aa(lp352
I54287
aI31
aI1013225
aa(lp353
I54286
aI4
aI1013234
aa(lp354
I54280
aI43
aI1013438
aa(lp355
I54279
aI214
aI1013447
aa(lp356
I54273
aI8
aI1013631
aa(lp357
I54276
aI64
aI1013645
aa(lp358
I65533
aI0
aI1013716
aa(lp359
I54290
aI128
aI1013845
aa(lp360
I54291
aI0
aI1013852
aa(lp361
I54292
aI0
aI1013857
aa(lp362
I54287
aI15
aI1014012
aa(lp363
I54286
aI130
aI1014021
aa(lp364
I54280
aI21
aI1014267
aa(lp365
I54279
aI235
aI1014276
aa(lp366
I54273
aI7
aI1014508
aa(lp367
I54276
aI64
aI1014522
aa(lp368
I65533
aI0
aI1014593
aa(lp369
I54287
aI31
aI1014818
aa(lp370
I54286
aI4
aI1014827
aa(lp371
I54280
aI43
aI1015031
aa(lp372
I54279
aI214
aI1015040
aa(lp373
I54273
aI6
aI1015224
aa(lp374
I54276
aI64
aI1015238
aa(lp375
I65533
aI0
aI1015309
aa(lp376
I54287
aI15
aI1015528
aa(lp377
I54286
aI130
aI1015537
aa(lp378
I54280
aI21
aI1015735
aa(lp379
I54279
aI235
aI1015744
aa(lp380
I54273
aI5
aI1015928
aa(lp381
I54276
aI64
aI1015942
aa(lp382
I65533
aI0
aI1016013
aa(lp383
I54287
aI4
aI1016263
aa(lp384
I54286
aI226
aI1016277
aa(lp385
I54290
aI65
aI1016333
aa(lp386
I54288
aI156
aI1016342
aa(lp387
I54289
aI1
aI1016351
aa(lp388
I54291
aI9
aI1016360
aa(lp389
I54292
aI159
aI1016369
aa(lp390
I54280
aI43
aI1016659
aa(lp391
I54279
aI214
aI1016668
aa(lp392
I54273
aI4
aI1016900
aa(lp393
I54276
aI64
aI1016914
aa(lp394
I65533
aI0
aI1016985
aa(lp395
I54288
aI178
aI1017135
aa(lp396
I54280
aI21
aI1017374
aa(lp397
I54279
aI235
aI1017383
aa(lp398
I54273
aI3
aI1017567
aa(lp399
I54276
aI64
aI1017581
aa(lp400
I65533
aI0
aI1017652
aa(lp401
I54288
aI200
aI1017802
aa(lp402
I54280
aI43
aI1018047
aa(lp403
I54279
aI214
aI1018056
aa(lp404
I54273
aI2
aI1018240
aa(lp405
I54276
aI64
aI1018254
aa(lp406
I65533
aI0
aI1018325
aa(lp407
I54290
aI64
aI1018454
aa(lp408
I54291
aI0
aI1018461
aa(lp409
I54292
aI0
aI1018466
aa(lp410
I54288
aI222
aI1018552
aa(lp411
I54280
aI21
aI1018839
aa(lp412
I54279
aI235
aI1018848
aa(lp413
I54273
aI1
aI1019080
aa(lp414
I54276
aI64
aI1019094
aa(lp415
I65533
aI0
aI1019165
aa(lp416
I54288
aI244
aI1019315
aa(lp417
I54280
aI43
aI1019560
aa(lp418
I54279
aI214
aI1019569
aa(lp419
I65533
aI0
aI1019783
aa(lp420
I54288
aI10
aI1019933
aa(lp421
I54280
aI21
aI1020172
aa(lp422
I54279
aI235
aI1020181
aa.I422
.I422
.F71.44
.(lp0
I1
aI1
aI0
a.I9
.F0.25
.