(lp0
(lp1
I65533
aI0
aI39087852
aa(lp2
I54276
aI65
aI39088130
aa(lp3
I54275
aI5
aI39088139
aa(lp4
I54274
aI137
aI39088148
aa(lp5
I54272
aI107
aI39088166
aa(lp6
I54273
aI20
aI39088175
aa(lp7
I54283
aI17
aI39088393
aa(lp8
I54282
aI8
aI39088402
aa(lp9
I54281
aI8
aI39088411
aa(lp10
I54279
aI16
aI39088429
aa(lp11
I54280
aI39
aI39088438
aa(lp12
I54290
aI65
aI39088591
aa(lp13
I54289
aI247
aI39088600
aa(lp14
I54288
aI141
aI39088609
aa(lp15
I54286
aI196
aI39088627
aa(lp16
I54287
aI9
aI39088636
aa(lp17
I65533
aI0
aI39088647
aa(lp18
I54276
aI65
aI39088893
aa(lp19
I54275
aI5
aI39088902
aa(lp20
I54274
aI73
aI39088911
aa(lp21
I54272
aI43
aI39088929
aa(lp22
I54273
aI21
aI39088938
aa(lp23
I54283
aI17
aI39089144
aa(lp24
I54282
aI8
aI39089153
aa(lp25
I54281
aI8
aI39089162
aa(lp26
I54279
aI16
aI39089180
aa(lp27
I54280
aI39
aI39089189
aa(lp28
I54290
aI65
aI39089333
aa(lp29
I54289
aI247
aI39089342
aa(lp30
I54288
aI77
aI39089351
aa(lp31
I54286
aI196
aI39089369
aa(lp32
I54287
aI9
aI39089378
aa(lp33
I65533
aI0
aI39089389
aa(lp34
I54276
aI65
aI39089639
aa(lp35
I54275
aI5
aI39089648
aa(lp36
I54274
aI9
aI39089657
aa(lp37
I54272
aI235
aI39089675
aa(lp38
I54273
aI21
aI39089684
aa(lp39
I54283
aI17
aI39089890
aa(lp40
I54282
aI8
aI39089899
aa(lp41
I54281
aI8
aI39089908
aa(lp42
I54279
aI16
aI39089926
aa(lp43
I54280
aI39
aI39089935
aa(lp44
I54290
aI65
aI39090079
aa(lp45
I54289
aI247
aI39090088
aa(lp46
I54288
aI13
aI39090097
aa(lp47
I54286
aI196
aI39090115
aa(lp48
I54287
aI9
aI39090124
aa(lp49
I65533
aI0
aI39090135
aa(lp50
I54276
aI65
aI39090406
aa(lp51
I54275
aI4
aI39090415
aa(lp52
I54274
aI201
aI39090424
aa(lp53
I54272
aI171
aI39090442
aa(lp54
I54273
aI22
aI39090451
aa(lp55
I54290
aI65
aI39090809
aa(lp56
I54289
aI246
aI39090818
aa(lp57
I54288
aI205
aI39090827
aa(lp58
I54286
aI196
aI39090845
aa(lp59
I54287
aI9
aI39090854
aa(lp60
I65533
aI0
aI39090865
aa(lp61
I54276
aI65
aI39091124
aa(lp62
I54275
aI4
aI39091133
aa(lp63
I54274
aI137
aI39091142
aa(lp64
I54272
aI107
aI39091160
aa(lp65
I54273
aI23
aI39091169
aa(lp66
I54285
aI152
aI39091223
aa(lp67
I54284
aI8
aI39091231
aa(lp68
I54283
aI16
aI39091242
aa(lp69
I54283
aI9
aI39091335
aa(lp70
I54282
aI8
aI39091344
aa(lp71
I54281
aI8
aI39091353
aa(lp72
I54279
aI32
aI39091371
aa(lp73
I54280
aI78
aI39091380
aa(lp74
I54290
aI65
aI39091524
aa(lp75
I54289
aI246
aI39091533
aa(lp76
I54288
aI141
aI39091542
aa(lp77
I54286
aI196
aI39091560
aa(lp78
I54287
aI9
aI39091569
aa(lp79
I65533
aI0
aI39091580
aa(lp80
I54276
aI65
aI39091826
aa(lp81
I54275
aI4
aI39091835
aa(lp82
I54274
aI73
aI39091844
aa(lp83
I54272
aI171
aI39091862
aa(lp84
I54273
aI22
aI39091871
aa(lp85
I54283
aI129
aI39092072
aa(lp86
I54282
aI8
aI39092081
aa(lp87
I54281
aI8
aI39092090
aa(lp88
I54279
aI46
aI39092108
aa(lp89
I54280
aI253
aI39092117
aa(lp90
I54290
aI65
aI39092261
aa(lp91
I54289
aI246
aI39092270
aa(lp92
I54288
aI77
aI39092279
aa(lp93
I54286
aI196
aI39092297
aa(lp94
I54287
aI9
aI39092306
aa(lp95
I65533
aI0
aI39092317
aa(lp96
I54276
aI65
aI39092595
aa(lp97
I54275
aI4
aI39092604
aa(lp98
I54274
aI9
aI39092613
aa(lp99
I54272
aI235
aI39092631
aa(lp100
I54273
aI21
aI39092640
aa(lp101
I54283
aI17
aI39092858
aa(lp102
I54282
aI8
aI39092867
aa(lp103
I54281
aI8
aI39092876
aa(lp104
I54279
aI32
aI39092894
aa(lp105
I54280
aI78
aI39092903
aa(lp106
I54290
aI65
aI39093056
aa(lp107
I54289
aI246
aI39093065
aa(lp108
I54288
aI13
aI39093074
aa(lp109
I54286
aI196
aI39093092
aa(lp110
I54287
aI9
aI39093101
aa(lp111
I65533
aI0
aI39093112
aa(lp112
I54276
aI65
aI39093355
aa(lp113
I54275
aI3
aI39093364
aa(lp114
I54274
aI201
aI39093373
aa(lp115
I54272
aI43
aI39093391
aa(lp116
I54273
aI21
aI39093400
aa(lp117
I54283
aI17
aI39093606
aa(lp118
I54282
aI8
aI39093615
aa(lp119
I54281
aI8
aI39093624
aa(lp120
I54279
aI32
aI39093642
aa(lp121
I54280
aI78
aI39093651
aa(lp122
I54290
aI65
aI39093801
aa(lp123
I54289
aI245
aI39093810
aa(lp124
I54288
aI205
aI39093819
aa(lp125
I54286
aI196
aI39093837
aa(lp126
I54287
aI9
aI39093846
aa(lp127
I65533
aI0
aI39093857
aa(lp128
I54276
aI65
aI39094116
aa(lp129
I54275
aI3
aI39094125
aa(lp130
I54274
aI137
aI39094134
aa(lp131
I54272
aI107
aI39094152
aa(lp132
I54273
aI20
aI39094161
aa(lp133
I54283
aI17
aI39094367
aa(lp134
I54282
aI8
aI39094376
aa(lp135
I54281
aI8
aI39094385
aa(lp136
I54279
aI32
aI39094403
aa(lp137
I54280
aI78
aI39094412
aa(lp138
I54290
aI65
aI39094556
aa(lp139
I54289
aI245
aI39094565
aa(lp140
I54288
aI141
aI39094574
aa(lp141
I54286
aI196
aI39094592
aa(lp142
I54287
aI9
aI39094601
aa(lp143
I65533
aI0
aI39094612
aa(lp144
I65533
aI0
aI39095259
aa(lp145
I54278
aI185
aI39095329
aa(lp146
I54277
aI0
aI39095337
aa(lp147
I54276
aI64
aI39095348
aa(lp148
I54276
aI65
aI39095452
aa(lp149
I54275
aI9
aI39095461
aa(lp150
I54274
aI9
aI39095470
aa(lp151
I54272
aI136
aI39095488
aa(lp152
I54273
aI19
aI39095497
aa(lp153
I54285
aI249
aI39095551
aa(lp154
I54284
aI8
aI39095559
aa(lp155
I54283
aI16
aI39095570
aa(lp156
I54283
aI9
aI39095663
aa(lp157
I54282
aI8
aI39095672
aa(lp158
I54281
aI8
aI39095681
aa(lp159
I54279
aI110
aI39095699
aa(lp160
I54280
aI18
aI39095708
aa(lp161
I54292
aI136
aI39095759
aa(lp162
I54291
aI10
aI39095767
aa(lp163
I54290
aI64
aI39095778
aa(lp164
I54290
aI65
aI39095871
aa(lp165
I54289
aI13
aI39095880
aa(lp166
I54288
aI13
aI39095889
aa(lp167
I54286
aI180
aI39095907
aa(lp168
I54287
aI8
aI39095916
aa(lp169
I65533
aI0
aI39095927
aa(lp170
I54294
aI240
aI39096001
aa(lp171
I54276
aI65
aI39096125
aa(lp172
I54275
aI8
aI39096134
aa(lp173
I54274
aI201
aI39096143
aa(lp174
I54272
aI136
aI39096161
aa(lp175
I54273
aI19
aI39096170
aa(lp176
I54283
aI129
aI39096371
aa(lp177
I54282
aI8
aI39096380
aa(lp178
I54281
aI8
aI39096389
aa(lp179
I54279
aI76
aI39096407
aa(lp180
I54280
aI104
aI39096416
aa(lp181
I54290
aI65
aI39096566
aa(lp182
I54289
aI12
aI39096575
aa(lp183
I54288
aI205
aI39096584
aa(lp184
I54286
aI180
aI39096602
aa(lp185
I54287
aI8
aI39096611
aa(lp186
I65533
aI0
aI39096622
aa(lp187
I54276
aI65
aI39096817
aa(lp188
I54275
aI8
aI39096826
aa(lp189
I54274
aI137
aI39096835
aa(lp190
I54272
aI136
aI39096853
aa(lp191
I54273
aI19
aI39096862
aa(lp192
I54283
aI65
aI39097079
aa(lp193
I54282
aI8
aI39097088
aa(lp194
I54281
aI8
aI39097097
aa(lp195
I54279
aI133
aI39097115
aa(lp196
I54280
aI6
aI39097124
aa(lp197
I54290
aI65
aI39097277
aa(lp198
I54289
aI12
aI39097286
aa(lp199
I54288
aI141
aI39097295
aa(lp200
I54286
aI180
aI39097313
aa(lp201
I54287
aI8
aI39097322
aa(lp202
I65533
aI0
aI39097333
aa(lp203
I54276
aI65
aI39097509
aa(lp204
I54275
aI8
aI39097518
aa(lp205
I54274
aI73
aI39097527
aa(lp206
I54272
aI136
aI39097545
aa(lp207
I54273
aI19
aI39097554
aa(lp208
I54283
aI16
aI39097771
aa(lp209
I54282
aI8
aI39097780
aa(lp210
I54281
aI8
aI39097789
aa(lp211
I54279
aI133
aI39097807
aa(lp212
I54280
aI6
aI39097816
aa(lp213
I54290
aI65
aI39097960
aa(lp214
I54289
aI12
aI39097969
aa(lp215
I54288
aI77
aI39097978
aa(lp216
I54286
aI180
aI39097996
aa(lp217
I54287
aI8
aI39098005
aa(lp218
I65533
aI0
aI39098016
aa(lp219
I54276
aI65
aI39098192
aa(lp220
I54275
aI8
aI39098201
aa(lp221
I54274
aI9
aI39098210
aa(lp222
I54272
aI136
aI39098228
aa(lp223
I54273
aI19
aI39098237
aa(lp224
I54283
aI16
aI39098351
aa(lp225
I54282
aI8
aI39098360
aa(lp226
I54281
aI8
aI39098369
aa(lp227
I54279
aI133
aI39098387
aa(lp228
I54280
aI6
aI39098396
aa(lp229
I54290
aI65
aI39098540
aa(lp230
I54289
aI12
aI39098549
aa(lp231
I54288
aI13
aI39098558
aa(lp232
I54286
aI180
aI39098576
aa(lp233
I54287
aI8
aI39098585
aa(lp234
I65533
aI0
aI39098596
aa(lp235
I54276
aI65
aI39098797
aa(lp236
I54275
aI7
aI39098806
aa(lp237
I54274
aI201
aI39098815
aa(lp238
I54272
aI136
aI39098833
aa(lp239
I54273
aI19
aI39098842
aa(lp240
I54283
aI16
aI39099038
aa(lp241
I54282
aI8
aI39099047
aa(lp242
I54281
aI8
aI39099056
aa(lp243
I54279
aI229
aI39099074
aa(lp244
I54280
aI5
aI39099083
aa(lp245
I54290
aI65
aI39099242
aa(lp246
I54289
aI11
aI39099251
aa(lp247
I54288
aI205
aI39099260
aa(lp248
I54286
aI180
aI39099278
aa(lp249
I54287
aI8
aI39099287
aa(lp250
I65533
aI0
aI39099298
aa(lp251
I54276
aI65
aI39099474
aa(lp252
I54275
aI7
aI39099483
aa(lp253
I54274
aI137
aI39099492
aa(lp254
I54272
aI136
aI39099510
aa(lp255
I54273
aI19
aI39099519
aa(lp256
I54283
aI16
aI39099694
aa(lp257
I54282
aI8
aI39099703
aa(lp258
I54281
aI8
aI39099712
aa(lp259
I54279
aI69
aI39099730
aa(lp260
I54280
aI5
aI39099739
aa(lp261
I54290
aI65
aI39099883
aa(lp262
I54289
aI11
aI39099892
aa(lp263
I54288
aI141
aI39099901
aa(lp264
I54286
aI180
aI39099919
aa(lp265
I54287
aI8
aI39099928
aa(lp266
I65533
aI0
aI39099939
aa(lp267
I54276
aI65
aI39100115
aa(lp268
I54275
aI7
aI39100124
aa(lp269
I54274
aI73
aI39100133
aa(lp270
I54272
aI136
aI39100151
aa(lp271
I54273
aI19
aI39100160
aa(lp272
I54283
aI16
aI39100344
aa(lp273
I54282
aI8
aI39100353
aa(lp274
I54281
aI8
aI39100362
aa(lp275
I54279
aI165
aI39100380
aa(lp276
I54280
aI4
aI39100389
aa(lp277
I54290
aI65
aI39100533
aa(lp278
I54289
aI11
aI39100542
aa(lp279
I54288
aI77
aI39100551
aa(lp280
I54286
aI180
aI39100569
aa(lp281
I54287
aI8
aI39100578
aa(lp282
I65533
aI0
aI39100589
aa(lp283
I54276
aI65
aI39100784
aa(lp284
I54275
aI7
aI39100793
aa(lp285
I54274
aI9
aI39100802
aa(lp286
I54272
aI136
aI39100820
aa(lp287
I54273
aI19
aI39100829
aa(lp288
I54283
aI16
aI39101016
aa(lp289
I54282
aI8
aI39101025
aa(lp290
I54281
aI8
aI39101034
aa(lp291
I54279
aI5
aI39101052
aa(lp292
I54280
aI4
aI39101061
aa(lp293
I54290
aI65
aI39101214
aa(lp294
I54289
aI11
aI39101223
aa(lp295
I54288
aI13
aI39101232
aa(lp296
I54286
aI180
aI39101250
aa(lp297
I54287
aI8
aI39101259
aa(lp298
I65533
aI0
aI39101270
aa(lp299
I54276
aI65
aI39101452
aa(lp300
I54275
aI6
aI39101461
aa(lp301
I54274
aI201
aI39101470
aa(lp302
I54272
aI136
aI39101488
aa(lp303
I54273
aI19
aI39101497
aa(lp304
I54283
aI16
aI39101681
aa(lp305
I54282
aI8
aI39101690
aa(lp306
I54281
aI8
aI39101699
aa(lp307
I54279
aI101
aI39101717
aa(lp308
I54280
aI3
aI39101726
aa(lp309
I54290
aI65
aI39101876
aa(lp310
I54289
aI10
aI39101885
aa(lp311
I54288
aI205
aI39101894
aa(lp312
I54286
aI180
aI39101912
aa(lp313
I54287
aI8
aI39101921
aa(lp314
I65533
aI0
aI39101932
aa(lp315
I54276
aI65
aI39102108
aa(lp316
I54275
aI6
aI39102117
aa(lp317
I54274
aI137
aI39102126
aa(lp318
I54272
aI136
aI39102144
aa(lp319
I54273
aI19
aI39102153
aa(lp320
I54283
aI16
aI39102337
aa(lp321
I54282
aI8
aI39102346
aa(lp322
I54281
aI8
aI39102355
aa(lp323
I54279
aI197
aI39102373
aa(lp324
I54280
aI2
aI39102382
aa(lp325
I54290
aI65
aI39102526
aa(lp326
I54289
aI10
aI39102535
aa(lp327
I54288
aI141
aI39102544
aa(lp328
I54286
aI180
aI39102562
aa(lp329
I54287
aI8
aI39102571
aa(lp330
I65533
aI0
aI39102582
aa(lp331
I54276
aI65
aI39102777
aa(lp332
I54275
aI6
aI39102786
aa(lp333
I54274
aI73
aI39102795
aa(lp334
I54272
aI136
aI39102813
aa(lp335
I54273
aI19
aI39102822
aa(lp336
I54290
aI65
aI39103197
aa(lp337
I54289
aI10
aI39103206
aa(lp338
I54288
aI77
aI39103215
aa(lp339
I54286
aI180
aI39103233
aa(lp340
I54287
aI8
aI39103242
aa(lp341
I65533
aI0
aI39103253
aa(lp342
I54276
aI65
aI39103429
aa(lp343
I54275
aI6
aI39103438
aa(lp344
I54274
aI9
aI39103447
aa(lp345
I54272
aI136
aI39103465
aa(lp346
I54273
aI19
aI39103474
aa(lp347
I54285
aI152
aI39103528
aa(lp348
I54284
aI8
aI39103536
aa(lp349
I54283
aI16
aI39103547
aa(lp350
I54283
aI9
aI39103640
aa(lp351
I54282
aI8
aI39103649
aa(lp352
I54281
aI8
aI39103658
aa(lp353
I54279
aI32
aI39103676
aa(lp354
I54280
aI78
aI39103685
aa(lp355
I54290
aI65
aI39103829
aa(lp356
I54289
aI10
aI39103838
aa(lp357
I54288
aI13
aI39103847
aa(lp358
I54286
aI180
aI39103865
aa(lp359
I54287
aI8
aI39103874
aa(lp360
I65533
aI0
aI39103885
aa(lp361
I54276
aI65
aI39104137
aa(lp362
I54275
aI5
aI39104146
aa(lp363
I54274
aI201
aI39104155
aa(lp364
I54272
aI200
aI39104173
aa(lp365
I54273
aI18
aI39104182
aa(lp366
I54283
aI129
aI39104383
aa(lp367
I54282
aI8
aI39104392
aa(lp368
I54281
aI8
aI39104401
aa(lp369
I54279
aI46
aI39104419
aa(lp370
I54280
aI253
aI39104428
aa(lp371
I54290
aI65
aI39104578
aa(lp372
I54289
aI9
aI39104587
aa(lp373
I54288
aI205
aI39104596
aa(lp374
I54286
aI180
aI39104614
aa(lp375
I54287
aI8
aI39104623
aa(lp376
I65533
aI0
aI39104634
aa(lp377
I54276
aI65
aI39104903
aa(lp378
I54275
aI5
aI39104912
aa(lp379
I54274
aI137
aI39104921
aa(lp380
I54272
aI8
aI39104939
aa(lp381
I54273
aI18
aI39104948
aa(lp382
I54283
aI17
aI39105166
aa(lp383
I54282
aI8
aI39105175
aa(lp384
I54281
aI8
aI39105184
aa(lp385
I54279
aI32
aI39105202
aa(lp386
I54280
aI78
aI39105211
aa(lp387
I54290
aI65
aI39105364
aa(lp388
I54289
aI9
aI39105373
aa(lp389
I54288
aI141
aI39105382
aa(lp390
I54286
aI180
aI39105400
aa(lp391
I54287
aI8
aI39105409
aa(lp392
I65533
aI0
aI39105420
aa(lp393
I54276
aI65
aI39105657
aa(lp394
I54275
aI5
aI39105666
aa(lp395
I54274
aI73
aI39105675
aa(lp396
I54272
aI200
aI39105693
aa(lp397
I54273
aI18
aI39105702
aa(lp398
I54283
aI17
aI39105908
aa(lp399
I54282
aI8
aI39105917
aa(lp400
I54281
aI8
aI39105926
aa(lp401
I54279
aI32
aI39105944
aa(lp402
I54280
aI78
aI39105953
aa(lp403
I54290
aI65
aI39106097
aa(lp404
I54289
aI9
aI39106106
aa(lp405
I54288
aI77
aI39106115
aa(lp406
I54286
aI180
aI39106133
aa(lp407
I54287
aI8
aI39106142
aa(lp408
I65533
aI0
aI39106153
aa(lp409
I54276
aI65
aI39106412
aa(lp410
I54275
aI5
aI39106421
aa(lp411
I54274
aI9
aI39106430
aa(lp412
I54272
aI136
aI39106448
aa(lp413
I54273
aI19
aI39106457
aa(lp414
I54283
aI17
aI39106663
aa(lp415
I54282
aI8
aI39106672
aa(lp416
I54281
aI8
aI39106681
aa(lp417
I54279
aI32
aI39106699
aa(lp418
I54280
aI78
aI39106708
aa(lp419
I54290
aI65
aI39106852
aa(lp420
I54289
aI9
aI39106861
aa(lp421
I54288
aI13
aI39106870
aa(lp422
I54286
aI180
aI39106888
aa(lp423
I54287
aI8
aI39106897
aa(lp424
I65533
aI0
aI39106908
aa(lp425
I54276
aI65
aI39107179
aa(lp426
I54275
aI4
aI39107188
aa(lp427
I54274
aI201
aI39107197
aa(lp428
I54272
aI72
aI39107215
aa(lp429
I54273
aI20
aI39107224
aa(lp430
I54290
aI65
aI39107582
aa(lp431
I54289
aI8
aI39107591
aa(lp432
I54288
aI205
aI39107600
aa(lp433
I54286
aI180
aI39107618
aa(lp434
I54287
aI8
aI39107627
aa(lp435
I65533
aI0
aI39107638
aa(lp436
I54276
aI65
aI39107897
aa(lp437
I54275
aI4
aI39107906
aa(lp438
I54274
aI137
aI39107915
aa(lp439
I54272
aI8
aI39107933
aa(lp440
I54273
aI21
aI39107942
aa(lp441
I54285
aI152
aI39107996
aa(lp442
I54284
aI8
aI39108004
aa(lp443
I54283
aI16
aI39108015
aa(lp444
I54283
aI9
aI39108108
aa(lp445
I54282
aI8
aI39108117
aa(lp446
I54281
aI8
aI39108126
aa(lp447
I54279
aI16
aI39108144
aa(lp448
I54280
aI39
aI39108153
aa(lp449
I54290
aI65
aI39108297
aa(lp450
I54289
aI8
aI39108306
aa(lp451
I54288
aI141
aI39108315
aa(lp452
I54286
aI180
aI39108333
aa(lp453
I54287
aI8
aI39108342
aa(lp454
I65533
aI0
aI39108353
aa(lp455
I54276
aI65
aI39108599
aa(lp456
I54275
aI4
aI39108608
aa(lp457
I54274
aI73
aI39108617
aa(lp458
I54272
aI72
aI39108635
aa(lp459
I54273
aI20
aI39108644
aa(lp460
I54283
aI129
aI39108845
aa(lp461
I54282
aI8
aI39108854
aa(lp462
I54281
aI8
aI39108863
aa(lp463
I54279
aI46
aI39108881
aa(lp464
I54280
aI253
aI39108890
aa(lp465
I54290
aI65
aI39109034
aa(lp466
I54289
aI8
aI39109043
aa(lp467
I54288
aI77
aI39109052
aa(lp468
I54286
aI180
aI39109070
aa(lp469
I54287
aI8
aI39109079
aa(lp470
I65533
aI0
aI39109090
aa(lp471
I54276
aI65
aI39109368
aa(lp472
I54275
aI4
aI39109377
aa(lp473
I54274
aI9
aI39109386
aa(lp474
I54272
aI136
aI39109404
aa(lp475
I54273
aI19
aI39109413
aa(lp476
I54283
aI17
aI39109631
aa(lp477
I54282
aI8
aI39109640
aa(lp478
I54281
aI8
aI39109649
aa(lp479
I54279
aI16
aI39109667
aa(lp480
I54280
aI39
aI39109676
aa(lp481
I54290
aI65
aI39109829
aa(lp482
I54289
aI8
aI39109838
aa(lp483
I54288
aI13
aI39109847
aa(lp484
I54286
aI180
aI39109865
aa(lp485
I54287
aI8
aI39109874
aa(lp486
I65533
aI0
aI39109885
aa(lp487
I54276
aI65
aI39110137
aa(lp488
I54275
aI3
aI39110146
aa(lp489
I54274
aI201
aI39110155
aa(lp490
I54272
aI200
aI39110173
aa(lp491
I54273
aI18
aI39110182
aa(lp492
I54283
aI17
aI39110388
aa(lp493
I54282
aI8
aI39110397
aa(lp494
I54281
aI8
aI39110406
aa(lp495
I54279
aI16
aI39110424
aa(lp496
I54280
aI39
aI39110433
aa(lp497
I54290
aI65
aI39110583
aa(lp498
I54289
aI7
aI39110592
aa(lp499
I54288
aI205
aI39110601
aa(lp500
I54286
aI180
aI39110619
aa(lp501
I54287
aI8
aI39110628
aa(lp502
I65533
aI0
aI39110639
aa(lp503
I54276
aI65
aI39110889
aa(lp504
I54275
aI3
aI39110898
aa(lp505
I54274
aI137
aI39110907
aa(lp506
I54272
aI8
aI39110925
aa(lp507
I54273
aI18
aI39110934
aa(lp508
I54283
aI17
aI39111140
aa(lp509
I54282
aI8
aI39111149
aa(lp510
I54281
aI8
aI39111158
aa(lp511
I54279
aI16
aI39111176
aa(lp512
I54280
aI39
aI39111185
aa(lp513
I54290
aI65
aI39111329
aa(lp514
I54289
aI7
aI39111338
aa(lp515
I54288
aI141
aI39111347
aa(lp516
I54286
aI180
aI39111365
aa(lp517
I54287
aI8
aI39111374
aa(lp518
I65533
aI0
aI39111385
aa(lp519
I54276
aI65
aI39111641
aa(lp520
I54275
aI3
aI39111650
aa(lp521
I54274
aI73
aI39111659
aa(lp522
I54272
aI200
aI39111677
aa(lp523
I54273
aI18
aI39111686
aa(lp524
I54290
aI65
aI39112060
aa(lp525
I54289
aI7
aI39112069
aa(lp526
I54288
aI77
aI39112078
aa(lp527
I54286
aI180
aI39112096
aa(lp528
I54287
aI8
aI39112105
aa(lp529
I65533
aI0
aI39112116
aa(lp530
I54276
aI65
aI39112375
aa(lp531
I54275
aI3
aI39112384
aa(lp532
I54274
aI9
aI39112393
aa(lp533
I54272
aI136
aI39112411
aa(lp534
I54273
aI19
aI39112420
aa(lp535
I54285
aI248
aI39112474
aa(lp536
I54284
aI8
aI39112482
aa(lp537
I54283
aI16
aI39112493
aa(lp538
I54283
aI16
aI39112586
aa(lp539
I54282
aI8
aI39112595
aa(lp540
I54281
aI8
aI39112604
aa(lp541
I54279
aI180
aI39112622
aa(lp542
I54280
aI8
aI39112631
aa(lp543
I54290
aI65
aI39112775
aa(lp544
I54289
aI7
aI39112784
aa(lp545
I54288
aI13
aI39112793
aa(lp546
I54286
aI180
aI39112811
aa(lp547
I54287
aI8
aI39112820
aa(lp548
I65533
aI0
aI39112831
aa(lp549
I54276
aI65
aI39113083
aa(lp550
I54275
aI2
aI39113092
aa(lp551
I54274
aI201
aI39113101
aa(lp552
I54272
aI72
aI39113119
aa(lp553
I54273
aI20
aI39113128
aa(lp554
I54283
aI129
aI39113329
aa(lp555
I54282
aI8
aI39113338
aa(lp556
I54281
aI8
aI39113347
aa(lp557
I54279
aI120
aI39113365
aa(lp558
I54280
aI165
aI39113374
aa(lp559
I54290
aI65
aI39113524
aa(lp560
I54289
aI6
aI39113533
aa(lp561
I54288
aI205
aI39113542
aa(lp562
I54286
aI180
aI39113560
aa(lp563
I54287
aI8
aI39113569
aa(lp564
I65533
aI0
aI39113580
aa(lp565
I54276
aI65
aI39113858
aa(lp566
I54275
aI2
aI39113867
aa(lp567
I54274
aI137
aI39113876
aa(lp568
I54272
aI8
aI39113894
aa(lp569
I54273
aI21
aI39113903
aa(lp570
I54283
aI17
aI39114120
aa(lp571
I54282
aI8
aI39114129
aa(lp572
I54281
aI8
aI39114138
aa(lp573
I54279
aI180
aI39114156
aa(lp574
I54280
aI8
aI39114165
aa(lp575
I54290
aI65
aI39114318
aa(lp576
I54289
aI6
aI39114327
aa(lp577
I54288
aI141
aI39114336
aa(lp578
I54286
aI180
aI39114354
aa(lp579
I54287
aI8
aI39114363
aa(lp580
I65533
aI0
aI39114374
aa(lp581
I54276
aI65
aI39114620
aa(lp582
I54275
aI2
aI39114629
aa(lp583
I54274
aI73
aI39114638
aa(lp584
I54272
aI72
aI39114656
aa(lp585
I54273
aI20
aI39114665
aa(lp586
I54283
aI64
aI39114870
aa(lp587
I54282
aI8
aI39114879
aa(lp588
I54281
aI8
aI39114888
aa(lp589
I54279
aI156
aI39114906
aa(lp590
I54280
aI11
aI39114915
aa(lp591
I54290
aI65
aI39115059
aa(lp592
I54289
aI6
aI39115068
aa(lp593
I54288
aI77
aI39115077
aa(lp594
I54286
aI180
aI39115095
aa(lp595
I54287
aI8
aI39115104
aa(lp596
I65533
aI0
aI39115115
aa(lp597
I54276
aI65
aI39115374
aa(lp598
I54275
aI2
aI39115383
aa(lp599
I54274
aI9
aI39115392
aa(lp600
I54272
aI136
aI39115410
aa(lp601
I54273
aI19
aI39115419
aa(lp602
I54283
aI128
aI39115620
aa(lp603
I54282
aI8
aI39115629
aa(lp604
I54281
aI8
aI39115638
aa(lp605
I54279
aI46
aI39115656
aa(lp606
I54280
aI253
aI39115665
aa(lp607
I54290
aI65
aI39115809
aa(lp608
I54289
aI6
aI39115818
aa(lp609
I54288
aI13
aI39115827
aa(lp610
I54286
aI180
aI39115845
aa(lp611
I54287
aI8
aI39115854
aa(lp612
I65533
aI0
aI39115865
aa(lp613
I54276
aI65
aI39116136
aa(lp614
I54275
aI1
aI39116145
aa(lp615
I54274
aI201
aI39116154
aa(lp616
I54272
aI200
aI39116172
aa(lp617
I54273
aI18
aI39116181
aa(lp618
I54283
aI128
aI39116393
aa(lp619
I54282
aI8
aI39116402
aa(lp620
I54281
aI8
aI39116411
aa(lp621
I54279
aI175
aI39116429
aa(lp622
I54280
aI20
aI39116438
aa(lp623
I54290
aI65
aI39116597
aa(lp624
I54289
aI5
aI39116606
aa(lp625
I54288
aI205
aI39116615
aa(lp626
I54286
aI180
aI39116633
aa(lp627
I54287
aI8
aI39116642
aa(lp628
I65533
aI0
aI39116653
aa(lp629
I54276
aI65
aI39116903
aa(lp630
I54275
aI1
aI39116912
aa(lp631
I54274
aI137
aI39116921
aa(lp632
I54272
aI8
aI39116939
aa(lp633
I54273
aI18
aI39116948
aa(lp634
I54283
aI128
aI39117149
aa(lp635
I54282
aI8
aI39117158
aa(lp636
I54281
aI8
aI39117167
aa(lp637
I54279
aI214
aI39117185
aa(lp638
I54280
aI43
aI39117194
aa(lp639
I54290
aI65
aI39117338
aa(lp640
I54289
aI5
aI39117347
aa(lp641
I54288
aI141
aI39117356
aa(lp642
I54286
aI180
aI39117374
aa(lp643
I54287
aI8
aI39117383
aa(lp644
I65533
aI0
aI39117394
aa(lp645
I54276
aI65
aI39117631
aa(lp646
I54275
aI1
aI39117640
aa(lp647
I54274
aI73
aI39117649
aa(lp648
I54272
aI200
aI39117667
aa(lp649
I54273
aI18
aI39117676
aa(lp650
I54283
aI128
aI39117876
aa(lp651
I54282
aI8
aI39117885
aa(lp652
I54281
aI8
aI39117894
aa(lp653
I54279
aI130
aI39117912
aa(lp654
I54280
aI15
aI39117921
aa(lp655
I54290
aI65
aI39118065
aa(lp656
I54289
aI5
aI39118074
aa(lp657
I54288
aI77
aI39118083
aa(lp658
I54286
aI180
aI39118101
aa(lp659
I54287
aI8
aI39118110
aa(lp660
I65533
aI0
aI39118121
aa(lp661
I54276
aI65
aI39118399
aa(lp662
I54275
aI1
aI39118408
aa(lp663
I54274
aI9
aI39118417
aa(lp664
I54272
aI136
aI39118435
aa(lp665
I54273
aI19
aI39118444
aa(lp666
I54283
aI16
aI39118673
aa(lp667
I54282
aI8
aI39118682
aa(lp668
I54281
aI8
aI39118691
aa(lp669
I54279
aI156
aI39118709
aa(lp670
I54280
aI11
aI39118718
aa(lp671
I54290
aI65
aI39118871
aa(lp672
I54289
aI5
aI39118880
aa(lp673
I54288
aI13
aI39118889
aa(lp674
I54286
aI180
aI39118907
aa(lp675
I54287
aI8
aI39118916
aa(lp676
I65533
aI0
aI39118927
aa(lp677
I54276
aI65
aI39119179
aa(lp678
I54275
aI0
aI39119188
aa(lp679
I54274
aI201
aI39119197
aa(lp680
I54272
aI72
aI39119215
aa(lp681
I54273
aI20
aI39119224
aa(lp682
I54283
aI16
aI39119329
aa(lp683
I54282
aI8
aI39119338
aa(lp684
I54281
aI8
aI39119347
aa(lp685
I54279
aI156
aI39119365
aa(lp686
I54280
aI11
aI39119374
aa(lp687
I54290
aI65
aI39119524
aa(lp688
I54289
aI4
aI39119533
aa(lp689
I54288
aI205
aI39119542
aa(lp690
I54286
aI180
aI39119560
aa(lp691
I54287
aI8
aI39119569
aa(lp692
I65533
aI0
aI39119580
aa(lp693
I54276
aI65
aI39119839
aa(lp694
I54275
aI0
aI39119848
aa(lp695
I54274
aI137
aI39119857
aa(lp696
I54272
aI8
aI39119875
aa(lp697
I54273
aI21
aI39119884
aa(lp698
I54283
aI16
aI39119989
aa(lp699
I54282
aI8
aI39119998
aa(lp700
I54281
aI8
aI39120007
aa(lp701
I54279
aI156
aI39120025
aa(lp702
I54280
aI11
aI39120034
aa(lp703
I54290
aI65
aI39120178
aa(lp704
I54289
aI4
aI39120187
aa(lp705
I54288
aI141
aI39120196
aa(lp706
I54286
aI180
aI39120214
aa(lp707
I54287
aI8
aI39120223
aa(lp708
I65533
aI0
aI39120234
aa(lp709
I54276
aI65
aI39120499
aa(lp710
I54275
aI0
aI39120508
aa(lp711
I54274
aI73
aI39120517
aa(lp712
I54272
aI72
aI39120535
aa(lp713
I54273
aI20
aI39120544
aa(lp714
I54290
aI65
aI39120918
aa(lp715
I54289
aI4
aI39120927
aa(lp716
I54288
aI77
aI39120936
aa(lp717
I54286
aI180
aI39120954
aa(lp718
I54287
aI8
aI39120963
aa(lp719
I65533
aI0
aI39120974
aa(lp720
I54276
aI65
aI39121233
aa(lp721
I54275
aI0
aI39121242
aa(lp722
I54274
aI9
aI39121251
aa(lp723
I54272
aI136
aI39121269
aa(lp724
I54273
aI19
aI39121278
aa(lp725
I54285
aI249
aI39121332
aa(lp726
I54284
aI8
aI39121340
aa(lp727
I54283
aI16
aI39121351
aa(lp728
I54283
aI9
aI39121444
aa(lp729
I54282
aI8
aI39121453
aa(lp730
I54281
aI8
aI39121462
aa(lp731
I54279
aI110
aI39121480
aa(lp732
I54280
aI18
aI39121489
aa(lp733
I54290
aI65
aI39121633
aa(lp734
I54289
aI4
aI39121642
aa(lp735
I54288
aI13
aI39121651
aa(lp736
I54286
aI180
aI39121669
aa(lp737
I54287
aI8
aI39121678
aa(lp738
I65533
aI0
aI39121689
aa(lp739
I54276
aI65
aI39121941
aa(lp740
I54275
aI255
aI39121950
aa(lp741
I54274
aI201
aI39121959
aa(lp742
I54272
aI200
aI39121977
aa(lp743
I54273
aI18
aI39121986
aa(lp744
I54283
aI129
aI39122187
aa(lp745
I54282
aI8
aI39122196
aa(lp746
I54281
aI8
aI39122205
aa(lp747
I54279
aI76
aI39122223
aa(lp748
I54280
aI104
aI39122232
aa(lp749
I54290
aI65
aI39122382
aa(lp750
I54289
aI3
aI39122391
aa(lp751
I54288
aI205
aI39122400
aa(lp752
I54286
aI180
aI39122418
aa(lp753
I54287
aI8
aI39122427
aa(lp754
I65533
aI0
aI39122438
aa(lp755
I54276
aI65
aI39122707
aa(lp756
I54275
aI255
aI39122716
aa(lp757
I54274
aI137
aI39122725
aa(lp758
I54272
aI8
aI39122743
aa(lp759
I54273
aI18
aI39122752
aa(lp760
I54283
aI65
aI39122969
aa(lp761
I54282
aI8
aI39122978
aa(lp762
I54281
aI8
aI39122987
aa(lp763
I54279
aI133
aI39123005
aa(lp764
I54280
aI6
aI39123014
aa(lp765
I54290
aI65
aI39123167
aa(lp766
I54289
aI3
aI39123176
aa(lp767
I54288
aI141
aI39123185
aa(lp768
I54286
aI180
aI39123203
aa(lp769
I54287
aI8
aI39123212
aa(lp770
I65533
aI0
aI39123223
aa(lp771
I54276
aI65
aI39123460
aa(lp772
I54275
aI255
aI39123469
aa(lp773
I54274
aI73
aI39123478
aa(lp774
I54272
aI200
aI39123496
aa(lp775
I54273
aI18
aI39123505
aa(lp776
I54283
aI16
aI39123722
aa(lp777
I54282
aI8
aI39123731
aa(lp778
I54281
aI8
aI39123740
aa(lp779
I54279
aI133
aI39123758
aa(lp780
I54280
aI6
aI39123767
aa(lp781
I54290
aI65
aI39123911
aa(lp782
I54289
aI3
aI39123920
aa(lp783
I54288
aI77
aI39123929
aa(lp784
I54286
aI180
aI39123947
aa(lp785
I54287
aI8
aI39123956
aa(lp786
I65533
aI0
aI39123967
aa(lp787
I54276
aI65
aI39124226
aa(lp788
I54275
aI255
aI39124235
aa(lp789
I54274
aI9
aI39124244
aa(lp790
I54272
aI136
aI39124262
aa(lp791
I54273
aI19
aI39124271
aa(lp792
I54283
aI16
aI39124385
aa(lp793
I54282
aI8
aI39124394
aa(lp794
I54281
aI8
aI39124403
aa(lp795
I54279
aI133
aI39124421
aa(lp796
I54280
aI6
aI39124430
aa(lp797
I54290
aI65
aI39124574
aa(lp798
I54289
aI3
aI39124583
aa(lp799
I54288
aI13
aI39124592
aa(lp800
I54286
aI180
aI39124610
aa(lp801
I54287
aI8
aI39124619
aa(lp802
I65533
aI0
aI39124630
aa(lp803
I54276
aI65
aI39124901
aa(lp804
I54275
aI254
aI39124910
aa(lp805
I54274
aI201
aI39124919
aa(lp806
I54272
aI72
aI39124937
aa(lp807
I54273
aI20
aI39124946
aa(lp808
I54283
aI16
aI39125142
aa(lp809
I54282
aI8
aI39125151
aa(lp810
I54281
aI8
aI39125160
aa(lp811
I54279
aI229
aI39125178
aa(lp812
I54280
aI5
aI39125187
aa(lp813
I54290
aI65
aI39125346
aa(lp814
I54289
aI2
aI39125355
aa(lp815
I54288
aI205
aI39125364
aa(lp816
I54286
aI180
aI39125382
aa(lp817
I54287
aI8
aI39125391
aa(lp818
I65533
aI0
aI39125402
aa(lp819
I54276
aI65
aI39125661
aa(lp820
I54275
aI254
aI39125670
aa(lp821
I54274
aI137
aI39125679
aa(lp822
I54272
aI8
aI39125697
aa(lp823
I54273
aI21
aI39125706
aa(lp824
I54283
aI16
aI39125881
aa(lp825
I54282
aI8
aI39125890
aa(lp826
I54281
aI8
aI39125899
aa(lp827
I54279
aI69
aI39125917
aa(lp828
I54280
aI5
aI39125926
aa(lp829
I54290
aI65
aI39126070
aa(lp830
I54289
aI2
aI39126079
aa(lp831
I54288
aI141
aI39126088
aa(lp832
I54286
aI180
aI39126106
aa(lp833
I54287
aI8
aI39126115
aa(lp834
I65533
aI0
aI39126126
aa(lp835
I54276
aI65
aI39126372
aa(lp836
I54275
aI254
aI39126381
aa(lp837
I54274
aI73
aI39126390
aa(lp838
I54272
aI72
aI39126408
aa(lp839
I54273
aI20
aI39126417
aa(lp840
I54283
aI16
aI39126601
aa(lp841
I54282
aI8
aI39126610
aa(lp842
I54281
aI8
aI39126619
aa(lp843
I54279
aI165
aI39126637
aa(lp844
I54280
aI4
aI39126646
aa(lp845
I54290
aI65
aI39126790
aa(lp846
I54289
aI2
aI39126799
aa(lp847
I54288
aI77
aI39126808
aa(lp848
I54286
aI180
aI39126826
aa(lp849
I54287
aI8
aI39126835
aa(lp850
I65533
aI0
aI39126846
aa(lp851
I54276
aI65
aI39127124
aa(lp852
I54275
aI254
aI39127133
aa(lp853
I54274
aI9
aI39127142
aa(lp854
I54272
aI136
aI39127160
aa(lp855
I54273
aI19
aI39127169
aa(lp856
I54283
aI16
aI39127356
aa(lp857
I54282
aI8
aI39127365
aa(lp858
I54281
aI8
aI39127374
aa(lp859
I54279
aI5
aI39127392
aa(lp860
I54280
aI4
aI39127401
aa(lp861
I54290
aI65
aI39127554
aa(lp862
I54289
aI2
aI39127563
aa(lp863
I54288
aI13
aI39127572
aa(lp864
I54286
aI180
aI39127590
aa(lp865
I54287
aI8
aI39127599
aa(lp866
I65533
aI0
aI39127610
aa(lp867
I54276
aI65
aI39127862
aa(lp868
I54275
aI253
aI39127871
aa(lp869
I54274
aI201
aI39127880
aa(lp870
I54272
aI200
aI39127898
aa(lp871
I54273
aI18
aI39127907
aa(lp872
I54283
aI16
aI39128091
aa(lp873
I54282
aI8
aI39128100
aa(lp874
I54281
aI8
aI39128109
aa(lp875
I54279
aI101
aI39128127
aa(lp876
I54280
aI3
aI39128136
aa(lp877
I54290
aI65
aI39128286
aa(lp878
I54289
aI1
aI39128295
aa(lp879
I54288
aI205
aI39128304
aa(lp880
I54286
aI180
aI39128322
aa(lp881
I54287
aI8
aI39128331
aa(lp882
I65533
aI0
aI39128342
aa(lp883
I54276
aI65
aI39128592
aa(lp884
I54275
aI253
aI39128601
aa(lp885
I54274
aI137
aI39128610
aa(lp886
I54272
aI8
aI39128628
aa(lp887
I54273
aI18
aI39128637
aa(lp888
I54283
aI16
aI39128821
aa(lp889
I54282
aI8
aI39128830
aa(lp890
I54281
aI8
aI39128839
aa(lp891
I54279
aI197
aI39128857
aa(lp892
I54280
aI2
aI39128866
aa(lp893
I54290
aI65
aI39129010
aa(lp894
I54289
aI1
aI39129019
aa(lp895
I54288
aI141
aI39129028
aa(lp896
I54286
aI180
aI39129046
aa(lp897
I54287
aI8
aI39129055
aa(lp898
I65533
aI0
aI39129066
aa(lp899
I54276
aI65
aI39129322
aa(lp900
I54275
aI253
aI39129331
aa(lp901
I54274
aI73
aI39129340
aa(lp902
I54272
aI200
aI39129358
aa(lp903
I54273
aI18
aI39129367
aa(lp904
I54290
aI65
aI39129742
aa(lp905
I54289
aI1
aI39129751
aa(lp906
I54288
aI77
aI39129760
aa(lp907
I54286
aI180
aI39129778
aa(lp908
I54287
aI8
aI39129787
aa(lp909
I65533
aI0
aI39129798
aa(lp910
I54276
aI65
aI39130057
aa(lp911
I54275
aI253
aI39130066
aa(lp912
I54274
aI9
aI39130075
aa(lp913
I54272
aI136
aI39130093
aa(lp914
I54273
aI19
aI39130102
aa(lp915
I54285
aI152
aI39130156
aa(lp916
I54284
aI8
aI39130164
aa(lp917
I54283
aI16
aI39130175
aa(lp918
I54283
aI9
aI39130268
aa(lp919
I54282
aI8
aI39130277
aa(lp920
I54281
aI8
aI39130286
aa(lp921
I54279
aI16
aI39130304
aa(lp922
I54280
aI39
aI39130313
aa(lp923
I54290
aI65
aI39130457
aa(lp924
I54289
aI1
aI39130466
aa(lp925
I54288
aI13
aI39130475
aa(lp926
I54286
aI180
aI39130493
aa(lp927
I54287
aI8
aI39130502
aa(lp928
I65533
aI0
aI39130513
aa(lp929
I54276
aI65
aI39130765
aa(lp930
I54275
aI252
aI39130774
aa(lp931
I54274
aI201
aI39130783
aa(lp932
I54272
aI72
aI39130801
aa(lp933
I54273
aI20
aI39130810
aa(lp934
I54283
aI129
aI39131011
aa(lp935
I54282
aI8
aI39131020
aa(lp936
I54281
aI8
aI39131029
aa(lp937
I54279
aI46
aI39131047
aa(lp938
I54280
aI253
aI39131056
aa(lp939
I54290
aI65
aI39131206
aa(lp940
I54289
aI0
aI39131215
aa(lp941
I54288
aI205
aI39131224
aa(lp942
I54286
aI180
aI39131242
aa(lp943
I54287
aI8
aI39131251
aa(lp944
I65533
aI0
aI39131262
aa(lp945
I54276
aI65
aI39131540
aa(lp946
I54275
aI252
aI39131549
aa(lp947
I54274
aI137
aI39131558
aa(lp948
I54272
aI8
aI39131576
aa(lp949
I54273
aI21
aI39131585
aa(lp950
I54283
aI17
aI39131803
aa(lp951
I54282
aI8
aI39131812
aa(lp952
I54281
aI8
aI39131821
aa(lp953
I54279
aI16
aI39131839
aa(lp954
I54280
aI39
aI39131848
aa(lp955
I54290
aI65
aI39132001
aa(lp956
I54289
aI0
aI39132010
aa(lp957
I54288
aI141
aI39132019
aa(lp958
I54286
aI180
aI39132037
aa(lp959
I54287
aI8
aI39132046
aa(lp960
I65533
aI0
aI39132057
aa(lp961
I54276
aI65
aI39132303
aa(lp962
I54275
aI252
aI39132312
aa(lp963
I54274
aI73
aI39132321
aa(lp964
I54272
aI72
aI39132339
aa(lp965
I54273
aI20
aI39132348
aa(lp966
I54283
aI17
aI39132554
aa(lp967
I54282
aI8
aI39132563
aa(lp968
I54281
aI8
aI39132572
aa(lp969
I54279
aI16
aI39132590
aa(lp970
I54280
aI39
aI39132599
aa(lp971
I54290
aI65
aI39132743
aa(lp972
I54289
aI0
aI39132752
aa(lp973
I54288
aI77
aI39132761
aa(lp974
I54286
aI180
aI39132779
aa(lp975
I54287
aI8
aI39132788
aa(lp976
I65533
aI0
aI39132799
aa(lp977
I54276
aI65
aI39133058
aa(lp978
I54275
aI252
aI39133067
aa(lp979
I54274
aI9
aI39133076
aa(lp980
I54272
aI136
aI39133094
aa(lp981
I54273
aI19
aI39133103
aa(lp982
I54283
aI17
aI39133309
aa(lp983
I54282
aI8
aI39133318
aa(lp984
I54281
aI8
aI39133327
aa(lp985
I54279
aI16
aI39133345
aa(lp986
I54280
aI39
aI39133354
aa(lp987
I54290
aI65
aI39133498
aa(lp988
I54289
aI0
aI39133507
aa(lp989
I54288
aI13
aI39133516
aa(lp990
I54286
aI180
aI39133534
aa(lp991
I54287
aI8
aI39133543
aa(lp992
I65533
aI0
aI39133554
aa(lp993
I54276
aI65
aI39133825
aa(lp994
I54275
aI251
aI39133834
aa(lp995
I54274
aI201
aI39133843
aa(lp996
I54272
aI200
aI39133861
aa(lp997
I54273
aI18
aI39133870
aa(lp998
I54290
aI65
aI39134251
aa(lp999
I54289
aI255
aI39134260
aa(lp1000
I54288
aI205
aI39134269
aa(lp1001
I54286
aI180
aI39134287
aa(lp1002
I54287
aI8
aI39134296
aa(lp1003
I65533
aI0
aI39134307
aa(lp1004
I54276
aI65
aI39134557
aa(lp1005
I54275
aI251
aI39134566
aa(lp1006
I54274
aI137
aI39134575
aa(lp1007
I54272
aI8
aI39134593
aa(lp1008
I54273
aI18
aI39134602
aa(lp1009
I54285
aI152
aI39134656
aa(lp1010
I54284
aI8
aI39134664
aa(lp1011
I54283
aI16
aI39134675
aa(lp1012
I54283
aI9
aI39134768
aa(lp1013
I54282
aI8
aI39134777
aa(lp1014
I54281
aI8
aI39134786
aa(lp1015
I54279
aI16
aI39134804
aa(lp1016
I54280
aI39
aI39134813
aa(lp1017
I54290
aI65
aI39134957
aa(lp1018
I54289
aI255
aI39134966
aa(lp1019
I54288
aI141
aI39134975
aa(lp1020
I54286
aI180
aI39134993
aa(lp1021
I54287
aI8
aI39135002
aa(lp1022
I65533
aI0
aI39135013
aa(lp1023
I54276
aI65
aI39135250
aa(lp1024
I54275
aI251
aI39135259
aa(lp1025
I54274
aI73
aI39135268
aa(lp1026
I54272
aI200
aI39135286
aa(lp1027
I54273
aI18
aI39135295
aa(lp1028
I54283
aI129
aI39135496
aa(lp1029
I54282
aI8
aI39135505
aa(lp1030
I54281
aI8
aI39135514
aa(lp1031
I54279
aI46
aI39135532
aa(lp1032
I54280
aI253
aI39135541
aa(lp1033
I54290
aI65
aI39135685
aa(lp1034
I54289
aI255
aI39135694
aa(lp1035
I54288
aI77
aI39135703
aa(lp1036
I54286
aI180
aI39135721
aa(lp1037
I54287
aI8
aI39135730
aa(lp1038
I65533
aI0
aI39135741
aa(lp1039
I54276
aI65
aI39136019
aa(lp1040
I54275
aI251
aI39136028
aa(lp1041
I54274
aI9
aI39136037
aa(lp1042
I54272
aI136
aI39136055
aa(lp1043
I54273
aI19
aI39136064
aa(lp1044
I54283
aI17
aI39136282
aa(lp1045
I54282
aI8
aI39136291
aa(lp1046
I54281
aI8
aI39136300
aa(lp1047
I54279
aI16
aI39136318
aa(lp1048
I54280
aI39
aI39136327
aa(lp1049
I54290
aI65
aI39136480
aa(lp1050
I54289
aI255
aI39136489
aa(lp1051
I54288
aI13
aI39136498
aa(lp1052
I54286
aI180
aI39136516
aa(lp1053
I54287
aI8
aI39136525
aa(lp1054
I65533
aI0
aI39136536
aa(lp1055
I54276
aI65
aI39136788
aa(lp1056
I54275
aI250
aI39136797
aa(lp1057
I54274
aI201
aI39136806
aa(lp1058
I54272
aI72
aI39136824
aa(lp1059
I54273
aI20
aI39136833
aa(lp1060
I54283
aI17
aI39137039
aa(lp1061
I54282
aI8
aI39137048
aa(lp1062
I54281
aI8
aI39137057
aa(lp1063
I54279
aI16
aI39137075
aa(lp1064
I54280
aI39
aI39137084
aa(lp1065
I54290
aI65
aI39137234
aa(lp1066
I54289
aI254
aI39137243
aa(lp1067
I54288
aI205
aI39137252
aa(lp1068
I54286
aI180
aI39137270
aa(lp1069
I54287
aI8
aI39137279
aa(lp1070
I65533
aI0
aI39137290
aa(lp1071
I54276
aI65
aI39137549
aa(lp1072
I54275
aI250
aI39137558
aa(lp1073
I54274
aI137
aI39137567
aa(lp1074
I54272
aI8
aI39137585
aa(lp1075
I54273
aI21
aI39137594
aa(lp1076
I54283
aI17
aI39137800
aa(lp1077
I54282
aI8
aI39137809
aa(lp1078
I54281
aI8
aI39137818
aa(lp1079
I54279
aI16
aI39137836
aa(lp1080
I54280
aI39
aI39137845
aa(lp1081
I54290
aI65
aI39137989
aa(lp1082
I54289
aI254
aI39137998
aa(lp1083
I54288
aI141
aI39138007
aa(lp1084
I54286
aI180
aI39138025
aa(lp1085
I54287
aI8
aI39138034
aa(lp1086
I65533
aI0
aI39138045
aa(lp1087
I54276
aI65
aI39138310
aa(lp1088
I54275
aI250
aI39138319
aa(lp1089
I54274
aI73
aI39138328
aa(lp1090
I54272
aI72
aI39138346
aa(lp1091
I54273
aI20
aI39138355
aa(lp1092
I54290
aI65
aI39138707
aa(lp1093
I54289
aI254
aI39138716
aa(lp1094
I54288
aI77
aI39138725
aa(lp1095
I54286
aI180
aI39138743
aa(lp1096
I54287
aI8
aI39138752
aa(lp1097
I65533
aI0
aI39138763
aa(lp1098
I54276
aI65
aI39139022
aa(lp1099
I54275
aI250
aI39139031
aa(lp1100
I54274
aI9
aI39139040
aa(lp1101
I54272
aI136
aI39139058
aa(lp1102
I54273
aI19
aI39139067
aa(lp1103
I54285
aI152
aI39139121
aa(lp1104
I54284
aI8
aI39139129
aa(lp1105
I54283
aI16
aI39139140
aa(lp1106
I54283
aI9
aI39139233
aa(lp1107
I54282
aI8
aI39139242
aa(lp1108
I54281
aI8
aI39139251
aa(lp1109
I54279
aI32
aI39139269
aa(lp1110
I54280
aI78
aI39139278
aa(lp1111
I54290
aI65
aI39139422
aa(lp1112
I54289
aI254
aI39139431
aa(lp1113
I54288
aI13
aI39139440
aa(lp1114
I54286
aI180
aI39139458
aa(lp1115
I54287
aI8
aI39139467
aa(lp1116
I65533
aI0
aI39139478
aa(lp1117
I54276
aI65
aI39139730
aa(lp1118
I54275
aI249
aI39139739
aa(lp1119
I54274
aI201
aI39139748
aa(lp1120
I54272
aI200
aI39139766
aa(lp1121
I54273
aI18
aI39139775
aa(lp1122
I54283
aI129
aI39139976
aa(lp1123
I54282
aI8
aI39139985
aa(lp1124
I54281
aI8
aI39139994
aa(lp1125
I54279
aI46
aI39140012
aa(lp1126
I54280
aI253
aI39140021
aa(lp1127
I54290
aI65
aI39140171
aa(lp1128
I54289
aI253
aI39140180
aa(lp1129
I54288
aI205
aI39140189
aa(lp1130
I54286
aI180
aI39140207
aa(lp1131
I54287
aI8
aI39140216
aa(lp1132
I65533
aI0
aI39140227
aa(lp1133
I54276
aI65
aI39140496
aa(lp1134
I54275
aI249
aI39140505
aa(lp1135
I54274
aI137
aI39140514
aa(lp1136
I54272
aI8
aI39140532
aa(lp1137
I54273
aI18
aI39140541
aa(lp1138
I54283
aI17
aI39140759
aa(lp1139
I54282
aI8
aI39140768
aa(lp1140
I54281
aI8
aI39140777
aa(lp1141
I54279
aI32
aI39140795
aa(lp1142
I54280
aI78
aI39140804
aa(lp1143
I54290
aI65
aI39140957
aa(lp1144
I54289
aI253
aI39140966
aa(lp1145
I54288
aI141
aI39140975
aa(lp1146
I54286
aI180
aI39140993
aa(lp1147
I54287
aI8
aI39141002
aa(lp1148
I65533
aI0
aI39141013
aa(lp1149
I54276
aI65
aI39141250
aa(lp1150
I54275
aI249
aI39141259
aa(lp1151
I54274
aI73
aI39141268
aa(lp1152
I54272
aI200
aI39141286
aa(lp1153
I54273
aI18
aI39141295
aa(lp1154
I54283
aI17
aI39141501
aa(lp1155
I54282
aI8
aI39141510
aa(lp1156
I54281
aI8
aI39141519
aa(lp1157
I54279
aI32
aI39141537
aa(lp1158
I54280
aI78
aI39141546
aa(lp1159
I54290
aI65
aI39141690
aa(lp1160
I54289
aI253
aI39141699
aa(lp1161
I54288
aI77
aI39141708
aa(lp1162
I54286
aI180
aI39141726
aa(lp1163
I54287
aI8
aI39141735
aa(lp1164
I65533
aI0
aI39141746
aa(lp1165
I54276
aI65
aI39142005
aa(lp1166
I54275
aI249
aI39142014
aa(lp1167
I54274
aI9
aI39142023
aa(lp1168
I54272
aI136
aI39142041
aa(lp1169
I54273
aI19
aI39142050
aa(lp1170
I54283
aI17
aI39142256
aa(lp1171
I54282
aI8
aI39142265
aa(lp1172
I54281
aI8
aI39142274
aa(lp1173
I54279
aI32
aI39142292
aa(lp1174
I54280
aI78
aI39142301
aa(lp1175
I54290
aI65
aI39142445
aa(lp1176
I54289
aI253
aI39142454
aa(lp1177
I54288
aI13
aI39142463
aa(lp1178
I54286
aI180
aI39142481
aa(lp1179
I54287
aI8
aI39142490
aa(lp1180
I65533
aI0
aI39142501
aa(lp1181
I54276
aI65
aI39142772
aa(lp1182
I54275
aI248
aI39142781
aa(lp1183
I54274
aI201
aI39142790
aa(lp1184
I54272
aI72
aI39142808
aa(lp1185
I54273
aI20
aI39142817
aa(lp1186
I54290
aI65
aI39143175
aa(lp1187
I54289
aI252
aI39143184
aa(lp1188
I54288
aI205
aI39143193
aa(lp1189
I54286
aI180
aI39143211
aa(lp1190
I54287
aI8
aI39143220
aa(lp1191
I65533
aI0
aI39143231
aa(lp1192
I54276
aI65
aI39143490
aa(lp1193
I54275
aI248
aI39143499
aa(lp1194
I54274
aI137
aI39143508
aa(lp1195
I54272
aI8
aI39143526
aa(lp1196
I54273
aI21
aI39143535
aa(lp1197
I54285
aI152
aI39143589
aa(lp1198
I54284
aI8
aI39143597
aa(lp1199
I54283
aI16
aI39143608
aa(lp1200
I54283
aI9
aI39143701
aa(lp1201
I54282
aI8
aI39143710
aa(lp1202
I54281
aI8
aI39143719
aa(lp1203
I54279
aI16
aI39143737
aa(lp1204
I54280
aI39
aI39143746
aa(lp1205
I54290
aI65
aI39143890
aa(lp1206
I54289
aI252
aI39143899
aa(lp1207
I54288
aI141
aI39143908
aa(lp1208
I54286
aI180
aI39143926
aa(lp1209
I54287
aI8
aI39143935
aa(lp1210
I65533
aI0
aI39143946
aa(lp1211
I54276
aI65
aI39144192
aa(lp1212
I54275
aI248
aI39144201
aa(lp1213
I54274
aI73
aI39144210
aa(lp1214
I54272
aI72
aI39144228
aa(lp1215
I54273
aI20
aI39144237
aa(lp1216
I54283
aI129
aI39144438
aa(lp1217
I54282
aI8
aI39144447
aa(lp1218
I54281
aI8
aI39144456
aa(lp1219
I54279
aI46
aI39144474
aa(lp1220
I54280
aI253
aI39144483
aa(lp1221
I54290
aI65
aI39144627
aa(lp1222
I54289
aI252
aI39144636
aa(lp1223
I54288
aI77
aI39144645
aa(lp1224
I54286
aI180
aI39144663
aa(lp1225
I54287
aI8
aI39144672
aa(lp1226
I65533
aI0
aI39144683
aa(lp1227
I54276
aI65
aI39144961
aa(lp1228
I54275
aI248
aI39144970
aa(lp1229
I54274
aI9
aI39144979
aa(lp1230
I54272
aI136
aI39144997
aa(lp1231
I54273
aI19
aI39145006
aa(lp1232
I54283
aI17
aI39145224
aa(lp1233
I54282
aI8
aI39145233
aa(lp1234
I54281
aI8
aI39145242
aa(lp1235
I54279
aI16
aI39145260
aa(lp1236
I54280
aI39
aI39145269
aa(lp1237
I54290
aI65
aI39145422
aa(lp1238
I54289
aI252
aI39145431
aa(lp1239
I54288
aI13
aI39145440
aa(lp1240
I54286
aI180
aI39145458
aa(lp1241
I54287
aI8
aI39145467
aa(lp1242
I65533
aI0
aI39145478
aa(lp1243
I54276
aI65
aI39145730
aa(lp1244
I54275
aI247
aI39145739
aa(lp1245
I54274
aI201
aI39145748
aa(lp1246
I54272
aI200
aI39145766
aa(lp1247
I54273
aI18
aI39145775
aa(lp1248
I54283
aI17
aI39145981
aa(lp1249
I54282
aI8
aI39145990
aa(lp1250
I54281
aI8
aI39145999
aa(lp1251
I54279
aI16
aI39146017
aa(lp1252
I54280
aI39
aI39146026
aa(lp1253
I54290
aI65
aI39146176
aa(lp1254
I54289
aI251
aI39146185
aa(lp1255
I54288
aI205
aI39146194
aa(lp1256
I54286
aI180
aI39146212
aa(lp1257
I54287
aI8
aI39146221
aa(lp1258
I65533
aI0
aI39146232
aa(lp1259
I54276
aI65
aI39146489
aa(lp1260
I54275
aI247
aI39146498
aa(lp1261
I54274
aI137
aI39146507
aa(lp1262
I54272
aI8
aI39146525
aa(lp1263
I54273
aI18
aI39146534
aa(lp1264
I54283
aI17
aI39146740
aa(lp1265
I54282
aI8
aI39146749
aa(lp1266
I54281
aI8
aI39146758
aa(lp1267
I54279
aI16
aI39146776
aa(lp1268
I54280
aI39
aI39146785
aa(lp1269
I54290
aI65
aI39146929
aa(lp1270
I54289
aI251
aI39146938
aa(lp1271
I54288
aI141
aI39146947
aa(lp1272
I54286
aI180
aI39146965
aa(lp1273
I54287
aI8
aI39146974
aa(lp1274
I65533
aI0
aI39146985
aa(lp1275
I54276
aI65
aI39147241
aa(lp1276
I54275
aI247
aI39147250
aa(lp1277
I54274
aI73
aI39147259
aa(lp1278
I54272
aI200
aI39147277
aa(lp1279
I54273
aI18
aI39147286
aa(lp1280
I54290
aI65
aI39147660
aa(lp1281
I54289
aI251
aI39147669
aa(lp1282
I54288
aI77
aI39147678
aa(lp1283
I54286
aI180
aI39147696
aa(lp1284
I54287
aI8
aI39147705
aa(lp1285
I65533
aI0
aI39147716
aa(lp1286
I54276
aI65
aI39147975
aa(lp1287
I54275
aI247
aI39147984
aa(lp1288
I54274
aI9
aI39147993
aa(lp1289
I54272
aI136
aI39148011
aa(lp1290
I54273
aI19
aI39148020
aa(lp1291
I54285
aI248
aI39148074
aa(lp1292
I54284
aI8
aI39148082
aa(lp1293
I54283
aI16
aI39148093
aa(lp1294
I54283
aI16
aI39148186
aa(lp1295
I54282
aI8
aI39148195
aa(lp1296
I54281
aI8
aI39148204
aa(lp1297
I54279
aI180
aI39148222
aa(lp1298
I54280
aI8
aI39148231
aa(lp1299
I54290
aI65
aI39148375
aa(lp1300
I54289
aI251
aI39148384
aa(lp1301
I54288
aI13
aI39148393
aa(lp1302
I54286
aI180
aI39148411
aa(lp1303
I54287
aI8
aI39148420
aa(lp1304
I65533
aI0
aI39148431
aa(lp1305
I54276
aI65
aI39148683
aa(lp1306
I54275
aI246
aI39148692
aa(lp1307
I54274
aI201
aI39148701
aa(lp1308
I54272
aI72
aI39148719
aa(lp1309
I54273
aI20
aI39148728
aa(lp1310
I54283
aI129
aI39148929
aa(lp1311
I54282
aI8
aI39148938
aa(lp1312
I54281
aI8
aI39148947
aa(lp1313
I54279
aI120
aI39148965
aa(lp1314
I54280
aI165
aI39148974
aa(lp1315
I54290
aI65
aI39149124
aa(lp1316
I54289
aI250
aI39149133
aa(lp1317
I54288
aI205
aI39149142
aa(lp1318
I54286
aI180
aI39149160
aa(lp1319
I54287
aI8
aI39149169
aa(lp1320
I65533
aI0
aI39149180
aa(lp1321
I54276
aI65
aI39149458
aa(lp1322
I54275
aI246
aI39149467
aa(lp1323
I54274
aI137
aI39149476
aa(lp1324
I54272
aI8
aI39149494
aa(lp1325
I54273
aI21
aI39149503
aa(lp1326
I54283
aI17
aI39149720
aa(lp1327
I54282
aI8
aI39149729
aa(lp1328
I54281
aI8
aI39149738
aa(lp1329
I54279
aI180
aI39149756
aa(lp1330
I54280
aI8
aI39149765
aa(lp1331
I54290
aI65
aI39149918
aa(lp1332
I54289
aI250
aI39149927
aa(lp1333
I54288
aI141
aI39149936
aa(lp1334
I54286
aI180
aI39149954
aa(lp1335
I54287
aI8
aI39149963
aa(lp1336
I65533
aI0
aI39149974
aa(lp1337
I54276
aI65
aI39150220
aa(lp1338
I54275
aI246
aI39150229
aa(lp1339
I54274
aI73
aI39150238
aa(lp1340
I54272
aI72
aI39150256
aa(lp1341
I54273
aI20
aI39150265
aa(lp1342
I54283
aI64
aI39150470
aa(lp1343
I54282
aI8
aI39150479
aa(lp1344
I54281
aI8
aI39150488
aa(lp1345
I54279
aI156
aI39150506
aa(lp1346
I54280
aI11
aI39150515
aa(lp1347
I54290
aI65
aI39150659
aa(lp1348
I54289
aI250
aI39150668
aa(lp1349
I54288
aI77
aI39150677
aa(lp1350
I54286
aI180
aI39150695
aa(lp1351
I54287
aI8
aI39150704
aa(lp1352
I65533
aI0
aI39150715
aa(lp1353
I54276
aI65
aI39150974
aa(lp1354
I54275
aI246
aI39150983
aa(lp1355
I54274
aI9
aI39150992
aa(lp1356
I54272
aI136
aI39151010
aa(lp1357
I54273
aI19
aI39151019
aa(lp1358
I54283
aI128
aI39151220
aa(lp1359
I54282
aI8
aI39151229
aa(lp1360
I54281
aI8
aI39151238
aa(lp1361
I54279
aI46
aI39151256
aa(lp1362
I54280
aI253
aI39151265
aa(lp1363
I54290
aI65
aI39151409
aa(lp1364
I54289
aI250
aI39151418
aa(lp1365
I54288
aI13
aI39151427
aa(lp1366
I54286
aI180
aI39151445
aa(lp1367
I54287
aI8
aI39151454
aa(lp1368
I65533
aI0
aI39151465
aa(lp1369
I54276
aI65
aI39151736
aa(lp1370
I54275
aI245
aI39151745
aa(lp1371
I54274
aI201
aI39151754
aa(lp1372
I54272
aI200
aI39151772
aa(lp1373
I54273
aI18
aI39151781
aa(lp1374
I54283
aI128
aI39151993
aa(lp1375
I54282
aI8
aI39152002
aa(lp1376
I54281
aI8
aI39152011
aa(lp1377
I54279
aI175
aI39152029
aa(lp1378
I54280
aI20
aI39152038
aa(lp1379
I54290
aI65
aI39152197
aa(lp1380
I54289
aI249
aI39152206
aa(lp1381
I54288
aI205
aI39152215
aa(lp1382
I54286
aI180
aI39152233
aa(lp1383
I54287
aI8
aI39152242
aa(lp1384
I65533
aI0
aI39152253
aa(lp1385
I54276
aI65
aI39152503
aa(lp1386
I54275
aI245
aI39152512
aa(lp1387
I54274
aI137
aI39152521
aa(lp1388
I54272
aI8
aI39152539
aa(lp1389
I54273
aI18
aI39152548
aa(lp1390
I54283
aI128
aI39152749
aa(lp1391
I54282
aI8
aI39152758
aa(lp1392
I54281
aI8
aI39152767
aa(lp1393
I54279
aI214
aI39152785
aa(lp1394
I54280
aI43
aI39152794
aa(lp1395
I54290
aI65
aI39152938
aa(lp1396
I54289
aI249
aI39152947
aa(lp1397
I54288
aI141
aI39152956
aa(lp1398
I54286
aI180
aI39152974
aa(lp1399
I54287
aI8
aI39152983
aa(lp1400
I65533
aI0
aI39152994
aa(lp1401
I54276
aI65
aI39153231
aa(lp1402
I54275
aI245
aI39153240
aa(lp1403
I54274
aI73
aI39153249
aa(lp1404
I54272
aI200
aI39153267
aa(lp1405
I54273
aI18
aI39153276
aa(lp1406
I54283
aI128
aI39153476
aa(lp1407
I54282
aI8
aI39153485
aa(lp1408
I54281
aI8
aI39153494
aa(lp1409
I54279
aI130
aI39153512
aa(lp1410
I54280
aI15
aI39153521
aa(lp1411
I54290
aI65
aI39153665
aa(lp1412
I54289
aI249
aI39153674
aa(lp1413
I54288
aI77
aI39153683
aa(lp1414
I54286
aI180
aI39153701
aa(lp1415
I54287
aI8
aI39153710
aa(lp1416
I65533
aI0
aI39153721
aa(lp1417
I54276
aI65
aI39153999
aa(lp1418
I54275
aI245
aI39154008
aa(lp1419
I54274
aI9
aI39154017
aa(lp1420
I54272
aI136
aI39154035
aa(lp1421
I54273
aI19
aI39154044
aa(lp1422
I54283
aI16
aI39154273
aa(lp1423
I54282
aI8
aI39154282
aa(lp1424
I54281
aI8
aI39154291
aa(lp1425
I54279
aI156
aI39154309
aa(lp1426
I54280
aI11
aI39154318
aa(lp1427
I54290
aI65
aI39154471
aa(lp1428
I54289
aI249
aI39154480
aa(lp1429
I54288
aI13
aI39154489
aa(lp1430
I54286
aI180
aI39154507
aa(lp1431
I54287
aI8
aI39154516
aa(lp1432
I65533
aI0
aI39154527
aa(lp1433
I54276
aI65
aI39154779
aa(lp1434
I54275
aI244
aI39154788
aa(lp1435
I54274
aI201
aI39154797
aa(lp1436
I54272
aI72
aI39154815
aa(lp1437
I54273
aI20
aI39154824
aa(lp1438
I54283
aI16
aI39154929
aa(lp1439
I54282
aI8
aI39154938
aa(lp1440
I54281
aI8
aI39154947
aa(lp1441
I54279
aI156
aI39154965
aa(lp1442
I54280
aI11
aI39154974
aa(lp1443
I54290
aI65
aI39155124
aa(lp1444
I54289
aI248
aI39155133
aa(lp1445
I54288
aI205
aI39155142
aa(lp1446
I54286
aI180
aI39155160
aa(lp1447
I54287
aI8
aI39155169
aa(lp1448
I65533
aI0
aI39155180
aa(lp1449
I54276
aI65
aI39155439
aa(lp1450
I54275
aI244
aI39155448
aa(lp1451
I54274
aI137
aI39155457
aa(lp1452
I54272
aI8
aI39155475
aa(lp1453
I54273
aI21
aI39155484
aa(lp1454
I54283
aI16
aI39155589
aa(lp1455
I54282
aI8
aI39155598
aa(lp1456
I54281
aI8
aI39155607
aa(lp1457
I54279
aI156
aI39155625
aa(lp1458
I54280
aI11
aI39155634
aa(lp1459
I54290
aI65
aI39155778
aa(lp1460
I54289
aI248
aI39155787
aa(lp1461
I54288
aI141
aI39155796
aa(lp1462
I54286
aI180
aI39155814
aa(lp1463
I54287
aI8
aI39155823
aa(lp1464
I65533
aI0
aI39155834
aa(lp1465
I54276
aI65
aI39156099
aa(lp1466
I54275
aI244
aI39156108
aa(lp1467
I54274
aI73
aI39156117
aa(lp1468
I54272
aI72
aI39156135
aa(lp1469
I54273
aI20
aI39156144
aa(lp1470
I54290
aI65
aI39156519
aa(lp1471
I54289
aI248
aI39156528
aa(lp1472
I54288
aI77
aI39156537
aa(lp1473
I54286
aI180
aI39156555
aa(lp1474
I54287
aI8
aI39156564
aa(lp1475
I65533
aI0
aI39156575
aa(lp1476
I54276
aI65
aI39156834
aa(lp1477
I54275
aI244
aI39156843
aa(lp1478
I54274
aI9
aI39156852
aa(lp1479
I54272
aI136
aI39156870
aa(lp1480
I54273
aI19
aI39156879
aa(lp1481
I54285
aI152
aI39156933
aa(lp1482
I54284
aI8
aI39156941
aa(lp1483
I54283
aI16
aI39156952
aa(lp1484
I54283
aI9
aI39157045
aa(lp1485
I54282
aI8
aI39157054
aa(lp1486
I54281
aI8
aI39157063
aa(lp1487
I54279
aI32
aI39157081
aa(lp1488
I54280
aI78
aI39157090
aa(lp1489
I54290
aI65
aI39157234
aa(lp1490
I54289
aI248
aI39157243
aa(lp1491
I54288
aI13
aI39157252
aa(lp1492
I54286
aI180
aI39157270
aa(lp1493
I54287
aI8
aI39157279
aa(lp1494
I65533
aI0
aI39157290
aa(lp1495
I54276
aI65
aI39157542
aa(lp1496
I54275
aI243
aI39157551
aa(lp1497
I54274
aI201
aI39157560
aa(lp1498
I54272
aI200
aI39157578
aa(lp1499
I54273
aI18
aI39157587
aa(lp1500
I54283
aI129
aI39157788
aa(lp1501
I54282
aI8
aI39157797
aa(lp1502
I54281
aI8
aI39157806
aa(lp1503
I54279
aI46
aI39157824
aa(lp1504
I54280
aI253
aI39157833
aa(lp1505
I54290
aI65
aI39157983
aa(lp1506
I54289
aI247
aI39157992
aa(lp1507
I54288
aI205
aI39158001
aa(lp1508
I54286
aI180
aI39158019
aa(lp1509
I54287
aI8
aI39158028
aa(lp1510
I65533
aI0
aI39158039
aa(lp1511
I54276
aI65
aI39158308
aa(lp1512
I54275
aI243
aI39158317
aa(lp1513
I54274
aI137
aI39158326
aa(lp1514
I54272
aI8
aI39158344
aa(lp1515
I54273
aI18
aI39158353
aa(lp1516
I54283
aI17
aI39158571
aa(lp1517
I54282
aI8
aI39158580
aa(lp1518
I54281
aI8
aI39158589
aa(lp1519
I54279
aI32
aI39158607
aa(lp1520
I54280
aI78
aI39158616
aa(lp1521
I54290
aI65
aI39158769
aa(lp1522
I54289
aI247
aI39158778
aa(lp1523
I54288
aI141
aI39158787
aa(lp1524
I54286
aI180
aI39158805
aa(lp1525
I54287
aI8
aI39158814
aa(lp1526
I65533
aI0
aI39158825
aa(lp1527
I54276
aI65
aI39159062
aa(lp1528
I54275
aI243
aI39159071
aa(lp1529
I54274
aI73
aI39159080
aa(lp1530
I54272
aI200
aI39159098
aa(lp1531
I54273
aI18
aI39159107
aa(lp1532
I54283
aI17
aI39159313
aa(lp1533
I54282
aI8
aI39159322
aa(lp1534
I54281
aI8
aI39159331
aa(lp1535
I54279
aI32
aI39159349
aa(lp1536
I54280
aI78
aI39159358
aa(lp1537
I54290
aI65
aI39159502
aa(lp1538
I54289
aI247
aI39159511
aa(lp1539
I54288
aI77
aI39159520
aa(lp1540
I54286
aI180
aI39159538
aa(lp1541
I54287
aI8
aI39159547
aa(lp1542
I65533
aI0
aI39159558
aa(lp1543
I54276
aI65
aI39159817
aa(lp1544
I54275
aI243
aI39159826
aa(lp1545
I54274
aI9
aI39159835
aa(lp1546
I54272
aI136
aI39159853
aa(lp1547
I54273
aI19
aI39159862
aa(lp1548
I54283
aI17
aI39160068
aa(lp1549
I54282
aI8
aI39160077
aa(lp1550
I54281
aI8
aI39160086
aa(lp1551
I54279
aI32
aI39160104
aa(lp1552
I54280
aI78
aI39160113
aa(lp1553
I54290
aI65
aI39160257
aa(lp1554
I54289
aI247
aI39160266
aa(lp1555
I54288
aI13
aI39160275
aa(lp1556
I54286
aI180
aI39160293
aa(lp1557
I54287
aI8
aI39160302
aa(lp1558
I65533
aI0
aI39160313
aa(lp1559
I54276
aI65
aI39160584
aa(lp1560
I54275
aI242
aI39160593
aa(lp1561
I54274
aI201
aI39160602
aa(lp1562
I54272
aI72
aI39160620
aa(lp1563
I54273
aI20
aI39160629
aa(lp1564
I54290
aI65
aI39161020
aa(lp1565
I54289
aI246
aI39161029
aa(lp1566
I54288
aI205
aI39161038
aa(lp1567
I54286
aI180
aI39161056
aa(lp1568
I54287
aI8
aI39161065
aa(lp1569
I65533
aI0
aI39161076
aa(lp1570
I54276
aI65
aI39161335
aa(lp1571
I54275
aI242
aI39161344
aa(lp1572
I54274
aI137
aI39161353
aa(lp1573
I54272
aI8
aI39161371
aa(lp1574
I54273
aI21
aI39161380
aa(lp1575
I54285
aI248
aI39161434
aa(lp1576
I54284
aI8
aI39161442
aa(lp1577
I54283
aI16
aI39161453
aa(lp1578
I54283
aI16
aI39161546
aa(lp1579
I54282
aI8
aI39161555
aa(lp1580
I54281
aI8
aI39161564
aa(lp1581
I54279
aI180
aI39161582
aa(lp1582
I54280
aI8
aI39161591
aa(lp1583
I54290
aI65
aI39161735
aa(lp1584
I54289
aI246
aI39161744
aa(lp1585
I54288
aI141
aI39161753
aa(lp1586
I54286
aI180
aI39161771
aa(lp1587
I54287
aI8
aI39161780
aa(lp1588
I65533
aI0
aI39161791
aa(lp1589
I54276
aI65
aI39162037
aa(lp1590
I54275
aI242
aI39162046
aa(lp1591
I54274
aI73
aI39162055
aa(lp1592
I54272
aI72
aI39162073
aa(lp1593
I54273
aI20
aI39162082
aa(lp1594
I54283
aI129
aI39162283
aa(lp1595
I54282
aI8
aI39162292
aa(lp1596
I54281
aI8
aI39162301
aa(lp1597
I54279
aI120
aI39162319
aa(lp1598
I54280
aI165
aI39162328
aa(lp1599
I54290
aI65
aI39162472
aa(lp1600
I54289
aI246
aI39162481
aa(lp1601
I54288
aI77
aI39162490
aa(lp1602
I54286
aI180
aI39162508
aa(lp1603
I54287
aI8
aI39162517
aa(lp1604
I65533
aI0
aI39162528
aa(lp1605
I54276
aI65
aI39162806
aa(lp1606
I54275
aI242
aI39162815
aa(lp1607
I54274
aI9
aI39162824
aa(lp1608
I54272
aI136
aI39162842
aa(lp1609
I54273
aI19
aI39162851
aa(lp1610
I54283
aI17
aI39163068
aa(lp1611
I54282
aI8
aI39163077
aa(lp1612
I54281
aI8
aI39163086
aa(lp1613
I54279
aI180
aI39163104
aa(lp1614
I54280
aI8
aI39163113
aa(lp1615
I54290
aI65
aI39163266
aa(lp1616
I54289
aI246
aI39163275
aa(lp1617
I54288
aI13
aI39163284
aa(lp1618
I54286
aI180
aI39163302
aa(lp1619
I54287
aI8
aI39163311
aa(lp1620
I65533
aI0
aI39163322
aa(lp1621
I54276
aI65
aI39163574
aa(lp1622
I54275
aI241
aI39163583
aa(lp1623
I54274
aI201
aI39163592
aa(lp1624
I54272
aI200
aI39163610
aa(lp1625
I54273
aI18
aI39163619
aa(lp1626
I54283
aI64
aI39163824
aa(lp1627
I54282
aI8
aI39163833
aa(lp1628
I54281
aI8
aI39163842
aa(lp1629
I54279
aI156
aI39163860
aa(lp1630
I54280
aI11
aI39163869
aa(lp1631
I54290
aI65
aI39164019
aa(lp1632
I54289
aI245
aI39164028
aa(lp1633
I54288
aI205
aI39164037
aa(lp1634
I54286
aI180
aI39164055
aa(lp1635
I54287
aI8
aI39164064
aa(lp1636
I65533
aI0
aI39164075
aa(lp1637
I54276
aI65
aI39164325
aa(lp1638
I54275
aI241
aI39164334
aa(lp1639
I54274
aI137
aI39164343
aa(lp1640
I54272
aI8
aI39164361
aa(lp1641
I54273
aI18
aI39164370
aa(lp1642
I54283
aI128
aI39164571
aa(lp1643
I54282
aI8
aI39164580
aa(lp1644
I54281
aI8
aI39164589
aa(lp1645
I54279
aI46
aI39164607
aa(lp1646
I54280
aI253
aI39164616
aa(lp1647
I54290
aI65
aI39164760
aa(lp1648
I54289
aI245
aI39164769
aa(lp1649
I54288
aI141
aI39164778
aa(lp1650
I54286
aI180
aI39164796
aa(lp1651
I54287
aI8
aI39164805
aa(lp1652
I65533
aI0
aI39164816
aa.I1652
.I611
.F62.254
.(lp0
I1
aI0
aI0
a.I5
.F0.25
.