(lp0
(lp1
I65533
aI0
aI41031228
aa(lp2
I54278
aI9
aI41031298
aa(lp3
I54277
aI9
aI41031306
aa(lp4
I54276
aI64
aI41031317
aa(lp5
I54276
aI65
aI41031421
aa(lp6
I54275
aI132
aI41031430
aa(lp7
I54274
aI132
aI41031439
aa(lp8
I54272
aI220
aI41031457
aa(lp9
I54273
aI36
aI41031466
aa(lp10
I54285
aI248
aI41031520
aa(lp11
I54284
aI8
aI41031528
aa(lp12
I54283
aI16
aI41031539
aa(lp13
I54283
aI16
aI41031632
aa(lp14
I54282
aI8
aI41031641
aa(lp15
I54281
aI8
aI41031650
aa(lp16
I54279
aI180
aI41031668
aa(lp17
I54280
aI8
aI41031677
aa(lp18
I54290
aI64
aI41031827
aa(lp19
I54289
aI11
aI41031836
aa(lp20
I54288
aI205
aI41031845
aa(lp21
I54286
aI81
aI41031863
aa(lp22
I54287
aI7
aI41031872
aa(lp23
I65533
aI0
aI41031883
aa(lp24
I54294
aI240
aI41031957
aa(lp25
I54276
aI65
aI41032144
aa(lp26
I54275
aI5
aI41032153
aa(lp27
I54274
aI4
aI41032162
aa(lp28
I54272
aI214
aI41032180
aa(lp29
I54273
aI43
aI41032189
aa(lp30
I54283
aI129
aI41032390
aa(lp31
I54282
aI8
aI41032399
aa(lp32
I54281
aI8
aI41032408
aa(lp33
I54279
aI120
aI41032426
aa(lp34
I54280
aI165
aI41032435
aa(lp35
I54290
aI64
aI41032579
aa(lp36
I54289
aI11
aI41032588
aa(lp37
I54288
aI141
aI41032597
aa(lp38
I54286
aI81
aI41032615
aa(lp39
I54287
aI7
aI41032624
aa(lp40
I65533
aI0
aI41032635
aa(lp41
I54276
aI65
aI41032899
aa(lp42
I54275
aI133
aI41032908
aa(lp43
I54274
aI132
aI41032917
aa(lp44
I54272
aI140
aI41032935
aa(lp45
I54273
aI58
aI41032944
aa(lp46
I54283
aI17
aI41033161
aa(lp47
I54282
aI8
aI41033170
aa(lp48
I54281
aI8
aI41033179
aa(lp49
I54279
aI180
aI41033197
aa(lp50
I54280
aI8
aI41033206
aa(lp51
I54290
aI64
aI41033359
aa(lp52
I54289
aI11
aI41033368
aa(lp53
I54288
aI77
aI41033377
aa(lp54
I54286
aI81
aI41033395
aa(lp55
I54287
aI7
aI41033404
aa(lp56
I65533
aI0
aI41033415
aa(lp57
I54276
aI65
aI41033666
aa(lp58
I54275
aI6
aI41033675
aa(lp59
I54274
aI4
aI41033684
aa(lp60
I54272
aI220
aI41033702
aa(lp61
I54273
aI36
aI41033711
aa(lp62
I54283
aI64
aI41033916
aa(lp63
I54282
aI8
aI41033925
aa(lp64
I54281
aI8
aI41033934
aa(lp65
I54279
aI156
aI41033952
aa(lp66
I54280
aI11
aI41033961
aa(lp67
I54290
aI64
aI41034105
aa(lp68
I54289
aI11
aI41034114
aa(lp69
I54288
aI13
aI41034123
aa(lp70
I54286
aI81
aI41034141
aa(lp71
I54287
aI7
aI41034150
aa(lp72
I65533
aI0
aI41034161
aa(lp73
I54276
aI65
aI41034406
aa(lp74
I54275
aI134
aI41034415
aa(lp75
I54274
aI132
aI41034424
aa(lp76
I54272
aI214
aI41034442
aa(lp77
I54273
aI43
aI41034451
aa(lp78
I54283
aI128
aI41034652
aa(lp79
I54282
aI8
aI41034661
aa(lp80
I54281
aI8
aI41034670
aa(lp81
I54279
aI46
aI41034688
aa(lp82
I54280
aI253
aI41034697
aa(lp83
I54290
aI64
aI41034847
aa(lp84
I54289
aI10
aI41034856
aa(lp85
I54288
aI205
aI41034865
aa(lp86
I54286
aI81
aI41034883
aa(lp87
I54287
aI7
aI41034892
aa(lp88
I65533
aI0
aI41034903
aa(lp89
I54283
aI128
aI41035337
aa(lp90
I54282
aI8
aI41035346
aa(lp91
I54281
aI8
aI41035355
aa(lp92
I54279
aI175
aI41035373
aa(lp93
I54280
aI20
aI41035382
aa(lp94
I65533
aI0
aI41035585
aa(lp95
I54278
aI9
aI41035655
aa(lp96
I54277
aI9
aI41035663
aa(lp97
I54276
aI64
aI41035674
aa(lp98
I54276
aI65
aI41035778
aa(lp99
I54275
aI132
aI41035787
aa(lp100
I54274
aI132
aI41035796
aa(lp101
I54272
aI220
aI41035814
aa(lp102
I54273
aI36
aI41035823
aa(lp103
I54283
aI128
aI41036024
aa(lp104
I54282
aI8
aI41036033
aa(lp105
I54281
aI8
aI41036042
aa(lp106
I54279
aI214
aI41036060
aa(lp107
I54280
aI43
aI41036069
aa(lp108
I54292
aI136
aI41036120
aa(lp109
I54291
aI10
aI41036128
aa(lp110
I54290
aI64
aI41036139
aa(lp111
I54290
aI65
aI41036232
aa(lp112
I54289
aI13
aI41036241
aa(lp113
I54288
aI13
aI41036250
aa(lp114
I54286
aI133
aI41036268
aa(lp115
I54287
aI6
aI41036277
aa(lp116
I65533
aI0
aI41036288
aa(lp117
I54294
aI240
aI41036362
aa(lp118
I54276
aI65
aI41036549
aa(lp119
I54275
aI5
aI41036558
aa(lp120
I54274
aI4
aI41036567
aa(lp121
I54272
aI214
aI41036585
aa(lp122
I54273
aI43
aI41036594
aa(lp123
I54283
aI128
aI41036794
aa(lp124
I54282
aI8
aI41036803
aa(lp125
I54281
aI8
aI41036812
aa(lp126
I54279
aI130
aI41036830
aa(lp127
I54280
aI15
aI41036839
aa(lp128
I54290
aI65
aI41036989
aa(lp129
I54289
aI12
aI41036998
aa(lp130
I54288
aI205
aI41037007
aa(lp131
I54286
aI133
aI41037025
aa(lp132
I54287
aI6
aI41037034
aa(lp133
I65533
aI0
aI41037045
aa(lp134
I54276
aI65
aI41037309
aa(lp135
I54275
aI133
aI41037318
aa(lp136
I54274
aI132
aI41037327
aa(lp137
I54272
aI140
aI41037345
aa(lp138
I54273
aI58
aI41037354
aa(lp139
I54283
aI16
aI41037583
aa(lp140
I54282
aI8
aI41037592
aa(lp141
I54281
aI8
aI41037601
aa(lp142
I54279
aI156
aI41037619
aa(lp143
I54280
aI11
aI41037628
aa(lp144
I54290
aI65
aI41037781
aa(lp145
I54289
aI12
aI41037790
aa(lp146
I54288
aI141
aI41037799
aa(lp147
I54286
aI133
aI41037817
aa(lp148
I54287
aI6
aI41037826
aa(lp149
I65533
aI0
aI41037837
aa(lp150
I54276
aI65
aI41038088
aa(lp151
I54275
aI6
aI41038097
aa(lp152
I54274
aI4
aI41038106
aa(lp153
I54272
aI220
aI41038124
aa(lp154
I54273
aI36
aI41038133
aa(lp155
I54283
aI16
aI41038238
aa(lp156
I54282
aI8
aI41038247
aa(lp157
I54281
aI8
aI41038256
aa(lp158
I54279
aI156
aI41038274
aa(lp159
I54280
aI11
aI41038283
aa(lp160
I54290
aI65
aI41038427
aa(lp161
I54289
aI12
aI41038436
aa(lp162
I54288
aI77
aI41038445
aa(lp163
I54286
aI133
aI41038463
aa(lp164
I54287
aI6
aI41038472
aa(lp165
I65533
aI0
aI41038483
aa(lp166
I54276
aI65
aI41038728
aa(lp167
I54275
aI134
aI41038737
aa(lp168
I54274
aI132
aI41038746
aa(lp169
I54272
aI214
aI41038764
aa(lp170
I54273
aI43
aI41038773
aa(lp171
I54283
aI16
aI41038878
aa(lp172
I54282
aI8
aI41038887
aa(lp173
I54281
aI8
aI41038896
aa(lp174
I54279
aI156
aI41038914
aa(lp175
I54280
aI11
aI41038923
aa(lp176
I54290
aI65
aI41039067
aa(lp177
I54289
aI12
aI41039076
aa(lp178
I54288
aI13
aI41039085
aa(lp179
I54286
aI133
aI41039103
aa(lp180
I54287
aI6
aI41039112
aa(lp181
I65533
aI0
aI41039123
aa(lp182
I65533
aI0
aI41039771
aa(lp183
I54276
aI64
aI41040016
aa(lp184
I54275
aI7
aI41040025
aa(lp185
I54274
aI4
aI41040034
aa(lp186
I54272
aI140
aI41040052
aa(lp187
I54273
aI58
aI41040061
aa(lp188
I54285
aI152
aI41040115
aa(lp189
I54284
aI8
aI41040123
aa(lp190
I54283
aI16
aI41040134
aa(lp191
I54283
aI9
aI41040227
aa(lp192
I54282
aI8
aI41040236
aa(lp193
I54281
aI8
aI41040245
aa(lp194
I54279
aI32
aI41040263
aa(lp195
I54280
aI78
aI41040272
aa(lp196
I54292
aI136
aI41040323
aa(lp197
I54291
aI10
aI41040331
aa(lp198
I54290
aI64
aI41040342
aa(lp199
I54290
aI65
aI41040435
aa(lp200
I54289
aI13
aI41040444
aa(lp201
I54288
aI13
aI41040453
aa(lp202
I54286
aI66
aI41040471
aa(lp203
I54287
aI3
aI41040480
aa(lp204
I65533
aI0
aI41040491
aa(lp205
I54276
aI64
aI41040742
aa(lp206
I54275
aI135
aI41040751
aa(lp207
I54274
aI132
aI41040760
aa(lp208
I54272
aI220
aI41040778
aa(lp209
I54273
aI36
aI41040787
aa(lp210
I54283
aI129
aI41040988
aa(lp211
I54282
aI8
aI41040997
aa(lp212
I54281
aI8
aI41041006
aa(lp213
I54279
aI46
aI41041024
aa(lp214
I54280
aI253
aI41041033
aa(lp215
I54290
aI65
aI41041183
aa(lp216
I54289
aI12
aI41041192
aa(lp217
I54288
aI205
aI41041201
aa(lp218
I54286
aI66
aI41041219
aa(lp219
I54287
aI3
aI41041228
aa(lp220
I65533
aI0
aI41041239
aa(lp221
I54276
aI64
aI41041503
aa(lp222
I54275
aI8
aI41041512
aa(lp223
I54274
aI4
aI41041521
aa(lp224
I54272
aI214
aI41041539
aa(lp225
I54273
aI43
aI41041548
aa(lp226
I54283
aI17
aI41041766
aa(lp227
I54282
aI8
aI41041775
aa(lp228
I54281
aI8
aI41041784
aa(lp229
I54279
aI32
aI41041802
aa(lp230
I54280
aI78
aI41041811
aa(lp231
I54290
aI65
aI41041964
aa(lp232
I54289
aI12
aI41041973
aa(lp233
I54288
aI141
aI41041982
aa(lp234
I54286
aI66
aI41042000
aa(lp235
I54287
aI3
aI41042009
aa(lp236
I65533
aI0
aI41042020
aa(lp237
I54276
aI64
aI41042265
aa(lp238
I54275
aI136
aI41042274
aa(lp239
I54274
aI132
aI41042283
aa(lp240
I54272
aI140
aI41042301
aa(lp241
I54273
aI58
aI41042310
aa(lp242
I54283
aI17
aI41042516
aa(lp243
I54282
aI8
aI41042525
aa(lp244
I54281
aI8
aI41042534
aa(lp245
I54279
aI32
aI41042552
aa(lp246
I54280
aI78
aI41042561
aa(lp247
I54290
aI65
aI41042705
aa(lp248
I54289
aI12
aI41042714
aa(lp249
I54288
aI77
aI41042723
aa(lp250
I54286
aI66
aI41042741
aa(lp251
I54287
aI3
aI41042750
aa(lp252
I65533
aI0
aI41042761
aa(lp253
I54276
aI64
aI41043012
aa(lp254
I54275
aI9
aI41043021
aa(lp255
I54274
aI4
aI41043030
aa(lp256
I54272
aI220
aI41043048
aa(lp257
I54273
aI36
aI41043057
aa(lp258
I54283
aI17
aI41043263
aa(lp259
I54282
aI8
aI41043272
aa(lp260
I54281
aI8
aI41043281
aa(lp261
I54279
aI32
aI41043299
aa(lp262
I54280
aI78
aI41043308
aa(lp263
I54290
aI65
aI41043452
aa(lp264
I54289
aI12
aI41043461
aa(lp265
I54288
aI13
aI41043470
aa(lp266
I54286
aI66
aI41043488
aa(lp267
I54287
aI3
aI41043497
aa(lp268
I65533
aI0
aI41043508
aa(lp269
I54276
aI64
aI41043772
aa(lp270
I54275
aI137
aI41043781
aa(lp271
I54274
aI132
aI41043790
aa(lp272
I54272
aI214
aI41043808
aa(lp273
I54273
aI43
aI41043817
aa(lp274
I65533
aI0
aI41044404
aa(lp275
I54276
aI64
aI41044649
aa(lp276
I54275
aI10
aI41044658
aa(lp277
I54274
aI4
aI41044667
aa(lp278
I54272
aI140
aI41044685
aa(lp279
I54273
aI58
aI41044694
aa(lp280
I54285
aI248
aI41044748
aa(lp281
I54284
aI8
aI41044756
aa(lp282
I54283
aI16
aI41044767
aa(lp283
I54283
aI16
aI41044860
aa(lp284
I54282
aI8
aI41044869
aa(lp285
I54281
aI8
aI41044878
aa(lp286
I54279
aI180
aI41044896
aa(lp287
I54280
aI8
aI41044905
aa(lp288
I54292
aI136
aI41044956
aa(lp289
I54291
aI10
aI41044964
aa(lp290
I54290
aI64
aI41044975
aa(lp291
I54290
aI65
aI41045068
aa(lp292
I54289
aI13
aI41045077
aa(lp293
I54288
aI13
aI41045086
aa(lp294
I54286
aI169
aI41045104
aa(lp295
I54287
aI3
aI41045113
aa(lp296
I65533
aI0
aI41045124
aa(lp297
I54276
aI64
aI41045375
aa(lp298
I54275
aI138
aI41045384
aa(lp299
I54274
aI132
aI41045393
aa(lp300
I54272
aI220
aI41045411
aa(lp301
I54273
aI36
aI41045420
aa(lp302
I54283
aI129
aI41045621
aa(lp303
I54282
aI8
aI41045630
aa(lp304
I54281
aI8
aI41045639
aa(lp305
I54279
aI120
aI41045657
aa(lp306
I54280
aI165
aI41045666
aa(lp307
I54290
aI65
aI41045816
aa(lp308
I54289
aI12
aI41045825
aa(lp309
I54288
aI205
aI41045834
aa(lp310
I54286
aI169
aI41045852
aa(lp311
I54287
aI3
aI41045861
aa(lp312
I65533
aI0
aI41045872
aa(lp313
I54276
aI64
aI41046136
aa(lp314
I54275
aI11
aI41046145
aa(lp315
I54274
aI4
aI41046154
aa(lp316
I54272
aI214
aI41046172
aa(lp317
I54273
aI43
aI41046181
aa(lp318
I54283
aI17
aI41046398
aa(lp319
I54282
aI8
aI41046407
aa(lp320
I54281
aI8
aI41046416
aa(lp321
I54279
aI180
aI41046434
aa(lp322
I54280
aI8
aI41046443
aa(lp323
I54290
aI65
aI41046596
aa(lp324
I54289
aI12
aI41046605
aa(lp325
I54288
aI141
aI41046614
aa(lp326
I54286
aI169
aI41046632
aa(lp327
I54287
aI3
aI41046641
aa(lp328
I65533
aI0
aI41046652
aa(lp329
I54276
aI64
aI41046897
aa(lp330
I54275
aI139
aI41046906
aa(lp331
I54274
aI132
aI41046915
aa(lp332
I54272
aI140
aI41046933
aa(lp333
I54273
aI58
aI41046942
aa(lp334
I54283
aI64
aI41047147
aa(lp335
I54282
aI8
aI41047156
aa(lp336
I54281
aI8
aI41047165
aa(lp337
I54279
aI156
aI41047183
aa(lp338
I54280
aI11
aI41047192
aa(lp339
I54290
aI65
aI41047336
aa(lp340
I54289
aI12
aI41047345
aa(lp341
I54288
aI77
aI41047354
aa(lp342
I54286
aI169
aI41047372
aa(lp343
I54287
aI3
aI41047381
aa(lp344
I65533
aI0
aI41047392
aa(lp345
I54276
aI64
aI41047643
aa(lp346
I54275
aI12
aI41047652
aa(lp347
I54274
aI4
aI41047661
aa(lp348
I54272
aI220
aI41047679
aa(lp349
I54273
aI36
aI41047688
aa(lp350
I54283
aI128
aI41047889
aa(lp351
I54282
aI8
aI41047898
aa(lp352
I54281
aI8
aI41047907
aa(lp353
I54279
aI46
aI41047925
aa(lp354
I54280
aI253
aI41047934
aa(lp355
I54290
aI65
aI41048078
aa(lp356
I54289
aI12
aI41048087
aa(lp357
I54288
aI13
aI41048096
aa(lp358
I54286
aI169
aI41048114
aa(lp359
I54287
aI3
aI41048123
aa(lp360
I65533
aI0
aI41048134
aa.I360
.I360
.F81.26
.(lp0
I1
aI0
aI0
a.I6
.F0.25
.