(lp0
(lp1
I65533
aI0
aI6305240
aa(lp2
I54296
aI15
aI6305264
aa(lp3
I54287
aI4
aI6305493
aa(lp4
I54286
aI226
aI6305507
aa(lp5
I54290
aI65
aI6305562
aa(lp6
I54288
aI160
aI6305571
aa(lp7
I54289
aI2
aI6305580
aa(lp8
I54291
aI9
aI6305589
aa(lp9
I54292
aI128
aI6305598
aa(lp10
I54280
aI13
aI6305861
aa(lp11
I54279
aI9
aI6305875
aa(lp12
I54283
aI65
aI6305930
aa(lp13
I54281
aI0
aI6305939
aa(lp14
I54282
aI9
aI6305948
aa(lp15
I54284
aI74
aI6305957
aa(lp16
I54285
aI105
aI6305967
aa(lp17
I54273
aI15
aI6306230
aa(lp18
I54272
aI130
aI6306244
aa(lp19
I54276
aI65
aI6306299
aa(lp20
I54274
aI0
aI6306308
aa(lp21
I54275
aI9
aI6306317
aa(lp22
I54277
aI74
aI6306326
aa(lp23
I54278
aI105
aI6306336
aa(lp24
I65533
aI0
aI6306426
aa(lp25
I54296
aI15
aI6306450
aa(lp26
I54279
aI33
aI6306866
aa(lp27
I54280
aI13
aI6306875
aa(lp28
I54272
aI159
aI6307209
aa(lp29
I54273
aI15
aI6307218
aa(lp30
I65533
aI0
aI6307332
aa(lp31
I54296
aI15
aI6307356
aa(lp32
I54279
aI57
aI6307908
aa(lp33
I54280
aI13
aI6307917
aa(lp34
I54282
aI8
aI6308017
aa(lp35
I54281
aI128
aI6308031
aa(lp36
I54272
aI188
aI6308428
aa(lp37
I54273
aI15
aI6308437
aa(lp38
I54275
aI8
aI6308537
aa(lp39
I54274
aI0
aI6308551
aa(lp40
I65533
aI0
aI6308647
aa(lp41
I54296
aI15
aI6308671
aa(lp42
I54279
aI81
aI6309153
aa(lp43
I54280
aI13
aI6309162
aa(lp44
I54272
aI217
aI6309562
aa(lp45
I54273
aI15
aI6309571
aa(lp46
I65533
aI0
aI6309685
aa(lp47
I54296
aI15
aI6309709
aa(lp48
I54279
aI81
aI6310295
aa(lp49
I54280
aI13
aI6310304
aa(lp50
I54282
aI8
aI6310397
aa(lp51
I54281
aI128
aI6310411
aa(lp52
I54272
aI217
aI6310842
aa(lp53
I54273
aI15
aI6310851
aa(lp54
I54275
aI9
aI6310944
aa(lp55
I54274
aI0
aI6310958
aa(lp56
I65533
aI0
aI6311054
aa(lp57
I54296
aI15
aI6311078
aa(lp58
I54279
aI57
aI6311528
aa(lp59
I54280
aI13
aI6311537
aa(lp60
I54272
aI188
aI6311905
aa(lp61
I54273
aI15
aI6311914
aa(lp62
I65533
aI0
aI6312028
aa(lp63
I54296
aI15
aI6312052
aa(lp64
I54279
aI33
aI6312572
aa(lp65
I54280
aI13
aI6312581
aa(lp66
I54282
aI9
aI6312674
aa(lp67
I54281
aI128
aI6312688
aa(lp68
I54272
aI159
aI6313053
aa(lp69
I54273
aI15
aI6313062
aa(lp70
I54275
aI10
aI6313155
aa(lp71
I54274
aI0
aI6313169
aa(lp72
I65533
aI0
aI6313265
aa(lp73
I54296
aI15
aI6313289
aa(lp74
I54279
aI9
aI6313673
aa(lp75
I54280
aI13
aI6313682
aa(lp76
I54272
aI130
aI6313984
aa(lp77
I54273
aI15
aI6313993
aa(lp78
I65533
aI0
aI6314107
aa(lp79
I54296
aI15
aI6314131
aa(lp80
I54279
aI9
aI6314617
aa(lp81
I54280
aI13
aI6314626
aa(lp82
I54282
aI10
aI6314719
aa(lp83
I54281
aI128
aI6314733
aa(lp84
I54272
aI130
aI6315064
aa(lp85
I54273
aI15
aI6315073
aa(lp86
I54275
aI11
aI6315166
aa(lp87
I54274
aI0
aI6315180
aa(lp88
I65533
aI0
aI6315276
aa(lp89
I54296
aI15
aI6315300
aa(lp90
I54279
aI33
aI6315716
aa(lp91
I54280
aI13
aI6315725
aa(lp92
I54272
aI159
aI6316059
aa(lp93
I54273
aI15
aI6316068
aa(lp94
I65533
aI0
aI6316182
aa(lp95
I54296
aI15
aI6316206
aa(lp96
I54279
aI57
aI6316758
aa(lp97
I54280
aI13
aI6316767
aa(lp98
I54282
aI11
aI6316860
aa(lp99
I54281
aI128
aI6316874
aa(lp100
I54272
aI188
aI6317271
aa(lp101
I54273
aI15
aI6317280
aa(lp102
I54275
aI12
aI6317373
aa(lp103
I54274
aI0
aI6317387
aa(lp104
I65533
aI0
aI6317483
aa(lp105
I54296
aI15
aI6317507
aa(lp106
I54279
aI81
aI6317989
aa(lp107
I54280
aI13
aI6317998
aa(lp108
I54272
aI217
aI6318398
aa(lp109
I54273
aI15
aI6318407
aa(lp110
I65533
aI0
aI6318521
aa(lp111
I54296
aI15
aI6318545
aa(lp112
I54279
aI81
aI6319131
aa(lp113
I54280
aI13
aI6319140
aa(lp114
I54282
aI12
aI6319233
aa(lp115
I54281
aI128
aI6319247
aa(lp116
I54272
aI217
aI6319678
aa(lp117
I54273
aI15
aI6319687
aa(lp118
I54275
aI13
aI6319780
aa(lp119
I54274
aI0
aI6319794
aa(lp120
I65533
aI0
aI6319890
aa(lp121
I54296
aI15
aI6319914
aa(lp122
I54279
aI57
aI6320364
aa(lp123
I54280
aI13
aI6320373
aa(lp124
I54272
aI188
aI6320741
aa(lp125
I54273
aI15
aI6320750
aa(lp126
I65533
aI0
aI6320864
aa(lp127
I54296
aI15
aI6320888
aa(lp128
I54290
aI64
aI6320999
aa(lp129
I54291
aI0
aI6321006
aa(lp130
I54292
aI0
aI6321011
aa(lp131
I54279
aI33
aI6321430
aa(lp132
I54280
aI13
aI6321439
aa(lp133
I54282
aI13
aI6321532
aa(lp134
I54281
aI128
aI6321546
aa(lp135
I54272
aI159
aI6321911
aa(lp136
I54273
aI15
aI6321920
aa(lp137
I54275
aI14
aI6322022
aa(lp138
I54274
aI0
aI6322036
aa(lp139
I65533
aI0
aI6322132
aa(lp140
I54296
aI15
aI6322156
aa(lp141
I54279
aI9
aI6322540
aa(lp142
I54280
aI13
aI6322549
aa(lp143
I54272
aI130
aI6322851
aa(lp144
I54273
aI15
aI6322860
aa(lp145
I65533
aI0
aI6322974
aa(lp146
I54296
aI15
aI6322998
aa(lp147
I54287
aI16
aI6323227
aa(lp148
I54286
aI110
aI6323241
aa(lp149
I54290
aI129
aI6323296
aa(lp150
I54288
aI0
aI6323305
aa(lp151
I54289
aI2
aI6323314
aa(lp152
I54291
aI9
aI6323323
aa(lp153
I54292
aI9
aI6323332
aa(lp154
I54279
aI9
aI6323657
aa(lp155
I54280
aI13
aI6323666
aa(lp156
I54282
aI14
aI6323768
aa(lp157
I54281
aI128
aI6323782
aa(lp158
I54272
aI130
aI6324113
aa(lp159
I54273
aI15
aI6324122
aa(lp160
I54275
aI14
aI6324216
aa(lp161
I54274
aI0
aI6324230
aa(lp162
I65533
aI0
aI6324326
aa(lp163
I54296
aI15
aI6324350
aa(lp164
I54287
aI16
aI6324516
aa(lp165
I54290
aI128
aI6324523
aa(lp166
I54287
aI32
aI6324584
aa(lp167
I54286
aI220
aI6324593
aa(lp168
I54279
aI33
aI6324866
aa(lp169
I54280
aI13
aI6324875
aa(lp170
I54272
aI159
aI6325209
aa(lp171
I54273
aI15
aI6325218
aa(lp172
I65533
aI0
aI6325332
aa(lp173
I54296
aI15
aI6325356
aa(lp174
I54287
aI16
aI6325582
aa(lp175
I54290
aI128
aI6325596
aa(lp176
I54287
aI16
aI6325651
aa(lp177
I54286
aI110
aI6325660
aa(lp178
I54279
aI57
aI6326014
aa(lp179
I54280
aI13
aI6326023
aa(lp180
I54282
aI13
aI6326117
aa(lp181
I54281
aI128
aI6326131
aa(lp182
I54272
aI188
aI6326528
aa(lp183
I54273
aI15
aI6326537
aa(lp184
I54275
aI13
aI6326631
aa(lp185
I54274
aI0
aI6326645
aa(lp186
I65533
aI0
aI6326741
aa(lp187
I54296
aI15
aI6326765
aa(lp188
I54287
aI15
aI6326936
aa(lp189
I54290
aI128
aI6326950
aa(lp190
I54287
aI32
aI6327011
aa(lp191
I54286
aI220
aI6327020
aa(lp192
I54279
aI81
aI6327359
aa(lp193
I54280
aI13
aI6327368
aa(lp194
I54272
aI217
aI6327768
aa(lp195
I54273
aI15
aI6327777
aa(lp196
I65533
aI0
aI6327891
aa(lp197
I54296
aI15
aI6327915
aa(lp198
I54287
aI14
aI6328141
aa(lp199
I54290
aI128
aI6328155
aa(lp200
I54287
aI16
aI6328210
aa(lp201
I54286
aI110
aI6328219
aa(lp202
I54279
aI81
aI6328607
aa(lp203
I54280
aI13
aI6328616
aa(lp204
I54282
aI12
aI6328710
aa(lp205
I54281
aI128
aI6328724
aa(lp206
I54272
aI217
aI6329155
aa(lp207
I54273
aI15
aI6329164
aa(lp208
I54275
aI12
aI6329258
aa(lp209
I54274
aI0
aI6329272
aa(lp210
I65533
aI0
aI6329368
aa(lp211
I54296
aI15
aI6329392
aa(lp212
I54287
aI13
aI6329563
aa(lp213
I54290
aI128
aI6329577
aa(lp214
I54287
aI32
aI6329638
aa(lp215
I54286
aI220
aI6329647
aa(lp216
I54279
aI57
aI6329954
aa(lp217
I54280
aI13
aI6329963
aa(lp218
I54272
aI188
aI6330331
aa(lp219
I54273
aI15
aI6330340
aa(lp220
I65533
aI0
aI6330454
aa(lp221
I54296
aI15
aI6330478
aa(lp222
I54287
aI12
aI6330704
aa(lp223
I54290
aI128
aI6330718
aa(lp224
I54287
aI16
aI6330773
aa(lp225
I54286
aI110
aI6330782
aa(lp226
I54279
aI33
aI6331104
aa(lp227
I54280
aI13
aI6331113
aa(lp228
I54282
aI11
aI6331207
aa(lp229
I54281
aI128
aI6331221
aa(lp230
I54272
aI159
aI6331586
aa(lp231
I54273
aI15
aI6331595
aa(lp232
I54275
aI11
aI6331689
aa(lp233
I54274
aI0
aI6331703
aa(lp234
I65533
aI0
aI6331799
aa(lp235
I54296
aI15
aI6331823
aa(lp236
I54287
aI11
aI6331994
aa(lp237
I54290
aI128
aI6332008
aa(lp238
I54287
aI32
aI6332069
aa(lp239
I54286
aI220
aI6332078
aa(lp240
I54279
aI9
aI6332319
aa(lp241
I54280
aI13
aI6332328
aa(lp242
I54272
aI130
aI6332630
aa(lp243
I54273
aI15
aI6332639
aa(lp244
I65533
aI0
aI6332753
aa(lp245
I54296
aI15
aI6332777
aa(lp246
I54287
aI10
aI6333003
aa(lp247
I54290
aI128
aI6333017
aa(lp248
I54287
aI16
aI6333072
aa(lp249
I54286
aI110
aI6333081
aa(lp250
I54279
aI9
aI6333369
aa(lp251
I54280
aI13
aI6333378
aa(lp252
I54282
aI10
aI6333472
aa(lp253
I54281
aI128
aI6333486
aa(lp254
I54272
aI130
aI6333817
aa(lp255
I54273
aI15
aI6333826
aa(lp256
I54275
aI10
aI6333920
aa(lp257
I54274
aI0
aI6333934
aa(lp258
I65533
aI0
aI6334030
aa(lp259
I54296
aI15
aI6334054
aa(lp260
I54287
aI9
aI6334225
aa(lp261
I54290
aI128
aI6334239
aa(lp262
I54287
aI32
aI6334300
aa(lp263
I54286
aI220
aI6334309
aa(lp264
I54279
aI33
aI6334582
aa(lp265
I54280
aI13
aI6334591
aa(lp266
I54272
aI159
aI6334925
aa(lp267
I54273
aI15
aI6334934
aa(lp268
I65533
aI0
aI6335048
aa(lp269
I54296
aI15
aI6335072
aa(lp270
I54287
aI8
aI6335298
aa(lp271
I54290
aI128
aI6335312
aa(lp272
I54287
aI16
aI6335367
aa(lp273
I54286
aI110
aI6335376
aa(lp274
I54279
aI57
aI6335730
aa(lp275
I54280
aI13
aI6335739
aa(lp276
I54282
aI9
aI6335833
aa(lp277
I54281
aI128
aI6335847
aa(lp278
I54272
aI188
aI6336244
aa(lp279
I54273
aI15
aI6336253
aa(lp280
I54275
aI9
aI6336347
aa(lp281
I54274
aI0
aI6336361
aa(lp282
I65533
aI0
aI6336457
aa(lp283
I54296
aI15
aI6336481
aa(lp284
I54287
aI7
aI6336652
aa(lp285
I54290
aI128
aI6336666
aa(lp286
I54287
aI32
aI6336727
aa(lp287
I54286
aI220
aI6336736
aa(lp288
I54279
aI81
aI6337075
aa(lp289
I54280
aI13
aI6337084
aa(lp290
I54272
aI217
aI6337484
aa(lp291
I54273
aI15
aI6337493
aa(lp292
I65533
aI0
aI6337607
aa(lp293
I54296
aI15
aI6337631
aa(lp294
I54287
aI6
aI6337857
aa(lp295
I54290
aI128
aI6337871
aa(lp296
I54287
aI16
aI6337926
aa(lp297
I54286
aI110
aI6337935
aa(lp298
I54279
aI81
aI6338323
aa(lp299
I54280
aI13
aI6338332
aa(lp300
I54282
aI8
aI6338432
aa(lp301
I54281
aI128
aI6338446
aa(lp302
I54272
aI217
aI6338877
aa(lp303
I54273
aI15
aI6338886
aa(lp304
I54275
aI8
aI6338986
aa(lp305
I54274
aI0
aI6339000
aa(lp306
I65533
aI0
aI6339096
aa(lp307
I54296
aI15
aI6339120
aa(lp308
I54287
aI5
aI6339291
aa(lp309
I54290
aI128
aI6339305
aa(lp310
I54287
aI32
aI6339366
aa(lp311
I54286
aI220
aI6339375
aa(lp312
I54279
aI57
aI6339682
aa(lp313
I54280
aI13
aI6339691
aa(lp314
I54272
aI188
aI6340059
aa(lp315
I54273
aI15
aI6340068
aa(lp316
I65533
aI0
aI6340182
aa(lp317
I54296
aI15
aI6340206
aa(lp318
I54290
aI128
aI6340317
aa(lp319
I54291
aI0
aI6340324
aa(lp320
I54292
aI0
aI6340329
aa(lp321
I54287
aI16
aI6340475
aa(lp322
I54286
aI110
aI6340484
aa(lp323
I54279
aI33
aI6340806
aa(lp324
I54280
aI13
aI6340815
aa(lp325
I54282
aI8
aI6340908
aa(lp326
I54281
aI128
aI6340922
aa(lp327
I54272
aI159
aI6341287
aa(lp328
I54273
aI15
aI6341296
aa(lp329
I54275
aI9
aI6341389
aa(lp330
I54274
aI0
aI6341403
aa(lp331
I65533
aI0
aI6341499
aa(lp332
I54296
aI15
aI6341523
aa(lp333
I54287
aI32
aI6341721
aa(lp334
I54286
aI220
aI6341730
aa(lp335
I54279
aI9
aI6341971
aa(lp336
I54280
aI13
aI6341980
aa(lp337
I54272
aI130
aI6342282
aa(lp338
I54273
aI15
aI6342291
aa(lp339
I65533
aI0
aI6342405
aa(lp340
I54296
aI15
aI6342429
aa(lp341
I54287
aI9
aI6342658
aa(lp342
I54286
aI196
aI6342672
aa(lp343
I54290
aI65
aI6342727
aa(lp344
I54288
aI160
aI6342736
aa(lp345
I54289
aI2
aI6342745
aa(lp346
I54291
aI9
aI6342754
aa(lp347
I54292
aI128
aI6342763
aa(lp348
I54279
aI9
aI6343088
aa(lp349
I54280
aI13
aI6343097
aa(lp350
I54282
aI9
aI6343190
aa(lp351
I54281
aI128
aI6343204
aa(lp352
I54272
aI130
aI6343535
aa(lp353
I54273
aI15
aI6343544
aa(lp354
I54275
aI10
aI6343637
aa(lp355
I54274
aI0
aI6343651
aa(lp356
I65533
aI0
aI6343747
aa(lp357
I54296
aI15
aI6343771
aa(lp358
I54279
aI33
aI6344187
aa(lp359
I54280
aI13
aI6344196
aa(lp360
I54272
aI159
aI6344530
aa(lp361
I54273
aI15
aI6344539
aa(lp362
I65533
aI0
aI6344653
aa(lp363
I54296
aI15
aI6344677
aa(lp364
I54279
aI57
aI6345229
aa(lp365
I54280
aI13
aI6345238
aa(lp366
I54282
aI10
aI6345331
aa(lp367
I54281
aI128
aI6345345
aa(lp368
I54272
aI188
aI6345742
aa(lp369
I54273
aI15
aI6345751
aa(lp370
I54275
aI11
aI6345844
aa(lp371
I54274
aI0
aI6345858
aa(lp372
I65533
aI0
aI6345954
aa(lp373
I54296
aI15
aI6345978
aa(lp374
I54279
aI81
aI6346460
aa(lp375
I54280
aI13
aI6346469
aa(lp376
I54272
aI217
aI6346869
aa(lp377
I54273
aI15
aI6346878
aa(lp378
I65533
aI0
aI6346992
aa(lp379
I54296
aI15
aI6347016
aa(lp380
I54279
aI81
aI6347602
aa(lp381
I54280
aI13
aI6347611
aa(lp382
I54282
aI11
aI6347704
aa(lp383
I54281
aI128
aI6347718
aa(lp384
I54272
aI217
aI6348149
aa(lp385
I54273
aI15
aI6348158
aa(lp386
I54275
aI12
aI6348251
aa(lp387
I54274
aI0
aI6348265
aa(lp388
I65533
aI0
aI6348361
aa(lp389
I54296
aI15
aI6348385
aa(lp390
I54279
aI57
aI6348835
aa(lp391
I54280
aI13
aI6348844
aa(lp392
I54272
aI188
aI6349212
aa(lp393
I54273
aI15
aI6349221
aa(lp394
I65533
aI0
aI6349335
aa(lp395
I54296
aI15
aI6349359
aa(lp396
I54290
aI64
aI6349470
aa(lp397
I54291
aI0
aI6349477
aa(lp398
I54292
aI0
aI6349482
aa(lp399
I54279
aI33
aI6349901
aa(lp400
I54280
aI13
aI6349910
aa(lp401
I54282
aI12
aI6350003
aa(lp402
I54281
aI128
aI6350017
aa(lp403
I54272
aI159
aI6350382
aa(lp404
I54273
aI15
aI6350391
aa(lp405
I54275
aI13
aI6350484
aa(lp406
I54274
aI0
aI6350498
aa(lp407
I65533
aI0
aI6350594
aa(lp408
I54296
aI15
aI6350618
aa(lp409
I54279
aI9
aI6351002
aa(lp410
I54280
aI13
aI6351011
aa(lp411
I54272
aI130
aI6351313
aa(lp412
I54273
aI15
aI6351322
aa(lp413
I65533
aI0
aI6351436
aa(lp414
I54296
aI15
aI6351460
aa(lp415
I54287
aI9
aI6351668
aa(lp416
I54286
aI196
aI6351682
aa(lp417
I54290
aI65
aI6351737
aa(lp418
I54288
aI160
aI6351746
aa(lp419
I54289
aI2
aI6351755
aa(lp420
I54291
aI9
aI6351764
aa(lp421
I54292
aI128
aI6351773
aa(lp422
I54279
aI9
aI6352098
aa(lp423
I54280
aI13
aI6352107
aa(lp424
I54282
aI13
aI6352200
aa(lp425
I54281
aI128
aI6352214
aa(lp426
I54272
aI130
aI6352545
aa(lp427
I54273
aI15
aI6352554
aa(lp428
I54275
aI14
aI6352656
aa(lp429
I54274
aI0
aI6352670
aa(lp430
I65533
aI0
aI6352766
aa(lp431
I54296
aI15
aI6352790
aa(lp432
I54279
aI33
aI6353206
aa(lp433
I54280
aI13
aI6353215
aa(lp434
I54272
aI159
aI6353549
aa(lp435
I54273
aI15
aI6353558
aa(lp436
I65533
aI0
aI6353672
aa(lp437
I54296
aI15
aI6353696
aa(lp438
I54279
aI57
aI6354248
aa(lp439
I54280
aI13
aI6354257
aa(lp440
I54282
aI14
aI6354359
aa(lp441
I54281
aI128
aI6354373
aa(lp442
I54272
aI188
aI6354770
aa(lp443
I54273
aI15
aI6354779
aa(lp444
I54275
aI14
aI6354873
aa(lp445
I54274
aI0
aI6354887
aa(lp446
I65533
aI0
aI6354983
aa(lp447
I54296
aI15
aI6355007
aa(lp448
I54279
aI81
aI6355489
aa(lp449
I54280
aI13
aI6355498
aa(lp450
I54272
aI217
aI6355898
aa(lp451
I54273
aI15
aI6355907
aa(lp452
I65533
aI0
aI6356021
aa(lp453
I54296
aI15
aI6356045
aa(lp454
I54279
aI81
aI6356631
aa(lp455
I54280
aI13
aI6356640
aa(lp456
I54282
aI13
aI6356734
aa(lp457
I54281
aI128
aI6356748
aa(lp458
I54272
aI217
aI6357179
aa(lp459
I54273
aI15
aI6357188
aa(lp460
I54275
aI13
aI6357282
aa(lp461
I54274
aI0
aI6357296
aa(lp462
I65533
aI0
aI6357392
aa(lp463
I54296
aI15
aI6357416
aa(lp464
I54279
aI57
aI6357866
aa(lp465
I54280
aI13
aI6357875
aa(lp466
I54272
aI188
aI6358243
aa(lp467
I54273
aI15
aI6358252
aa(lp468
I65533
aI0
aI6358366
aa(lp469
I54296
aI15
aI6358390
aa(lp470
I54290
aI64
aI6358501
aa(lp471
I54291
aI0
aI6358508
aa(lp472
I54292
aI0
aI6358513
aa(lp473
I54283
aI64
aI6358718
aa(lp474
I54284
aI0
aI6358725
aa(lp475
I54285
aI0
aI6358730
aa(lp476
I54279
aI33
aI6358954
aa(lp477
I54280
aI13
aI6358963
aa(lp478
I54282
aI12
aI6359057
aa(lp479
I54281
aI128
aI6359071
aa(lp480
I54276
aI64
aI6359222
aa(lp481
I54277
aI0
aI6359229
aa(lp482
I54278
aI0
aI6359234
aa(lp483
I54272
aI159
aI6359458
aa(lp484
I54273
aI15
aI6359467
aa(lp485
I54275
aI12
aI6359561
aa(lp486
I54274
aI0
aI6359575
aa(lp487
I65533
aI0
aI6359671
aa(lp488
I54296
aI15
aI6359695
aa(lp489
I54279
aI9
aI6360079
aa(lp490
I54280
aI13
aI6360088
aa(lp491
I54272
aI130
aI6360390
aa(lp492
I54273
aI15
aI6360399
aa(lp493
I65533
aI0
aI6360513
aa(lp494
I54296
aI15
aI6360537
aa(lp495
I54287
aI16
aI6360766
aa(lp496
I54286
aI110
aI6360780
aa(lp497
I54290
aI129
aI6360835
aa(lp498
I54288
aI0
aI6360844
aa(lp499
I54289
aI2
aI6360853
aa(lp500
I54291
aI9
aI6360862
aa(lp501
I54292
aI9
aI6360871
aa(lp502
I54280
aI13
aI6361126
aa(lp503
I54279
aI9
aI6361140
aa(lp504
I54283
aI65
aI6361195
aa(lp505
I54281
aI0
aI6361204
aa(lp506
I54282
aI12
aI6361213
aa(lp507
I54284
aI74
aI6361222
aa(lp508
I54285
aI105
aI6361232
aa(lp509
I54273
aI15
aI6361474
aa(lp510
I54272
aI130
aI6361488
aa(lp511
I54276
aI65
aI6361543
aa(lp512
I54274
aI0
aI6361552
aa(lp513
I54275
aI12
aI6361561
aa(lp514
I54277
aI74
aI6361570
aa(lp515
I54278
aI105
aI6361580
aa(lp516
I65533
aI0
aI6361671
aa(lp517
I54296
aI15
aI6361695
aa(lp518
I54287
aI16
aI6361861
aa(lp519
I54290
aI128
aI6361868
aa(lp520
I54287
aI32
aI6361929
aa(lp521
I54286
aI220
aI6361938
aa(lp522
I54279
aI9
aI6362170
aa(lp523
I54280
aI13
aI6362179
aa(lp524
I54282
aI11
aI6362273
aa(lp525
I54281
aI128
aI6362287
aa(lp526
I54272
aI130
aI6362562
aa(lp527
I54273
aI15
aI6362571
aa(lp528
I54275
aI11
aI6362665
aa(lp529
I54274
aI0
aI6362679
aa(lp530
I65533
aI0
aI6362775
aa(lp531
I54296
aI15
aI6362799
aa(lp532
I54287
aI16
aI6363025
aa(lp533
I54290
aI128
aI6363039
aa(lp534
I54287
aI16
aI6363094
aa(lp535
I54286
aI110
aI6363103
aa(lp536
I54279
aI9
aI6363383
aa(lp537
I54280
aI13
aI6363392
aa(lp538
I54272
aI130
aI6363733
aa(lp539
I54273
aI15
aI6363742
aa(lp540
I65533
aI0
aI6363856
aa(lp541
I54296
aI15
aI6363880
aa(lp542
I54287
aI15
aI6364051
aa(lp543
I54290
aI128
aI6364065
aa(lp544
I54287
aI32
aI6364126
aa(lp545
I54286
aI220
aI6364135
aa(lp546
I54279
aI9
aI6364367
aa(lp547
I54280
aI13
aI6364376
aa(lp548
I54282
aI10
aI6364470
aa(lp549
I54281
aI128
aI6364484
aa(lp550
I54272
aI130
aI6364759
aa(lp551
I54273
aI15
aI6364768
aa(lp552
I54275
aI10
aI6364862
aa(lp553
I54274
aI0
aI6364876
aa(lp554
I65533
aI0
aI6364972
aa(lp555
I54296
aI15
aI6364996
aa(lp556
I54287
aI14
aI6365222
aa(lp557
I54290
aI128
aI6365236
aa(lp558
I54287
aI16
aI6365291
aa(lp559
I54286
aI110
aI6365300
aa(lp560
I54279
aI9
aI6365581
aa(lp561
I54280
aI13
aI6365590
aa(lp562
I54272
aI130
aI6365932
aa(lp563
I54273
aI15
aI6365941
aa(lp564
I65533
aI0
aI6366055
aa(lp565
I54296
aI15
aI6366079
aa(lp566
I54287
aI13
aI6366250
aa(lp567
I54290
aI128
aI6366264
aa(lp568
I54287
aI32
aI6366325
aa(lp569
I54286
aI220
aI6366334
aa(lp570
I54279
aI9
aI6366567
aa(lp571
I54280
aI13
aI6366576
aa(lp572
I54282
aI9
aI6366670
aa(lp573
I54281
aI128
aI6366684
aa(lp574
I54272
aI130
aI6366960
aa(lp575
I54273
aI15
aI6366969
aa(lp576
I54275
aI9
aI6367063
aa(lp577
I54274
aI0
aI6367077
aa(lp578
I65533
aI0
aI6367173
aa(lp579
I54296
aI15
aI6367197
aa(lp580
I54287
aI12
aI6367423
aa(lp581
I54290
aI128
aI6367437
aa(lp582
I54287
aI16
aI6367492
aa(lp583
I54286
aI110
aI6367501
aa(lp584
I54283
aI64
aI6367609
aa(lp585
I54284
aI0
aI6367616
aa(lp586
I54285
aI0
aI6367621
aa(lp587
I54279
aI9
aI6367804
aa(lp588
I54280
aI13
aI6367813
aa(lp589
I54276
aI64
aI6367982
aa(lp590
I54277
aI0
aI6367989
aa(lp591
I54278
aI0
aI6367994
aa(lp592
I54272
aI130
aI6368177
aa(lp593
I54273
aI15
aI6368186
aa(lp594
I65533
aI0
aI6368300
aa(lp595
I54296
aI15
aI6368324
aa(lp596
I54287
aI11
aI6368495
aa(lp597
I54290
aI128
aI6368509
aa(lp598
I54287
aI32
aI6368570
aa(lp599
I54286
aI220
aI6368579
aa(lp600
I54279
aI9
aI6368812
aa(lp601
I54280
aI13
aI6368821
aa(lp602
I54282
aI8
aI6368921
aa(lp603
I54281
aI128
aI6368935
aa(lp604
I54272
aI130
aI6369211
aa(lp605
I54273
aI15
aI6369220
aa(lp606
I54275
aI8
aI6369320
aa(lp607
I54274
aI0
aI6369334
aa.I607
.I0
.F55.43
.(lp0
I1
aI1
aI0
a.I11
.F0.25
.