(lp0
(lp1
I65533
aI0
aI2557257
aa(lp2
I54295
aI0
aI2557313
aa(lp3
I54296
aI15
aI2557319
aa(lp4
I54287
aI3
aI2557529
aa(lp5
I54286
aI169
aI2557543
aa(lp6
I54290
aI65
aI2557594
aa(lp7
I54288
aI64
aI2557604
aa(lp8
I54289
aI0
aI2557617
aa(lp9
I54291
aI15
aI2557630
aa(lp10
I54292
aI255
aI2557640
aa(lp11
I54280
aI21
aI2557910
aa(lp12
I54279
aI235
aI2557924
aa(lp13
I54283
aI65
aI2557975
aa(lp14
I54281
aI0
aI2557984
aa(lp15
I54282
aI3
aI2557997
aa(lp16
I54284
aI8
aI2558010
aa(lp17
I54285
aI15
aI2558020
aa(lp18
I54273
aI11
aI2558337
aa(lp19
I54272
aI156
aI2558346
aa(lp20
I65533
aI0
aI2558362
aa(lp21
I54295
aI0
aI2558418
aa(lp22
I54296
aI15
aI2558424
aa(lp23
I54286
aI169
aI2558737
aa(lp24
I54287
aI3
aI2558746
aa(lp25
I54289
aI0
aI2558840
aa(lp26
I54288
aI80
aI2558854
aa(lp27
I54280
aI21
aI2559046
aa(lp28
I54283
aI128
aI2559053
aa(lp29
I54280
aI21
aI2559138
aa(lp30
I54279
aI235
aI2559147
aa(lp31
I54273
aI27
aI2559350
aa(lp32
I54272
aI161
aI2559359
aa(lp33
I65533
aI0
aI2559375
aa(lp34
I54295
aI0
aI2559431
aa(lp35
I54296
aI15
aI2559437
aa(lp36
I54286
aI195
aI2559783
aa(lp37
I54287
aI3
aI2559792
aa(lp38
I54280
aI21
aI2560015
aa(lp39
I54283
aI128
aI2560022
aa(lp40
I54280
aI21
aI2560113
aa(lp41
I54279
aI235
aI2560122
aa(lp42
I54273
aI11
aI2560331
aa(lp43
I54272
aI156
aI2560340
aa(lp44
I65533
aI0
aI2560356
aa(lp45
I54295
aI0
aI2560412
aa(lp46
I54296
aI15
aI2560418
aa(lp47
I54286
aI169
aI2560791
aa(lp48
I54287
aI3
aI2560800
aa(lp49
I54283
aI64
aI2560952
aa(lp50
I54284
aI0
aI2560959
aa(lp51
I54285
aI0
aI2560964
aa(lp52
I54280
aI21
aI2561142
aa(lp53
I54279
aI235
aI2561151
aa(lp54
I54273
aI27
aI2561395
aa(lp55
I54272
aI161
aI2561404
aa(lp56
I65533
aI0
aI2561420
aa(lp57
I54295
aI0
aI2561476
aa(lp58
I54296
aI15
aI2561482
aa(lp59
I54286
aI143
aI2561762
aa(lp60
I54287
aI3
aI2561771
aa(lp61
I54280
aI21
aI2562056
aa(lp62
I54279
aI235
aI2562065
aa(lp63
I54273
aI11
aI2562274
aa(lp64
I54272
aI156
aI2562283
aa(lp65
I65533
aI0
aI2562299
aa(lp66
I54295
aI0
aI2562355
aa(lp67
I54296
aI15
aI2562361
aa(lp68
I54286
aI169
aI2562674
aa(lp69
I54287
aI3
aI2562683
aa(lp70
I54289
aI0
aI2562777
aa(lp71
I54288
aI96
aI2562791
aa(lp72
I54280
aI21
aI2563039
aa(lp73
I54279
aI235
aI2563048
aa(lp74
I54273
aI27
aI2563251
aa(lp75
I54272
aI161
aI2563260
aa(lp76
I65533
aI0
aI2563276
aa(lp77
I54295
aI0
aI2563332
aa(lp78
I54296
aI15
aI2563338
aa(lp79
I54286
aI195
aI2563726
aa(lp80
I54287
aI3
aI2563735
aa(lp81
I54280
aI29
aI2563987
aa(lp82
I54279
aI70
aI2564001
aa(lp83
I54283
aI65
aI2564052
aa(lp84
I54281
aI0
aI2564061
aa(lp85
I54282
aI3
aI2564074
aa(lp86
I54284
aI8
aI2564087
aa(lp87
I54285
aI15
aI2564097
aa(lp88
I54273
aI11
aI2564414
aa(lp89
I54272
aI156
aI2564423
aa(lp90
I65533
aI0
aI2564439
aa(lp91
I54295
aI0
aI2564495
aa(lp92
I54296
aI15
aI2564501
aa(lp93
I54286
aI169
aI2564832
aa(lp94
I54287
aI3
aI2564841
aa(lp95
I54280
aI29
aI2565064
aa(lp96
I54283
aI128
aI2565071
aa(lp97
I54280
aI29
aI2565156
aa(lp98
I54279
aI70
aI2565165
aa(lp99
I54273
aI27
aI2565368
aa(lp100
I54272
aI161
aI2565377
aa(lp101
I65533
aI0
aI2565393
aa(lp102
I54295
aI0
aI2565449
aa(lp103
I54296
aI15
aI2565455
aa(lp104
I54286
aI143
aI2565735
aa(lp105
I54287
aI3
aI2565744
aa(lp106
I54280
aI29
aI2565967
aa(lp107
I54283
aI128
aI2565974
aa(lp108
I54280
aI29
aI2566065
aa(lp109
I54279
aI70
aI2566074
aa(lp110
I54273
aI11
aI2566283
aa(lp111
I54272
aI156
aI2566292
aa(lp112
I65533
aI0
aI2566308
aa(lp113
I65533
aI0
aI2566347
aa(lp114
I54295
aI0
aI2566403
aa(lp115
I54296
aI15
aI2566409
aa(lp116
I54286
aI169
aI2566764
aa(lp117
I54287
aI3
aI2566773
aa(lp118
I54289
aI0
aI2566867
aa(lp119
I54288
aI112
aI2566881
aa(lp120
I54283
aI64
aI2567002
aa(lp121
I54284
aI0
aI2567009
aa(lp122
I54285
aI0
aI2567014
aa(lp123
I54280
aI29
aI2567192
aa(lp124
I54279
aI70
aI2567201
aa(lp125
I54276
aI128
aI2567283
aa(lp126
I54277
aI0
aI2567290
aa(lp127
I54278
aI0
aI2567295
aa(lp128
I54273
aI27
aI2567467
aa(lp129
I54272
aI161
aI2567476
aa(lp130
I65533
aI0
aI2567492
aa(lp131
I54295
aI0
aI2567548
aa(lp132
I54296
aI15
aI2567554
aa(lp133
I54286
aI195
aI2567900
aa(lp134
I54287
aI3
aI2567909
aa(lp135
I54280
aI29
aI2568194
aa(lp136
I54279
aI70
aI2568203
aa(lp137
I54273
aI11
aI2568412
aa(lp138
I54272
aI156
aI2568421
aa(lp139
I65533
aI0
aI2568437
aa(lp140
I54295
aI0
aI2568493
aa(lp141
I54296
aI15
aI2568499
aa(lp142
I54286
aI169
aI2568830
aa(lp143
I54287
aI3
aI2568839
aa(lp144
I54280
aI29
aI2569118
aa(lp145
I54279
aI70
aI2569127
aa(lp146
I54273
aI27
aI2569330
aa(lp147
I54272
aI161
aI2569339
aa(lp148
I65533
aI0
aI2569355
aa(lp149
I54295
aI0
aI2569411
aa(lp150
I54296
aI15
aI2569417
aa(lp151
I54286
aI143
aI2569739
aa(lp152
I54287
aI3
aI2569748
aa(lp153
I54280
aI58
aI2570021
aa(lp154
I54279
aI140
aI2570035
aa(lp155
I54283
aI21
aI2570086
aa(lp156
I54281
aI0
aI2570096
aa(lp157
I54282
aI5
aI2570109
aa(lp158
I54284
aI15
aI2570122
aa(lp159
I54285
aI255
aI2570132
aa(lp160
I54273
aI27
aI2570402
aa(lp161
I54272
aI161
aI2570416
aa(lp162
I54276
aI129
aI2570467
aa(lp163
I54274
aI0
aI2570477
aa(lp164
I54275
aI8
aI2570490
aa(lp165
I54277
aI15
aI2570503
aa(lp166
I54278
aI10
aI2570513
aa(lp167
I65533
aI0
aI2570596
aa(lp168
I54295
aI0
aI2570652
aa(lp169
I54296
aI15
aI2570658
aa(lp170
I54286
aI169
aI2570971
aa(lp171
I54287
aI3
aI2570980
aa(lp172
I54289
aI0
aI2571074
aa(lp173
I54288
aI128
aI2571088
aa(lp174
I54273
aI27
aI2571418
aa(lp175
I54276
aI128
aI2571425
aa(lp176
I54273
aI27
aI2571510
aa(lp177
I54272
aI161
aI2571519
aa(lp178
I65533
aI0
aI2571535
aa(lp179
I54295
aI0
aI2571591
aa(lp180
I54296
aI15
aI2571597
aa(lp181
I54286
aI195
aI2571943
aa(lp182
I54287
aI3
aI2571952
aa(lp183
I54280
aI62
aI2572188
aa(lp184
I54279
aI8
aI2572197
aa(lp185
I54273
aI27
aI2572359
aa(lp186
I54276
aI128
aI2572366
aa(lp187
I54273
aI11
aI2572457
aa(lp188
I54272
aI156
aI2572466
aa(lp189
I65533
aI0
aI2572482
aa(lp190
I54295
aI0
aI2572538
aa(lp191
I54296
aI15
aI2572544
aa(lp192
I54286
aI169
aI2572917
aa(lp193
I54287
aI3
aI2572926
aa(lp194
I54283
aI20
aI2573078
aa(lp195
I54284
aI0
aI2573085
aa(lp196
I54285
aI0
aI2573090
aa(lp197
I54273
aI27
aI2573397
aa(lp198
I54276
aI128
aI2573411
aa(lp199
I54273
aI27
aI2573496
aa(lp200
I54272
aI161
aI2573505
aa(lp201
I65533
aI0
aI2573521
aa(lp202
I54295
aI0
aI2573577
aa(lp203
I54296
aI15
aI2573583
aa(lp204
I54286
aI143
aI2573863
aa(lp205
I54287
aI3
aI2573872
aa(lp206
I54273
aI26
aI2574239
aa(lp207
I54276
aI128
aI2574253
aa(lp208
I54273
aI11
aI2574344
aa(lp209
I54272
aI156
aI2574353
aa(lp210
I65533
aI0
aI2574369
aa(lp211
I54295
aI0
aI2574425
aa(lp212
I54296
aI15
aI2574431
aa(lp213
I54286
aI169
aI2574744
aa(lp214
I54287
aI3
aI2574753
aa(lp215
I54289
aI0
aI2574847
aa(lp216
I54288
aI144
aI2574861
aa(lp217
I54273
aI25
aI2575197
aa(lp218
I54276
aI128
aI2575211
aa(lp219
I54273
aI27
aI2575296
aa(lp220
I54272
aI161
aI2575305
aa(lp221
I65533
aI0
aI2575321
aa(lp222
I65533
aI0
aI2575360
aa(lp223
I54295
aI0
aI2575416
aa(lp224
I54296
aI15
aI2575422
aa(lp225
I54286
aI195
aI2575810
aa(lp226
I54287
aI3
aI2575819
aa(lp227
I54280
aI34
aI2576092
aa(lp228
I54279
aI208
aI2576106
aa(lp229
I54283
aI65
aI2576157
aa(lp230
I54281
aI0
aI2576166
aa(lp231
I54282
aI3
aI2576179
aa(lp232
I54284
aI8
aI2576192
aa(lp233
I54285
aI15
aI2576202
aa(lp234
I54273
aI24
aI2576469
aa(lp235
I54276
aI128
aI2576483
aa(lp236
I54273
aI11
aI2576574
aa(lp237
I54272
aI156
aI2576583
aa(lp238
I65533
aI0
aI2576599
aa(lp239
I54295
aI0
aI2576655
aa(lp240
I54296
aI15
aI2576661
aa(lp241
I54286
aI169
aI2576992
aa(lp242
I54287
aI3
aI2577001
aa(lp243
I54280
aI34
aI2577224
aa(lp244
I54283
aI128
aI2577231
aa(lp245
I54280
aI34
aI2577316
aa(lp246
I54279
aI208
aI2577325
aa(lp247
I54273
aI23
aI2577484
aa(lp248
I54276
aI128
aI2577498
aa(lp249
I54273
aI27
aI2577583
aa(lp250
I54272
aI161
aI2577592
aa(lp251
I65533
aI0
aI2577608
aa(lp252
I54295
aI0
aI2577664
aa(lp253
I54296
aI15
aI2577670
aa(lp254
I54286
aI143
aI2577950
aa(lp255
I54287
aI3
aI2577959
aa(lp256
I54280
aI34
aI2578182
aa(lp257
I54283
aI128
aI2578189
aa(lp258
I54280
aI34
aI2578280
aa(lp259
I54279
aI208
aI2578289
aa(lp260
I54273
aI22
aI2578448
aa(lp261
I54276
aI128
aI2578462
aa(lp262
I54273
aI11
aI2578553
aa(lp263
I54272
aI156
aI2578562
aa(lp264
I65533
aI0
aI2578578
aa(lp265
I54295
aI0
aI2578634
aa(lp266
I54296
aI15
aI2578640
aa(lp267
I54286
aI169
aI2578995
aa(lp268
I54287
aI3
aI2579004
aa(lp269
I54289
aI0
aI2579098
aa(lp270
I54288
aI160
aI2579112
aa(lp271
I54283
aI64
aI2579233
aa(lp272
I54284
aI0
aI2579240
aa(lp273
I54285
aI0
aI2579245
aa(lp274
I54280
aI34
aI2579423
aa(lp275
I54279
aI208
aI2579432
aa(lp276
I54273
aI21
aI2579632
aa(lp277
I54276
aI128
aI2579646
aa(lp278
I54273
aI27
aI2579731
aa(lp279
I54272
aI161
aI2579740
aa(lp280
I65533
aI0
aI2579756
aa(lp281
I54295
aI0
aI2579812
aa(lp282
I54296
aI15
aI2579818
aa(lp283
I54286
aI195
aI2580164
aa(lp284
I54287
aI3
aI2580173
aa(lp285
I54280
aI34
aI2580458
aa(lp286
I54279
aI208
aI2580467
aa(lp287
I54273
aI20
aI2580626
aa(lp288
I54276
aI128
aI2580640
aa(lp289
I54273
aI11
aI2580731
aa(lp290
I54272
aI156
aI2580740
aa(lp291
I65533
aI0
aI2580756
aa(lp292
I54295
aI0
aI2580812
aa(lp293
I54296
aI15
aI2580818
aa(lp294
I54286
aI169
aI2581149
aa(lp295
I54287
aI3
aI2581158
aa(lp296
I54280
aI34
aI2581437
aa(lp297
I54279
aI208
aI2581446
aa(lp298
I54273
aI19
aI2581605
aa(lp299
I54276
aI128
aI2581619
aa(lp300
I54273
aI27
aI2581704
aa(lp301
I54272
aI161
aI2581713
aa(lp302
I65533
aI0
aI2581729
aa(lp303
I54295
aI0
aI2581785
aa(lp304
I54296
aI15
aI2581791
aa(lp305
I54286
aI143
aI2582113
aa(lp306
I54287
aI3
aI2582122
aa(lp307
I54280
aI43
aI2582374
aa(lp308
I54279
aI214
aI2582388
aa(lp309
I54283
aI65
aI2582439
aa(lp310
I54281
aI0
aI2582448
aa(lp311
I54282
aI3
aI2582461
aa(lp312
I54284
aI8
aI2582474
aa(lp313
I54285
aI15
aI2582484
aa(lp314
I54273
aI18
aI2582751
aa(lp315
I54276
aI128
aI2582765
aa(lp316
I54273
aI11
aI2582856
aa(lp317
I54272
aI156
aI2582865
aa(lp318
I65533
aI0
aI2582881
aa(lp319
I54295
aI0
aI2582937
aa(lp320
I54296
aI15
aI2582943
aa(lp321
I54286
aI169
aI2583256
aa(lp322
I54287
aI3
aI2583265
aa(lp323
I54289
aI0
aI2583359
aa(lp324
I54288
aI176
aI2583373
aa(lp325
I54280
aI43
aI2583565
aa(lp326
I54283
aI128
aI2583572
aa(lp327
I54280
aI43
aI2583657
aa(lp328
I54279
aI214
aI2583666
aa(lp329
I54273
aI17
aI2583825
aa(lp330
I54276
aI128
aI2583839
aa(lp331
I54273
aI27
aI2583924
aa(lp332
I54272
aI161
aI2583933
aa(lp333
I65533
aI0
aI2583949
aa(lp334
I54295
aI0
aI2584005
aa(lp335
I54296
aI15
aI2584011
aa(lp336
I54286
aI195
aI2584357
aa(lp337
I54287
aI3
aI2584366
aa(lp338
I54280
aI43
aI2584589
aa(lp339
I54283
aI128
aI2584596
aa(lp340
I54280
aI43
aI2584687
aa(lp341
I54279
aI214
aI2584696
aa(lp342
I54273
aI16
aI2584855
aa(lp343
I54276
aI128
aI2584869
aa(lp344
I54273
aI11
aI2584960
aa(lp345
I54272
aI156
aI2584969
aa(lp346
I65533
aI0
aI2584985
aa(lp347
I65533
aI0
aI2585024
aa(lp348
I54295
aI0
aI2585080
aa(lp349
I54296
aI15
aI2585086
aa(lp350
I54286
aI169
aI2585459
aa(lp351
I54287
aI3
aI2585468
aa(lp352
I54283
aI64
aI2585620
aa(lp353
I54284
aI0
aI2585627
aa(lp354
I54285
aI0
aI2585632
aa(lp355
I54280
aI43
aI2585810
aa(lp356
I54279
aI214
aI2585819
aa(lp357
I54273
aI15
aI2586019
aa(lp358
I54276
aI128
aI2586033
aa(lp359
I54273
aI27
aI2586118
aa(lp360
I54272
aI161
aI2586127
aa(lp361
I65533
aI0
aI2586143
aa(lp362
I54295
aI0
aI2586199
aa(lp363
I54296
aI15
aI2586205
aa(lp364
I54286
aI143
aI2586485
aa(lp365
I54287
aI3
aI2586494
aa(lp366
I54280
aI43
aI2586779
aa(lp367
I54279
aI214
aI2586788
aa(lp368
I54273
aI14
aI2586947
aa(lp369
I54276
aI128
aI2586961
aa(lp370
I54273
aI11
aI2587052
aa(lp371
I54272
aI156
aI2587061
aa(lp372
I65533
aI0
aI2587077
aa(lp373
I54295
aI0
aI2587133
aa(lp374
I54296
aI15
aI2587139
aa(lp375
I54286
aI169
aI2587452
aa(lp376
I54287
aI3
aI2587461
aa(lp377
I54289
aI0
aI2587555
aa(lp378
I54288
aI192
aI2587569
aa(lp379
I54280
aI43
aI2587817
aa(lp380
I54279
aI214
aI2587826
aa(lp381
I54273
aI13
aI2587985
aa(lp382
I54276
aI128
aI2587999
aa(lp383
I54273
aI27
aI2588084
aa(lp384
I54272
aI161
aI2588093
aa(lp385
I65533
aI0
aI2588109
aa(lp386
I54295
aI0
aI2588165
aa(lp387
I54296
aI15
aI2588171
aa(lp388
I54286
aI195
aI2588559
aa(lp389
I54287
aI3
aI2588568
aa(lp390
I54280
aI14
aI2588841
aa(lp391
I54279
aI163
aI2588855
aa(lp392
I54283
aI65
aI2588904
aa(lp393
I54281
aI0
aI2588913
aa(lp394
I54282
aI8
aI2588925
aa(lp395
I54284
aI9
aI2588937
aa(lp396
I54285
aI8
aI2588946
aa(lp397
I54273
aI12
aI2589213
aa(lp398
I54276
aI128
aI2589227
aa(lp399
I54273
aI11
aI2589318
aa(lp400
I54272
aI156
aI2589327
aa(lp401
I65533
aI0
aI2589343
aa(lp402
I54295
aI0
aI2589399
aa(lp403
I54296
aI15
aI2589405
aa(lp404
I54286
aI169
aI2589736
aa(lp405
I54287
aI3
aI2589745
aa(lp406
I54280
aI14
aI2589965
aa(lp407
I54283
aI128
aI2589972
aa(lp408
I54273
aI11
aI2590149
aa(lp409
I54276
aI128
aI2590163
aa(lp410
I54273
aI27
aI2590248
aa(lp411
I54272
aI161
aI2590257
aa(lp412
I65533
aI0
aI2590273
aa(lp413
I54295
aI0
aI2590329
aa(lp414
I54296
aI15
aI2590335
aa(lp415
I54286
aI143
aI2590615
aa(lp416
I54287
aI3
aI2590624
aa(lp417
I54280
aI14
aI2590844
aa(lp418
I54283
aI128
aI2590851
aa(lp419
I54273
aI10
aI2591028
aa(lp420
I54276
aI128
aI2591042
aa(lp421
I54273
aI11
aI2591133
aa(lp422
I54272
aI156
aI2591142
aa(lp423
I65533
aI0
aI2591158
aa(lp424
I54295
aI0
aI2591214
aa(lp425
I54296
aI15
aI2591220
aa(lp426
I54286
aI169
aI2591575
aa(lp427
I54287
aI3
aI2591584
aa(lp428
I54289
aI0
aI2591678
aa(lp429
I54288
aI208
aI2591692
aa(lp430
I54283
aI64
aI2591813
aa(lp431
I54284
aI0
aI2591820
aa(lp432
I54285
aI0
aI2591825
aa(lp433
I54276
aI128
aI2592015
aa(lp434
I54277
aI0
aI2592022
aa(lp435
I54278
aI0
aI2592027
aa(lp436
I54273
aI27
aI2592205
aa(lp437
I54272
aI161
aI2592214
aa(lp438
I65533
aI0
aI2592230
aa(lp439
I54295
aI0
aI2592286
aa(lp440
I54296
aI15
aI2592292
aa(lp441
I54286
aI195
aI2592638
aa(lp442
I54287
aI3
aI2592647
aa(lp443
I54273
aI11
aI2593071
aa(lp444
I54272
aI156
aI2593080
aa(lp445
I65533
aI0
aI2593096
aa(lp446
I54295
aI0
aI2593152
aa(lp447
I54296
aI15
aI2593158
aa(lp448
I54286
aI169
aI2593489
aa(lp449
I54287
aI3
aI2593498
aa(lp450
I54273
aI27
aI2593916
aa(lp451
I54272
aI161
aI2593925
aa(lp452
I65533
aI0
aI2593941
aa(lp453
I65533
aI0
aI2593980
aa(lp454
I54295
aI0
aI2594036
aa(lp455
I54296
aI15
aI2594042
aa(lp456
I54286
aI143
aI2594364
aa(lp457
I54287
aI3
aI2594373
aa(lp458
I54280
aI14
aI2594625
aa(lp459
I54279
aI163
aI2594639
aa(lp460
I54283
aI65
aI2594688
aa(lp461
I54281
aI0
aI2594697
aa(lp462
I54282
aI8
aI2594709
aa(lp463
I54284
aI9
aI2594721
aa(lp464
I54285
aI8
aI2594730
aa(lp465
I54276
aI128
aI2594974
aa(lp466
I54274
aI0
aI2594984
aa(lp467
I54275
aI8
aI2594997
aa(lp468
I54277
aI15
aI2595010
aa(lp469
I54278
aI10
aI2595020
aa(lp470
I65533
aI0
aI2595103
aa(lp471
I54295
aI0
aI2595159
aa(lp472
I54296
aI15
aI2595165
aa(lp473
I54286
aI169
aI2595478
aa(lp474
I54287
aI3
aI2595487
aa(lp475
I54289
aI0
aI2595581
aa(lp476
I54288
aI224
aI2595595
aa(lp477
I54280
aI14
aI2595784
aa(lp478
I54283
aI128
aI2595791
aa(lp479
I54273
aI9
aI2595962
aa(lp480
I54276
aI128
aI2595969
aa(lp481
I54273
aI27
aI2596054
aa(lp482
I54272
aI161
aI2596063
aa(lp483
I65533
aI0
aI2596079
aa(lp484
I54295
aI0
aI2596135
aa(lp485
I54296
aI15
aI2596141
aa(lp486
I54286
aI195
aI2596487
aa(lp487
I54287
aI3
aI2596496
aa(lp488
I54280
aI14
aI2596716
aa(lp489
I54283
aI128
aI2596723
aa(lp490
I54273
aI9
aI2596894
aa(lp491
I54276
aI128
aI2596901
aa(lp492
I54273
aI11
aI2596992
aa(lp493
I54272
aI156
aI2597001
aa(lp494
I65533
aI0
aI2597017
aa(lp495
I54295
aI0
aI2597073
aa(lp496
I54296
aI15
aI2597079
aa(lp497
I54286
aI169
aI2597452
aa(lp498
I54287
aI3
aI2597461
aa(lp499
I54280
aI14
aI2597728
aa(lp500
I54283
aI64
aI2597742
aa(lp501
I54273
aI9
aI2597960
aa(lp502
I54276
aI128
aI2597974
aa(lp503
I54273
aI27
aI2598059
aa(lp504
I54272
aI161
aI2598068
aa(lp505
I65533
aI0
aI2598084
aa(lp506
I54295
aI0
aI2598140
aa(lp507
I54296
aI15
aI2598146
aa(lp508
I54286
aI143
aI2598426
aa(lp509
I54287
aI3
aI2598435
aa(lp510
I54280
aI13
aI2598661
aa(lp511
I54283
aI64
aI2598675
aa(lp512
I54273
aI8
aI2598852
aa(lp513
I54276
aI128
aI2598866
aa(lp514
I54273
aI11
aI2598957
aa(lp515
I54272
aI156
aI2598966
aa(lp516
I65533
aI0
aI2598982
aa(lp517
I54295
aI0
aI2599038
aa(lp518
I54296
aI15
aI2599044
aa(lp519
I54286
aI169
aI2599357
aa(lp520
I54287
aI3
aI2599366
aa(lp521
I54289
aI0
aI2599460
aa(lp522
I54288
aI240
aI2599474
aa(lp523
I54280
aI12
aI2599669
aa(lp524
I54283
aI64
aI2599683
aa(lp525
I54273
aI7
aI2599860
aa(lp526
I54276
aI128
aI2599874
aa(lp527
I54273
aI27
aI2599959
aa(lp528
I54272
aI161
aI2599968
aa(lp529
I65533
aI0
aI2599984
aa(lp530
I54295
aI0
aI2600040
aa(lp531
I54296
aI15
aI2600046
aa(lp532
I54286
aI195
aI2600434
aa(lp533
I54287
aI3
aI2600443
aa(lp534
I54280
aI11
aI2600710
aa(lp535
I54283
aI64
aI2600724
aa(lp536
I54273
aI6
aI2600942
aa(lp537
I54276
aI128
aI2600956
aa(lp538
I54273
aI11
aI2601047
aa(lp539
I54272
aI156
aI2601056
aa(lp540
I65533
aI0
aI2601072
aa(lp541
I54295
aI0
aI2601128
aa(lp542
I54296
aI15
aI2601134
aa(lp543
I54286
aI169
aI2601465
aa(lp544
I54287
aI3
aI2601474
aa(lp545
I54280
aI10
aI2601700
aa(lp546
I54283
aI64
aI2601714
aa(lp547
I54273
aI5
aI2601891
aa(lp548
I54276
aI128
aI2601905
aa(lp549
I54273
aI27
aI2601990
aa(lp550
I54272
aI161
aI2601999
aa(lp551
I65533
aI0
aI2602015
aa(lp552
I54295
aI0
aI2602071
aa(lp553
I54296
aI15
aI2602077
aa(lp554
I54286
aI143
aI2602357
aa(lp555
I54287
aI3
aI2602366
aa(lp556
I54280
aI9
aI2602592
aa(lp557
I54283
aI64
aI2602606
aa(lp558
I54273
aI4
aI2602783
aa(lp559
I54276
aI128
aI2602797
aa(lp560
I54273
aI11
aI2602888
aa(lp561
I54272
aI156
aI2602897
aa(lp562
I65533
aI0
aI2602913
aa(lp563
I65533
aI0
aI2602952
aa(lp564
I54295
aI0
aI2603008
aa(lp565
I54296
aI15
aI2603014
aa(lp566
I54286
aI169
aI2603369
aa(lp567
I54287
aI3
aI2603378
aa(lp568
I54289
aI1
aI2603472
aa(lp569
I54288
aI0
aI2603486
aa(lp570
I54283
aI64
aI2603607
aa(lp571
I54284
aI0
aI2603614
aa(lp572
I54285
aI0
aI2603619
aa(lp573
I54273
aI3
aI2603927
aa(lp574
I54276
aI128
aI2603941
aa(lp575
I54273
aI27
aI2604026
aa(lp576
I54272
aI161
aI2604035
aa(lp577
I65533
aI0
aI2604051
aa(lp578
I54295
aI0
aI2604107
aa(lp579
I54296
aI15
aI2604113
aa(lp580
I54286
aI195
aI2604459
aa(lp581
I54287
aI3
aI2604468
aa(lp582
I54273
aI2
aI2604836
aa(lp583
I54276
aI128
aI2604850
aa(lp584
I54273
aI11
aI2604941
aa(lp585
I54272
aI156
aI2604950
aa(lp586
I65533
aI0
aI2604966
aa(lp587
I54295
aI0
aI2605022
aa(lp588
I54296
aI15
aI2605028
aa(lp589
I54286
aI169
aI2605359
aa(lp590
I54287
aI3
aI2605368
aa(lp591
I54273
aI1
aI2605736
aa(lp592
I54276
aI128
aI2605750
aa(lp593
I54273
aI27
aI2605835
aa(lp594
I54272
aI161
aI2605844
aa(lp595
I65533
aI0
aI2605860
aa(lp596
I54295
aI0
aI2605916
aa(lp597
I54296
aI15
aI2605922
aa(lp598
I54286
aI143
aI2606244
aa(lp599
I54287
aI3
aI2606253
aa(lp600
I54280
aI29
aI2606526
aa(lp601
I54279
aI70
aI2606540
aa(lp602
I54283
aI65
aI2606591
aa(lp603
I54281
aI0
aI2606600
aa(lp604
I54282
aI3
aI2606613
aa(lp605
I54284
aI8
aI2606626
aa(lp606
I54285
aI15
aI2606636
aa(lp607
I54273
aI11
aI2606953
aa(lp608
I54272
aI156
aI2606962
aa(lp609
I65533
aI0
aI2606978
aa(lp610
I54295
aI0
aI2607034
aa(lp611
I54296
aI15
aI2607040
aa(lp612
I54286
aI169
aI2607353
aa(lp613
I54287
aI3
aI2607362
aa(lp614
I54289
aI1
aI2607456
aa(lp615
I54288
aI16
aI2607470
aa(lp616
I54280
aI29
aI2607662
aa(lp617
I54283
aI128
aI2607669
aa(lp618
I54280
aI29
aI2607754
aa(lp619
I54279
aI70
aI2607763
aa(lp620
I54273
aI27
aI2607966
aa(lp621
I54272
aI161
aI2607975
aa(lp622
I65533
aI0
aI2607991
aa(lp623
I54295
aI0
aI2608047
aa(lp624
I54296
aI15
aI2608053
aa(lp625
I54286
aI195
aI2608399
aa(lp626
I54287
aI3
aI2608408
aa(lp627
I54280
aI29
aI2608631
aa(lp628
I54283
aI128
aI2608638
aa(lp629
I54280
aI29
aI2608729
aa(lp630
I54279
aI70
aI2608738
aa(lp631
I54273
aI11
aI2608947
aa(lp632
I54272
aI156
aI2608956
aa(lp633
I65533
aI0
aI2608972
aa(lp634
I54295
aI0
aI2609028
aa(lp635
I54296
aI15
aI2609034
aa(lp636
I54286
aI169
aI2609407
aa(lp637
I54287
aI3
aI2609416
aa(lp638
I54283
aI64
aI2609568
aa(lp639
I54284
aI0
aI2609575
aa(lp640
I54285
aI0
aI2609580
aa(lp641
I54280
aI29
aI2609758
aa(lp642
I54279
aI70
aI2609767
aa(lp643
I54273
aI27
aI2610011
aa(lp644
I54272
aI161
aI2610020
aa(lp645
I65533
aI0
aI2610036
aa(lp646
I54295
aI0
aI2610092
aa(lp647
I54296
aI15
aI2610098
aa(lp648
I54286
aI143
aI2610378
aa(lp649
I54287
aI3
aI2610387
aa(lp650
I54280
aI29
aI2610672
aa(lp651
I54279
aI70
aI2610681
aa(lp652
I54273
aI11
aI2610890
aa(lp653
I54272
aI156
aI2610899
aa(lp654
I65533
aI0
aI2610915
aa(lp655
I54295
aI0
aI2610971
aa(lp656
I54296
aI15
aI2610977
aa(lp657
I54286
aI169
aI2611290
aa(lp658
I54287
aI3
aI2611299
aa(lp659
I54289
aI1
aI2611393
aa(lp660
I54288
aI32
aI2611407
aa(lp661
I54280
aI29
aI2611655
aa(lp662
I54279
aI70
aI2611664
aa(lp663
I54273
aI27
aI2611867
aa(lp664
I54272
aI161
aI2611876
aa(lp665
I65533
aI0
aI2611892
aa(lp666
I65533
aI0
aI2611931
aa(lp667
I54295
aI0
aI2611987
aa(lp668
I54296
aI15
aI2611993
aa(lp669
I54286
aI195
aI2612381
aa(lp670
I54287
aI3
aI2612390
aa(lp671
I54280
aI29
aI2612642
aa(lp672
I54279
aI70
aI2612656
aa(lp673
I54283
aI65
aI2612707
aa(lp674
I54281
aI0
aI2612716
aa(lp675
I54282
aI3
aI2612729
aa(lp676
I54284
aI8
aI2612742
aa(lp677
I54285
aI15
aI2612752
aa(lp678
I54273
aI11
aI2613069
aa(lp679
I54272
aI156
aI2613078
aa(lp680
I65533
aI0
aI2613094
aa(lp681
I54295
aI0
aI2613150
aa(lp682
I54296
aI15
aI2613156
aa(lp683
I54286
aI169
aI2613487
aa(lp684
I54287
aI3
aI2613496
aa(lp685
I54280
aI29
aI2613719
aa(lp686
I54283
aI128
aI2613726
aa(lp687
I54280
aI29
aI2613811
aa(lp688
I54279
aI70
aI2613820
aa(lp689
I54273
aI27
aI2614023
aa(lp690
I54272
aI161
aI2614032
aa(lp691
I65533
aI0
aI2614048
aa(lp692
I54295
aI0
aI2614104
aa(lp693
I54296
aI15
aI2614110
aa(lp694
I54286
aI143
aI2614390
aa(lp695
I54287
aI3
aI2614399
aa(lp696
I54280
aI29
aI2614622
aa(lp697
I54283
aI128
aI2614629
aa(lp698
I54280
aI29
aI2614720
aa(lp699
I54279
aI70
aI2614729
aa(lp700
I54273
aI11
aI2614938
aa(lp701
I54272
aI156
aI2614947
aa(lp702
I65533
aI0
aI2614963
aa(lp703
I54295
aI0
aI2615019
aa(lp704
I54296
aI15
aI2615025
aa(lp705
I54286
aI169
aI2615380
aa(lp706
I54287
aI3
aI2615389
aa(lp707
I54289
aI1
aI2615483
aa(lp708
I54288
aI48
aI2615497
aa(lp709
I54283
aI64
aI2615618
aa(lp710
I54284
aI0
aI2615625
aa(lp711
I54285
aI0
aI2615630
aa(lp712
I54280
aI29
aI2615808
aa(lp713
I54279
aI70
aI2615817
aa(lp714
I54276
aI128
aI2615899
aa(lp715
I54277
aI0
aI2615906
aa(lp716
I54278
aI0
aI2615911
aa(lp717
I54273
aI27
aI2616083
aa(lp718
I54272
aI161
aI2616092
aa(lp719
I65533
aI0
aI2616108
aa(lp720
I54295
aI0
aI2616164
aa(lp721
I54296
aI15
aI2616170
aa(lp722
I54286
aI195
aI2616516
aa(lp723
I54287
aI3
aI2616525
aa(lp724
I54280
aI29
aI2616810
aa(lp725
I54279
aI70
aI2616819
aa(lp726
I54273
aI11
aI2617028
aa(lp727
I54272
aI156
aI2617037
aa(lp728
I65533
aI0
aI2617053
aa(lp729
I54295
aI0
aI2617109
aa(lp730
I54296
aI15
aI2617115
aa(lp731
I54286
aI169
aI2617446
aa(lp732
I54287
aI3
aI2617455
aa(lp733
I54280
aI29
aI2617734
aa(lp734
I54279
aI70
aI2617743
aa(lp735
I54273
aI27
aI2617946
aa(lp736
I54272
aI161
aI2617955
aa(lp737
I65533
aI0
aI2617971
aa(lp738
I54295
aI0
aI2618027
aa(lp739
I54296
aI15
aI2618033
aa(lp740
I54286
aI143
aI2618355
aa(lp741
I54287
aI3
aI2618364
aa(lp742
I54280
aI62
aI2618637
aa(lp743
I54279
aI8
aI2618651
aa(lp744
I54283
aI21
aI2618702
aa(lp745
I54281
aI0
aI2618712
aa(lp746
I54282
aI5
aI2618725
aa(lp747
I54284
aI15
aI2618738
aa(lp748
I54285
aI255
aI2618748
aa(lp749
I54273
aI27
aI2618997
aa(lp750
I54272
aI161
aI2619011
aa(lp751
I54276
aI129
aI2619062
aa(lp752
I54274
aI0
aI2619072
aa(lp753
I54275
aI8
aI2619085
aa(lp754
I54277
aI15
aI2619098
aa(lp755
I54278
aI10
aI2619108
aa(lp756
I65533
aI0
aI2619204
aa(lp757
I54295
aI0
aI2619260
aa(lp758
I54296
aI15
aI2619266
aa(lp759
I54286
aI169
aI2619579
aa(lp760
I54287
aI3
aI2619588
aa(lp761
I54289
aI1
aI2619682
aa(lp762
I54288
aI64
aI2619696
aa(lp763
I54273
aI27
aI2620026
aa(lp764
I54276
aI128
aI2620033
aa(lp765
I54273
aI27
aI2620118
aa(lp766
I54272
aI161
aI2620127
aa(lp767
I65533
aI0
aI2620143
aa(lp768
I54295
aI0
aI2620199
aa(lp769
I54296
aI15
aI2620205
aa(lp770
I54286
aI195
aI2620551
aa(lp771
I54287
aI3
aI2620560
aa(lp772
I54280
aI65
aI2620796
aa(lp773
I54279
aI184
aI2620805
aa(lp774
I54273
aI27
aI2620967
aa(lp775
I54276
aI128
aI2620974
aa(lp776
I54273
aI11
aI2621065
aa(lp777
I54272
aI156
aI2621074
aa(lp778
I65533
aI0
aI2621090
aa(lp779
I65533
aI0
aI2621129
aa(lp780
I54295
aI0
aI2621185
aa(lp781
I54296
aI15
aI2621191
aa(lp782
I54286
aI169
aI2621564
aa(lp783
I54287
aI3
aI2621573
aa(lp784
I54283
aI20
aI2621725
aa(lp785
I54284
aI0
aI2621732
aa(lp786
I54285
aI0
aI2621737
aa(lp787
I54273
aI27
aI2622044
aa(lp788
I54276
aI128
aI2622058
aa(lp789
I54273
aI27
aI2622143
aa(lp790
I54272
aI161
aI2622152
aa(lp791
I65533
aI0
aI2622168
aa(lp792
I54295
aI0
aI2622224
aa(lp793
I54296
aI15
aI2622230
aa(lp794
I54286
aI143
aI2622510
aa(lp795
I54287
aI3
aI2622519
aa(lp796
I54273
aI26
aI2622886
aa(lp797
I54276
aI128
aI2622900
aa(lp798
I54273
aI11
aI2622991
aa(lp799
I54272
aI156
aI2623000
aa(lp800
I65533
aI0
aI2623016
aa(lp801
I54295
aI0
aI2623072
aa(lp802
I54296
aI15
aI2623078
aa(lp803
I54286
aI169
aI2623391
aa(lp804
I54287
aI3
aI2623400
aa(lp805
I54289
aI1
aI2623494
aa(lp806
I54288
aI80
aI2623508
aa(lp807
I54273
aI25
aI2623844
aa(lp808
I54276
aI128
aI2623858
aa(lp809
I54273
aI27
aI2623943
aa(lp810
I54272
aI161
aI2623952
aa(lp811
I65533
aI0
aI2623968
aa(lp812
I54295
aI0
aI2624024
aa(lp813
I54296
aI15
aI2624030
aa(lp814
I54286
aI195
aI2624418
aa(lp815
I54287
aI3
aI2624427
aa(lp816
I54280
aI43
aI2624700
aa(lp817
I54279
aI214
aI2624714
aa(lp818
I54283
aI65
aI2624765
aa(lp819
I54281
aI0
aI2624774
aa(lp820
I54282
aI3
aI2624787
aa(lp821
I54284
aI8
aI2624800
aa(lp822
I54285
aI15
aI2624810
aa(lp823
I54273
aI24
aI2625077
aa(lp824
I54276
aI128
aI2625091
aa(lp825
I54273
aI11
aI2625182
aa(lp826
I54272
aI156
aI2625191
aa(lp827
I65533
aI0
aI2625207
aa(lp828
I54295
aI0
aI2625263
aa(lp829
I54296
aI15
aI2625269
aa(lp830
I54286
aI169
aI2625600
aa(lp831
I54287
aI3
aI2625609
aa(lp832
I54280
aI43
aI2625832
aa(lp833
I54283
aI128
aI2625839
aa(lp834
I54280
aI43
aI2625924
aa(lp835
I54279
aI214
aI2625933
aa(lp836
I54273
aI23
aI2626092
aa(lp837
I54276
aI128
aI2626106
aa(lp838
I54273
aI27
aI2626191
aa(lp839
I54272
aI161
aI2626200
aa(lp840
I65533
aI0
aI2626216
aa(lp841
I54295
aI0
aI2626272
aa(lp842
I54296
aI15
aI2626278
aa(lp843
I54286
aI143
aI2626558
aa(lp844
I54287
aI3
aI2626567
aa(lp845
I54280
aI43
aI2626790
aa(lp846
I54283
aI128
aI2626797
aa(lp847
I54280
aI43
aI2626888
aa(lp848
I54279
aI214
aI2626897
aa(lp849
I54273
aI22
aI2627056
aa(lp850
I54276
aI128
aI2627070
aa(lp851
I54273
aI11
aI2627161
aa(lp852
I54272
aI156
aI2627170
aa(lp853
I65533
aI0
aI2627186
aa(lp854
I54295
aI0
aI2627242
aa(lp855
I54296
aI15
aI2627248
aa(lp856
I54286
aI169
aI2627603
aa(lp857
I54287
aI3
aI2627612
aa(lp858
I54289
aI1
aI2627706
aa(lp859
I54288
aI96
aI2627720
aa(lp860
I54283
aI64
aI2627841
aa(lp861
I54284
aI0
aI2627848
aa(lp862
I54285
aI0
aI2627853
aa(lp863
I54280
aI43
aI2628031
aa(lp864
I54279
aI214
aI2628040
aa(lp865
I54273
aI21
aI2628240
aa(lp866
I54276
aI128
aI2628254
aa(lp867
I54273
aI27
aI2628339
aa(lp868
I54272
aI161
aI2628348
aa(lp869
I65533
aI0
aI2628364
aa(lp870
I54295
aI0
aI2628420
aa(lp871
I54296
aI15
aI2628426
aa(lp872
I54286
aI195
aI2628772
aa(lp873
I54287
aI3
aI2628781
aa(lp874
I54280
aI43
aI2629066
aa(lp875
I54279
aI214
aI2629075
aa(lp876
I54273
aI20
aI2629234
aa(lp877
I54276
aI128
aI2629248
aa(lp878
I54273
aI11
aI2629339
aa(lp879
I54272
aI156
aI2629348
aa(lp880
I65533
aI0
aI2629364
aa(lp881
I54295
aI0
aI2629420
aa(lp882
I54296
aI15
aI2629426
aa(lp883
I54286
aI169
aI2629757
aa(lp884
I54287
aI3
aI2629766
aa(lp885
I54280
aI43
aI2630045
aa(lp886
I54279
aI214
aI2630054
aa(lp887
I54273
aI19
aI2630213
aa(lp888
I54276
aI128
aI2630227
aa(lp889
I54273
aI27
aI2630312
aa(lp890
I54272
aI161
aI2630321
aa(lp891
I65533
aI0
aI2630337
aa(lp892
I65533
aI0
aI2630376
aa(lp893
I54295
aI0
aI2630432
aa(lp894
I54296
aI15
aI2630438
aa(lp895
I54286
aI143
aI2630760
aa(lp896
I54287
aI3
aI2630769
aa(lp897
I54280
aI39
aI2631021
aa(lp898
I54279
aI16
aI2631035
aa(lp899
I54283
aI65
aI2631086
aa(lp900
I54281
aI0
aI2631095
aa(lp901
I54282
aI3
aI2631108
aa(lp902
I54284
aI8
aI2631121
aa(lp903
I54285
aI15
aI2631131
aa(lp904
I54273
aI18
aI2631398
aa(lp905
I54276
aI128
aI2631412
aa(lp906
I54273
aI11
aI2631503
aa(lp907
I54272
aI156
aI2631512
aa(lp908
I65533
aI0
aI2631528
aa(lp909
I54295
aI0
aI2631584
aa(lp910
I54296
aI15
aI2631590
aa(lp911
I54286
aI169
aI2631903
aa(lp912
I54287
aI3
aI2631912
aa(lp913
I54289
aI1
aI2632006
aa(lp914
I54288
aI112
aI2632020
aa(lp915
I54280
aI39
aI2632212
aa(lp916
I54283
aI128
aI2632219
aa(lp917
I54280
aI39
aI2632304
aa(lp918
I54279
aI16
aI2632313
aa(lp919
I54273
aI17
aI2632472
aa(lp920
I54276
aI128
aI2632486
aa(lp921
I54273
aI27
aI2632571
aa(lp922
I54272
aI161
aI2632580
aa(lp923
I65533
aI0
aI2632596
aa(lp924
I54295
aI0
aI2632652
aa(lp925
I54296
aI15
aI2632658
aa(lp926
I54286
aI195
aI2633004
aa(lp927
I54287
aI3
aI2633013
aa(lp928
I54280
aI39
aI2633236
aa(lp929
I54283
aI128
aI2633243
aa(lp930
I54280
aI39
aI2633334
aa(lp931
I54279
aI16
aI2633343
aa(lp932
I54273
aI16
aI2633502
aa(lp933
I54276
aI128
aI2633516
aa(lp934
I54273
aI11
aI2633607
aa(lp935
I54272
aI156
aI2633616
aa(lp936
I65533
aI0
aI2633632
aa(lp937
I54295
aI0
aI2633688
aa(lp938
I54296
aI15
aI2633694
aa(lp939
I54286
aI169
aI2634067
aa(lp940
I54287
aI3
aI2634076
aa(lp941
I54283
aI64
aI2634228
aa(lp942
I54284
aI0
aI2634235
aa(lp943
I54285
aI0
aI2634240
aa(lp944
I54280
aI39
aI2634418
aa(lp945
I54279
aI16
aI2634427
aa(lp946
I54273
aI15
aI2634627
aa(lp947
I54276
aI128
aI2634641
aa(lp948
I54273
aI27
aI2634726
aa(lp949
I54272
aI161
aI2634735
aa(lp950
I65533
aI0
aI2634751
aa(lp951
I54295
aI0
aI2634807
aa(lp952
I54296
aI15
aI2634813
aa(lp953
I54286
aI143
aI2635093
aa(lp954
I54287
aI3
aI2635102
aa(lp955
I54280
aI39
aI2635387
aa(lp956
I54279
aI16
aI2635396
aa(lp957
I54273
aI14
aI2635555
aa(lp958
I54276
aI128
aI2635569
aa(lp959
I54273
aI11
aI2635660
aa(lp960
I54272
aI156
aI2635669
aa(lp961
I65533
aI0
aI2635685
aa(lp962
I54295
aI0
aI2635741
aa(lp963
I54296
aI15
aI2635747
aa(lp964
I54286
aI169
aI2636060
aa(lp965
I54287
aI3
aI2636069
aa(lp966
I54289
aI1
aI2636163
aa(lp967
I54288
aI128
aI2636177
aa(lp968
I54280
aI39
aI2636425
aa(lp969
I54279
aI16
aI2636434
aa(lp970
I54273
aI13
aI2636593
aa(lp971
I54276
aI128
aI2636607
aa(lp972
I54273
aI27
aI2636692
aa(lp973
I54272
aI161
aI2636701
aa(lp974
I65533
aI0
aI2636717
aa(lp975
I54295
aI0
aI2636773
aa(lp976
I54296
aI15
aI2636779
aa(lp977
I54286
aI195
aI2637167
aa(lp978
I54287
aI3
aI2637176
aa(lp979
I54280
aI34
aI2637428
aa(lp980
I54279
aI208
aI2637442
aa(lp981
I54283
aI65
aI2637493
aa(lp982
I54281
aI0
aI2637502
aa(lp983
I54282
aI3
aI2637515
aa(lp984
I54284
aI8
aI2637528
aa(lp985
I54285
aI15
aI2637538
aa(lp986
I54273
aI12
aI2637818
aa(lp987
I54276
aI128
aI2637832
aa(lp988
I54273
aI11
aI2637923
aa(lp989
I54272
aI156
aI2637932
aa(lp990
I65533
aI0
aI2637948
aa(lp991
I54295
aI0
aI2638004
aa(lp992
I54296
aI15
aI2638010
aa(lp993
I54286
aI169
aI2638341
aa(lp994
I54287
aI3
aI2638350
aa(lp995
I54280
aI34
aI2638573
aa(lp996
I54283
aI128
aI2638580
aa(lp997
I54280
aI34
aI2638665
aa(lp998
I54279
aI208
aI2638674
aa(lp999
I54273
aI11
aI2638833
aa(lp1000
I54276
aI128
aI2638847
aa(lp1001
I54273
aI27
aI2638932
aa(lp1002
I54272
aI161
aI2638941
aa(lp1003
I65533
aI0
aI2638957
aa(lp1004
I54295
aI0
aI2639013
aa(lp1005
I54296
aI15
aI2639019
aa(lp1006
I54286
aI143
aI2639299
aa(lp1007
I54287
aI3
aI2639308
aa(lp1008
I54280
aI34
aI2639531
aa(lp1009
I54283
aI128
aI2639538
aa(lp1010
I54280
aI34
aI2639629
aa(lp1011
I54279
aI208
aI2639638
aa(lp1012
I54273
aI10
aI2639797
aa(lp1013
I54276
aI128
aI2639811
aa(lp1014
I54273
aI11
aI2639902
aa(lp1015
I54272
aI156
aI2639911
aa(lp1016
I65533
aI0
aI2639927
aa(lp1017
I65533
aI0
aI2639966
aa(lp1018
I54295
aI0
aI2640022
aa(lp1019
I54296
aI15
aI2640028
aa(lp1020
I54286
aI169
aI2640383
aa(lp1021
I54287
aI3
aI2640392
aa(lp1022
I54289
aI1
aI2640486
aa(lp1023
I54288
aI144
aI2640500
aa(lp1024
I54283
aI64
aI2640621
aa(lp1025
I54284
aI0
aI2640628
aa(lp1026
I54285
aI0
aI2640633
aa(lp1027
I54280
aI34
aI2640811
aa(lp1028
I54279
aI208
aI2640820
aa(lp1029
I54276
aI128
aI2640902
aa(lp1030
I54277
aI0
aI2640909
aa(lp1031
I54278
aI0
aI2640914
aa(lp1032
I54273
aI27
aI2641092
aa(lp1033
I54272
aI161
aI2641101
aa(lp1034
I65533
aI0
aI2641117
aa(lp1035
I54295
aI0
aI2641173
aa(lp1036
I54296
aI15
aI2641179
aa(lp1037
I54286
aI195
aI2641525
aa(lp1038
I54287
aI3
aI2641534
aa(lp1039
I54280
aI34
aI2641819
aa(lp1040
I54279
aI208
aI2641828
aa(lp1041
I54273
aI11
aI2642043
aa(lp1042
I54272
aI156
aI2642052
aa(lp1043
I65533
aI0
aI2642068
aa(lp1044
I54295
aI0
aI2642124
aa(lp1045
I54296
aI15
aI2642130
aa(lp1046
I54286
aI169
aI2642461
aa(lp1047
I54287
aI3
aI2642470
aa(lp1048
I54280
aI34
aI2642749
aa(lp1049
I54279
aI208
aI2642758
aa(lp1050
I54273
aI27
aI2642967
aa(lp1051
I54272
aI161
aI2642976
aa(lp1052
I65533
aI0
aI2642992
aa(lp1053
I54295
aI0
aI2643048
aa(lp1054
I54296
aI15
aI2643054
aa(lp1055
I54287
aI3
aI2643264
aa(lp1056
I54286
aI169
aI2643278
aa(lp1057
I54290
aI65
aI2643329
aa(lp1058
I54288
aI160
aI2643339
aa(lp1059
I54289
aI1
aI2643352
aa(lp1060
I54291
aI13
aI2643365
aa(lp1061
I54292
aI255
aI2643375
aa(lp1062
I54280
aI14
aI2643658
aa(lp1063
I54279
aI163
aI2643672
aa(lp1064
I54283
aI65
aI2643721
aa(lp1065
I54281
aI0
aI2643730
aa(lp1066
I54282
aI8
aI2643742
aa(lp1067
I54284
aI9
aI2643754
aa(lp1068
I54285
aI8
aI2643763
aa(lp1069
I54276
aI128
aI2644007
aa(lp1070
I54274
aI0
aI2644017
aa(lp1071
I54275
aI8
aI2644030
aa(lp1072
I54277
aI15
aI2644043
aa(lp1073
I54278
aI10
aI2644053
aa(lp1074
I65533
aI0
aI2644136
aa(lp1075
I54295
aI0
aI2644192
aa(lp1076
I54296
aI15
aI2644198
aa(lp1077
I54286
aI116
aI2644462
aa(lp1078
I54287
aI3
aI2644471
aa(lp1079
I54289
aI1
aI2644565
aa(lp1080
I54288
aI176
aI2644579
aa(lp1081
I54280
aI14
aI2644768
aa(lp1082
I54283
aI128
aI2644775
aa(lp1083
I54273
aI9
aI2644946
aa(lp1084
I54276
aI128
aI2644953
aa(lp1085
I54273
aI27
aI2645038
aa(lp1086
I54272
aI161
aI2645047
aa(lp1087
I65533
aI0
aI2645063
aa(lp1088
I54295
aI0
aI2645119
aa(lp1089
I54296
aI15
aI2645125
aa(lp1090
I54286
aI169
aI2645422
aa(lp1091
I54287
aI3
aI2645431
aa(lp1092
I54289
aI1
aI2645525
aa(lp1093
I54288
aI192
aI2645539
aa(lp1094
I54280
aI14
aI2645728
aa(lp1095
I54283
aI128
aI2645735
aa(lp1096
I54273
aI9
aI2645906
aa(lp1097
I54276
aI128
aI2645913
aa(lp1098
I54273
aI11
aI2646004
aa(lp1099
I54272
aI156
aI2646013
aa(lp1100
I65533
aI0
aI2646029
aa(lp1101
I54295
aI0
aI2646085
aa(lp1102
I54296
aI15
aI2646091
aa(lp1103
I54286
aI222
aI2646469
aa(lp1104
I54287
aI3
aI2646478
aa(lp1105
I54289
aI1
aI2646572
aa(lp1106
I54288
aI208
aI2646586
aa(lp1107
I54280
aI14
aI2646822
aa(lp1108
I54283
aI64
aI2646836
aa(lp1109
I54273
aI9
aI2647054
aa(lp1110
I54276
aI128
aI2647068
aa(lp1111
I54273
aI27
aI2647153
aa(lp1112
I54272
aI161
aI2647162
aa(lp1113
I65533
aI0
aI2647178
aa(lp1114
I54295
aI0
aI2647234
aa(lp1115
I54296
aI15
aI2647240
aa(lp1116
I54286
aI169
aI2647555
aa(lp1117
I54287
aI3
aI2647564
aa(lp1118
I54289
aI1
aI2647658
aa(lp1119
I54288
aI224
aI2647672
aa(lp1120
I54280
aI13
aI2647867
aa(lp1121
I54283
aI64
aI2647881
aa(lp1122
I54273
aI8
aI2648058
aa(lp1123
I54276
aI128
aI2648072
aa(lp1124
I54273
aI11
aI2648163
aa(lp1125
I54272
aI156
aI2648172
aa(lp1126
I65533
aI0
aI2648188
aa(lp1127
I54295
aI0
aI2648244
aa(lp1128
I54296
aI15
aI2648250
aa(lp1129
I54286
aI116
aI2648514
aa(lp1130
I54287
aI3
aI2648523
aa(lp1131
I54289
aI1
aI2648617
aa(lp1132
I54288
aI240
aI2648631
aa(lp1133
I54280
aI12
aI2648826
aa(lp1134
I54283
aI64
aI2648840
aa(lp1135
I54273
aI7
aI2649017
aa(lp1136
I54276
aI128
aI2649031
aa(lp1137
I54273
aI27
aI2649116
aa(lp1138
I54272
aI161
aI2649125
aa(lp1139
I65533
aI0
aI2649141
aa(lp1140
I65533
aI0
aI2649180
aa(lp1141
I54295
aI0
aI2649236
aa(lp1142
I54296
aI15
aI2649242
aa(lp1143
I54286
aI169
aI2649587
aa(lp1144
I54287
aI3
aI2649596
aa(lp1145
I54289
aI2
aI2649690
aa(lp1146
I54288
aI0
aI2649704
aa(lp1147
I54280
aI11
aI2649940
aa(lp1148
I54283
aI64
aI2649954
aa(lp1149
I54273
aI6
aI2650172
aa(lp1150
I54276
aI128
aI2650186
aa(lp1151
I54273
aI11
aI2650277
aa(lp1152
I54272
aI156
aI2650286
aa(lp1153
I65533
aI0
aI2650302
aa(lp1154
I54295
aI0
aI2650358
aa(lp1155
I54296
aI15
aI2650364
aa(lp1156
I54286
aI222
aI2650694
aa(lp1157
I54287
aI3
aI2650703
aa(lp1158
I54289
aI2
aI2650797
aa(lp1159
I54288
aI16
aI2650811
aa(lp1160
I54280
aI10
aI2651006
aa(lp1161
I54283
aI64
aI2651020
aa(lp1162
I54273
aI5
aI2651197
aa(lp1163
I54276
aI128
aI2651211
aa(lp1164
I54273
aI27
aI2651296
aa(lp1165
I54272
aI161
aI2651305
aa(lp1166
I65533
aI0
aI2651321
aa(lp1167
I54295
aI0
aI2651377
aa(lp1168
I54296
aI15
aI2651383
aa(lp1169
I54286
aI169
aI2651698
aa(lp1170
I54287
aI3
aI2651707
aa(lp1171
I54289
aI2
aI2651801
aa(lp1172
I54288
aI32
aI2651815
aa(lp1173
I54280
aI9
aI2652010
aa(lp1174
I54283
aI64
aI2652024
aa(lp1175
I54273
aI4
aI2652201
aa(lp1176
I54276
aI128
aI2652215
aa(lp1177
I54273
aI11
aI2652306
aa(lp1178
I54272
aI156
aI2652315
aa(lp1179
I65533
aI0
aI2652331
aa(lp1180
I54295
aI0
aI2652387
aa(lp1181
I54296
aI15
aI2652393
aa(lp1182
I54286
aI116
aI2652705
aa(lp1183
I54287
aI3
aI2652714
aa(lp1184
I54289
aI2
aI2652808
aa(lp1185
I54288
aI48
aI2652822
aa(lp1186
I54283
aI64
aI2652943
aa(lp1187
I54284
aI0
aI2652950
aa(lp1188
I54285
aI0
aI2652955
aa(lp1189
I54273
aI3
aI2653263
aa(lp1190
I54276
aI128
aI2653277
aa(lp1191
I54273
aI27
aI2653362
aa(lp1192
I54272
aI161
aI2653371
aa(lp1193
I65533
aI0
aI2653387
aa(lp1194
I54295
aI0
aI2653443
aa(lp1195
I54296
aI15
aI2653449
aa(lp1196
I54286
aI169
aI2653746
aa(lp1197
I54287
aI3
aI2653755
aa(lp1198
I54289
aI2
aI2653849
aa(lp1199
I54288
aI64
aI2653863
aa(lp1200
I54273
aI2
aI2654200
aa(lp1201
I54276
aI128
aI2654214
aa(lp1202
I54273
aI11
aI2654305
aa(lp1203
I54272
aI156
aI2654314
aa(lp1204
I65533
aI0
aI2654330
aa(lp1205
I54295
aI0
aI2654386
aa(lp1206
I54296
aI15
aI2654392
aa(lp1207
I54286
aI222
aI2654722
aa(lp1208
I54287
aI3
aI2654731
aa(lp1209
I54289
aI2
aI2654825
aa(lp1210
I54288
aI80
aI2654839
aa(lp1211
I54273
aI1
aI2655176
aa(lp1212
I54276
aI128
aI2655190
aa(lp1213
I54273
aI27
aI2655275
aa(lp1214
I54272
aI161
aI2655284
aa(lp1215
I65533
aI0
aI2655300
aa(lp1216
I54295
aI0
aI2655356
aa(lp1217
I54296
aI15
aI2655362
aa(lp1218
I54286
aI169
aI2655725
aa(lp1219
I54287
aI3
aI2655734
aa(lp1220
I54289
aI2
aI2655828
aa(lp1221
I54288
aI96
aI2655842
aa(lp1222
I54280
aI21
aI2656084
aa(lp1223
I54279
aI235
aI2656098
aa(lp1224
I54283
aI65
aI2656149
aa(lp1225
I54281
aI0
aI2656158
aa(lp1226
I54282
aI3
aI2656171
aa(lp1227
I54284
aI8
aI2656184
aa(lp1228
I54285
aI15
aI2656194
aa(lp1229
I54273
aI11
aI2656511
aa(lp1230
I54272
aI156
aI2656520
aa(lp1231
I65533
aI0
aI2656536
aa(lp1232
I54295
aI0
aI2656592
aa(lp1233
I54296
aI15
aI2656598
aa(lp1234
I54286
aI116
aI2656862
aa(lp1235
I54287
aI3
aI2656871
aa(lp1236
I54289
aI2
aI2656965
aa(lp1237
I54288
aI112
aI2656979
aa(lp1238
I54280
aI21
aI2657171
aa(lp1239
I54283
aI128
aI2657178
aa(lp1240
I54280
aI21
aI2657263
aa(lp1241
I54279
aI235
aI2657272
aa(lp1242
I54273
aI27
aI2657475
aa(lp1243
I54272
aI161
aI2657484
aa(lp1244
I65533
aI0
aI2657500
aa(lp1245
I54295
aI0
aI2657556
aa(lp1246
I54296
aI15
aI2657562
aa(lp1247
I54286
aI169
aI2657859
aa(lp1248
I54287
aI3
aI2657868
aa(lp1249
I54289
aI2
aI2657962
aa(lp1250
I54288
aI128
aI2657976
aa(lp1251
I54280
aI21
aI2658168
aa(lp1252
I54283
aI128
aI2658175
aa(lp1253
I54280
aI21
aI2658266
aa(lp1254
I54279
aI235
aI2658275
aa(lp1255
I54273
aI11
aI2658484
aa(lp1256
I54272
aI156
aI2658493
aa(lp1257
I65533
aI0
aI2658509
aa(lp1258
I65533
aI0
aI2658548
aa(lp1259
I54295
aI0
aI2658604
aa(lp1260
I54296
aI15
aI2658610
aa(lp1261
I54286
aI222
aI2658988
aa(lp1262
I54287
aI3
aI2658997
aa(lp1263
I54289
aI2
aI2659091
aa(lp1264
I54288
aI144
aI2659105
aa(lp1265
I54283
aI64
aI2659226
aa(lp1266
I54284
aI0
aI2659233
aa(lp1267
I54285
aI0
aI2659238
aa(lp1268
I54280
aI21
aI2659416
aa(lp1269
I54279
aI235
aI2659425
aa(lp1270
I54273
aI27
aI2659669
aa(lp1271
I54272
aI161
aI2659678
aa(lp1272
I65533
aI0
aI2659694
aa(lp1273
I54295
aI0
aI2659750
aa(lp1274
I54296
aI15
aI2659756
aa(lp1275
I54286
aI169
aI2660071
aa(lp1276
I54287
aI3
aI2660080
aa(lp1277
I54289
aI2
aI2660174
aa(lp1278
I54288
aI160
aI2660188
aa(lp1279
I54280
aI21
aI2660442
aa(lp1280
I54279
aI235
aI2660451
aa(lp1281
I54273
aI11
aI2660660
aa(lp1282
I54272
aI156
aI2660669
aa(lp1283
I65533
aI0
aI2660685
aa(lp1284
I54295
aI0
aI2660741
aa(lp1285
I54296
aI15
aI2660747
aa(lp1286
I54286
aI116
aI2661011
aa(lp1287
I54287
aI3
aI2661020
aa(lp1288
I54289
aI2
aI2661114
aa(lp1289
I54288
aI176
aI2661128
aa(lp1290
I54280
aI21
aI2661376
aa(lp1291
I54279
aI235
aI2661385
aa(lp1292
I54273
aI27
aI2661588
aa(lp1293
I54272
aI161
aI2661597
aa(lp1294
I65533
aI0
aI2661613
aa(lp1295
I54295
aI0
aI2661669
aa(lp1296
I54296
aI15
aI2661675
aa(lp1297
I54286
aI169
aI2662020
aa(lp1298
I54287
aI3
aI2662029
aa(lp1299
I54289
aI2
aI2662123
aa(lp1300
I54288
aI192
aI2662137
aa(lp1301
I54280
aI29
aI2662358
aa(lp1302
I54279
aI70
aI2662372
aa(lp1303
I54283
aI65
aI2662423
aa(lp1304
I54281
aI0
aI2662432
aa(lp1305
I54282
aI3
aI2662445
aa(lp1306
I54284
aI8
aI2662458
aa(lp1307
I54285
aI15
aI2662468
aa(lp1308
I54273
aI11
aI2662785
aa(lp1309
I54272
aI156
aI2662794
aa(lp1310
I65533
aI0
aI2662810
aa(lp1311
I54295
aI0
aI2662866
aa(lp1312
I54296
aI15
aI2662872
aa(lp1313
I54286
aI222
aI2663202
aa(lp1314
I54287
aI3
aI2663211
aa(lp1315
I54289
aI2
aI2663305
aa(lp1316
I54288
aI208
aI2663319
aa(lp1317
I54280
aI29
aI2663511
aa(lp1318
I54283
aI128
aI2663518
aa(lp1319
I54280
aI29
aI2663603
aa(lp1320
I54279
aI70
aI2663612
aa(lp1321
I54273
aI27
aI2663815
aa(lp1322
I54272
aI161
aI2663824
aa(lp1323
I65533
aI0
aI2663840
aa(lp1324
I54295
aI0
aI2663896
aa(lp1325
I54296
aI15
aI2663902
aa(lp1326
I54286
aI169
aI2664217
aa(lp1327
I54287
aI3
aI2664226
aa(lp1328
I54289
aI2
aI2664320
aa(lp1329
I54288
aI224
aI2664334
aa(lp1330
I54280
aI29
aI2664526
aa(lp1331
I54283
aI128
aI2664533
aa(lp1332
I54280
aI29
aI2664624
aa(lp1333
I54279
aI70
aI2664633
aa(lp1334
I54273
aI11
aI2664842
aa(lp1335
I54272
aI156
aI2664851
aa(lp1336
I65533
aI0
aI2664867
aa(lp1337
I54295
aI0
aI2664923
aa(lp1338
I54296
aI15
aI2664929
aa(lp1339
I54286
aI116
aI2665241
aa(lp1340
I54287
aI3
aI2665250
aa(lp1341
I54289
aI2
aI2665344
aa(lp1342
I54288
aI240
aI2665358
aa(lp1343
I54283
aI64
aI2665479
aa(lp1344
I54284
aI0
aI2665486
aa(lp1345
I54285
aI0
aI2665491
aa(lp1346
I54280
aI29
aI2665669
aa(lp1347
I54279
aI70
aI2665678
aa(lp1348
I54276
aI128
aI2665760
aa(lp1349
I54277
aI0
aI2665767
aa(lp1350
I54278
aI0
aI2665772
aa(lp1351
I54273
aI27
aI2665944
aa(lp1352
I54272
aI161
aI2665953
aa(lp1353
I65533
aI0
aI2665969
aa(lp1354
I54295
aI0
aI2666025
aa(lp1355
I54296
aI15
aI2666031
aa(lp1356
I54286
aI169
aI2666328
aa(lp1357
I54287
aI3
aI2666337
aa(lp1358
I54289
aI3
aI2666431
aa(lp1359
I54288
aI0
aI2666445
aa(lp1360
I54280
aI29
aI2666699
aa(lp1361
I54279
aI70
aI2666708
aa(lp1362
I54273
aI11
aI2666917
aa(lp1363
I54272
aI156
aI2666926
aa(lp1364
I65533
aI0
aI2666942
aa(lp1365
I54295
aI0
aI2666998
aa(lp1366
I54296
aI15
aI2667004
aa(lp1367
I54286
aI222
aI2667334
aa(lp1368
I54287
aI3
aI2667343
aa(lp1369
I54289
aI3
aI2667437
aa(lp1370
I54288
aI16
aI2667451
aa(lp1371
I54280
aI29
aI2667699
aa(lp1372
I54279
aI70
aI2667708
aa(lp1373
I54273
aI27
aI2667911
aa(lp1374
I54272
aI161
aI2667920
aa(lp1375
I65533
aI0
aI2667936
aa(lp1376
I65533
aI0
aI2667975
aa(lp1377
I54295
aI0
aI2668031
aa(lp1378
I54296
aI15
aI2668037
aa(lp1379
I54286
aI169
aI2668400
aa(lp1380
I54287
aI3
aI2668409
aa(lp1381
I54289
aI3
aI2668503
aa(lp1382
I54288
aI32
aI2668517
aa(lp1383
I54280
aI58
aI2668759
aa(lp1384
I54279
aI140
aI2668773
aa(lp1385
I54283
aI21
aI2668824
aa(lp1386
I54281
aI0
aI2668834
aa(lp1387
I54282
aI5
aI2668847
aa(lp1388
I54284
aI15
aI2668860
aa(lp1389
I54285
aI255
aI2668870
aa(lp1390
I54273
aI27
aI2669140
aa(lp1391
I54272
aI161
aI2669154
aa(lp1392
I54276
aI129
aI2669205
aa(lp1393
I54274
aI0
aI2669215
aa(lp1394
I54275
aI8
aI2669228
aa(lp1395
I54277
aI15
aI2669241
aa(lp1396
I54278
aI10
aI2669251
aa(lp1397
I65533
aI0
aI2669334
aa(lp1398
I54295
aI0
aI2669390
aa(lp1399
I54296
aI15
aI2669396
aa(lp1400
I54286
aI116
aI2669660
aa(lp1401
I54287
aI3
aI2669669
aa(lp1402
I54289
aI3
aI2669763
aa(lp1403
I54288
aI48
aI2669777
aa(lp1404
I54273
aI27
aI2670107
aa(lp1405
I54276
aI128
aI2670114
aa(lp1406
I54273
aI27
aI2670199
aa(lp1407
I54272
aI161
aI2670208
aa(lp1408
I65533
aI0
aI2670224
aa(lp1409
I54295
aI0
aI2670280
aa(lp1410
I54296
aI15
aI2670286
aa(lp1411
I54286
aI169
aI2670583
aa(lp1412
I54287
aI3
aI2670592
aa(lp1413
I54289
aI3
aI2670686
aa(lp1414
I54288
aI64
aI2670700
aa(lp1415
I54280
aI62
aI2670905
aa(lp1416
I54279
aI8
aI2670914
aa(lp1417
I54273
aI27
aI2671076
aa(lp1418
I54276
aI128
aI2671083
aa(lp1419
I54273
aI11
aI2671174
aa(lp1420
I54272
aI156
aI2671183
aa(lp1421
I65533
aI0
aI2671199
aa(lp1422
I54295
aI0
aI2671255
aa(lp1423
I54296
aI15
aI2671261
aa(lp1424
I54286
aI222
aI2671639
aa(lp1425
I54287
aI3
aI2671648
aa(lp1426
I54289
aI3
aI2671742
aa(lp1427
I54288
aI80
aI2671756
aa(lp1428
I54283
aI20
aI2671877
aa(lp1429
I54284
aI0
aI2671884
aa(lp1430
I54285
aI0
aI2671889
aa(lp1431
I54273
aI27
aI2672196
aa(lp1432
I54276
aI128
aI2672210
aa(lp1433
I54273
aI27
aI2672295
aa(lp1434
I54272
aI161
aI2672304
aa(lp1435
I65533
aI0
aI2672320
aa(lp1436
I54295
aI0
aI2672376
aa(lp1437
I54296
aI15
aI2672382
aa(lp1438
I54286
aI169
aI2672697
aa(lp1439
I54287
aI3
aI2672706
aa(lp1440
I54289
aI3
aI2672800
aa(lp1441
I54288
aI96
aI2672814
aa(lp1442
I54273
aI26
aI2673150
aa(lp1443
I54276
aI128
aI2673164
aa(lp1444
I54273
aI11
aI2673255
aa(lp1445
I54272
aI156
aI2673264
aa(lp1446
I65533
aI0
aI2673280
aa(lp1447
I54295
aI0
aI2673336
aa(lp1448
I54296
aI15
aI2673342
aa(lp1449
I54286
aI116
aI2673606
aa(lp1450
I54287
aI3
aI2673615
aa(lp1451
I54289
aI3
aI2673709
aa(lp1452
I54288
aI112
aI2673723
aa(lp1453
I54273
aI25
aI2674059
aa(lp1454
I54276
aI128
aI2674073
aa(lp1455
I54273
aI27
aI2674158
aa(lp1456
I54272
aI161
aI2674167
aa(lp1457
I65533
aI0
aI2674183
aa(lp1458
I54295
aI0
aI2674239
aa(lp1459
I54296
aI15
aI2674245
aa(lp1460
I54286
aI169
aI2674590
aa(lp1461
I54287
aI3
aI2674599
aa(lp1462
I54289
aI3
aI2674693
aa(lp1463
I54288
aI128
aI2674707
aa(lp1464
I54280
aI34
aI2674949
aa(lp1465
I54279
aI208
aI2674963
aa(lp1466
I54283
aI65
aI2675014
aa(lp1467
I54281
aI0
aI2675023
aa(lp1468
I54282
aI3
aI2675036
aa(lp1469
I54284
aI8
aI2675049
aa(lp1470
I54285
aI15
aI2675059
aa(lp1471
I54273
aI24
aI2675326
aa(lp1472
I54276
aI128
aI2675340
aa(lp1473
I54273
aI11
aI2675431
aa(lp1474
I54272
aI156
aI2675440
aa(lp1475
I65533
aI0
aI2675456
aa(lp1476
I54295
aI0
aI2675512
aa(lp1477
I54296
aI15
aI2675518
aa(lp1478
I54286
aI222
aI2675848
aa(lp1479
I54287
aI3
aI2675857
aa(lp1480
I54289
aI3
aI2675951
aa(lp1481
I54288
aI144
aI2675965
aa(lp1482
I54280
aI34
aI2676157
aa(lp1483
I54283
aI128
aI2676164
aa(lp1484
I54280
aI34
aI2676249
aa(lp1485
I54279
aI208
aI2676258
aa(lp1486
I54273
aI23
aI2676417
aa(lp1487
I54276
aI128
aI2676431
aa(lp1488
I54273
aI27
aI2676516
aa(lp1489
I54272
aI161
aI2676525
aa(lp1490
I65533
aI0
aI2676541
aa(lp1491
I54295
aI0
aI2676597
aa(lp1492
I54296
aI15
aI2676603
aa(lp1493
I54286
aI169
aI2676918
aa(lp1494
I54287
aI3
aI2676927
aa(lp1495
I54289
aI3
aI2677021
aa(lp1496
I54288
aI160
aI2677035
aa(lp1497
I54280
aI34
aI2677227
aa(lp1498
I54283
aI128
aI2677234
aa(lp1499
I54280
aI34
aI2677325
aa(lp1500
I54279
aI208
aI2677334
aa(lp1501
I54273
aI22
aI2677493
aa(lp1502
I54276
aI128
aI2677507
aa(lp1503
I54273
aI11
aI2677598
aa(lp1504
I54272
aI156
aI2677607
aa(lp1505
I65533
aI0
aI2677623
aa(lp1506
I65533
aI0
aI2677662
aa(lp1507
I54295
aI0
aI2677718
aa(lp1508
I54296
aI15
aI2677724
aa(lp1509
I54286
aI116
aI2678036
aa(lp1510
I54287
aI3
aI2678045
aa(lp1511
I54289
aI3
aI2678139
aa(lp1512
I54288
aI176
aI2678153
aa(lp1513
I54283
aI64
aI2678274
aa(lp1514
I54284
aI0
aI2678281
aa(lp1515
I54285
aI0
aI2678286
aa(lp1516
I54280
aI34
aI2678464
aa(lp1517
I54279
aI208
aI2678473
aa(lp1518
I54273
aI21
aI2678673
aa(lp1519
I54276
aI128
aI2678687
aa(lp1520
I54273
aI27
aI2678772
aa(lp1521
I54272
aI161
aI2678781
aa(lp1522
I65533
aI0
aI2678797
aa(lp1523
I54295
aI0
aI2678853
aa(lp1524
I54296
aI15
aI2678859
aa(lp1525
I54286
aI169
aI2679156
aa(lp1526
I54287
aI3
aI2679165
aa(lp1527
I54289
aI3
aI2679259
aa(lp1528
I54288
aI192
aI2679273
aa(lp1529
I54280
aI34
aI2679527
aa(lp1530
I54279
aI208
aI2679536
aa(lp1531
I54273
aI20
aI2679695
aa(lp1532
I54276
aI128
aI2679709
aa(lp1533
I54273
aI11
aI2679800
aa(lp1534
I54272
aI156
aI2679809
aa(lp1535
I65533
aI0
aI2679825
aa(lp1536
I54295
aI0
aI2679881
aa(lp1537
I54296
aI15
aI2679887
aa(lp1538
I54286
aI222
aI2680217
aa(lp1539
I54287
aI3
aI2680226
aa(lp1540
I54289
aI3
aI2680320
aa(lp1541
I54288
aI208
aI2680334
aa(lp1542
I54280
aI34
aI2680582
aa(lp1543
I54279
aI208
aI2680591
aa(lp1544
I54273
aI19
aI2680750
aa(lp1545
I54276
aI128
aI2680764
aa(lp1546
I54273
aI27
aI2680849
aa(lp1547
I54272
aI161
aI2680858
aa(lp1548
I65533
aI0
aI2680874
aa(lp1549
I54295
aI0
aI2680930
aa(lp1550
I54296
aI15
aI2680936
aa(lp1551
I54286
aI169
aI2681299
aa(lp1552
I54287
aI3
aI2681308
aa(lp1553
I54289
aI3
aI2681402
aa(lp1554
I54288
aI224
aI2681416
aa(lp1555
I54280
aI43
aI2681637
aa(lp1556
I54279
aI214
aI2681651
aa(lp1557
I54283
aI65
aI2681702
aa(lp1558
I54281
aI0
aI2681711
aa(lp1559
I54282
aI3
aI2681724
aa(lp1560
I54284
aI8
aI2681737
aa(lp1561
I54285
aI15
aI2681747
aa(lp1562
I54273
aI18
aI2682014
aa(lp1563
I54276
aI128
aI2682028
aa(lp1564
I54273
aI11
aI2682119
aa(lp1565
I54272
aI156
aI2682128
aa(lp1566
I65533
aI0
aI2682144
aa(lp1567
I54295
aI0
aI2682200
aa(lp1568
I54296
aI15
aI2682206
aa(lp1569
I54286
aI116
aI2682470
aa(lp1570
I54287
aI3
aI2682479
aa(lp1571
I54289
aI3
aI2682573
aa(lp1572
I54288
aI240
aI2682587
aa(lp1573
I54280
aI43
aI2682779
aa(lp1574
I54283
aI128
aI2682786
aa(lp1575
I54280
aI43
aI2682871
aa(lp1576
I54279
aI214
aI2682880
aa(lp1577
I54273
aI17
aI2683039
aa(lp1578
I54276
aI128
aI2683053
aa(lp1579
I54273
aI27
aI2683138
aa(lp1580
I54272
aI161
aI2683147
aa(lp1581
I65533
aI0
aI2683163
aa(lp1582
I54295
aI0
aI2683219
aa(lp1583
I54296
aI15
aI2683225
aa(lp1584
I54286
aI169
aI2683522
aa(lp1585
I54287
aI3
aI2683531
aa(lp1586
I54289
aI4
aI2683625
aa(lp1587
I54288
aI0
aI2683639
aa(lp1588
I54280
aI43
aI2683831
aa(lp1589
I54283
aI128
aI2683838
aa(lp1590
I54280
aI43
aI2683929
aa(lp1591
I54279
aI214
aI2683938
aa(lp1592
I54273
aI16
aI2684097
aa(lp1593
I54276
aI128
aI2684111
aa(lp1594
I54273
aI11
aI2684202
aa(lp1595
I54272
aI156
aI2684211
aa(lp1596
I65533
aI0
aI2684227
aa(lp1597
I54295
aI0
aI2684283
aa(lp1598
I54296
aI15
aI2684289
aa(lp1599
I54286
aI222
aI2684667
aa(lp1600
I54287
aI3
aI2684676
aa(lp1601
I54289
aI4
aI2684770
aa(lp1602
I54288
aI16
aI2684784
aa(lp1603
I54283
aI64
aI2684905
aa(lp1604
I54284
aI0
aI2684912
aa(lp1605
I54285
aI0
aI2684917
aa(lp1606
I54280
aI43
aI2685095
aa(lp1607
I54279
aI214
aI2685104
aa(lp1608
I54273
aI15
aI2685304
aa(lp1609
I54276
aI128
aI2685318
aa(lp1610
I54273
aI27
aI2685403
aa(lp1611
I54272
aI161
aI2685412
aa(lp1612
I65533
aI0
aI2685428
aa(lp1613
I54295
aI0
aI2685484
aa(lp1614
I54296
aI15
aI2685490
aa(lp1615
I54286
aI169
aI2685805
aa(lp1616
I54287
aI3
aI2685814
aa(lp1617
I54289
aI4
aI2685908
aa(lp1618
I54288
aI32
aI2685922
aa(lp1619
I54280
aI43
aI2686176
aa(lp1620
I54279
aI214
aI2686185
aa(lp1621
I54273
aI14
aI2686344
aa(lp1622
I54276
aI128
aI2686358
aa(lp1623
I54273
aI11
aI2686449
aa(lp1624
I54272
aI156
aI2686458
aa(lp1625
I65533
aI0
aI2686474
aa(lp1626
I54295
aI0
aI2686530
aa(lp1627
I54296
aI15
aI2686536
aa(lp1628
I54286
aI116
aI2686800
aa(lp1629
I54287
aI3
aI2686809
aa(lp1630
I54289
aI4
aI2686903
aa(lp1631
I54288
aI48
aI2686917
aa(lp1632
I54280
aI43
aI2687165
aa(lp1633
I54279
aI214
aI2687174
aa(lp1634
I54273
aI13
aI2687333
aa(lp1635
I54276
aI128
aI2687347
aa(lp1636
I54273
aI27
aI2687432
aa(lp1637
I54272
aI161
aI2687441
aa(lp1638
I65533
aI0
aI2687457
aa(lp1639
I65533
aI0
aI2687496
aa(lp1640
I54295
aI0
aI2687552
aa(lp1641
I54296
aI15
aI2687558
aa(lp1642
I54286
aI169
aI2687903
aa(lp1643
I54287
aI3
aI2687912
aa(lp1644
I54289
aI4
aI2688006
aa(lp1645
I54288
aI64
aI2688020
aa(lp1646
I54280
aI14
aI2688262
aa(lp1647
I54279
aI163
aI2688276
aa(lp1648
I54283
aI65
aI2688325
aa(lp1649
I54281
aI0
aI2688334
aa(lp1650
I54282
aI8
aI2688346
aa(lp1651
I54284
aI9
aI2688358
aa(lp1652
I54285
aI8
aI2688367
aa(lp1653
I54273
aI12
aI2688634
aa(lp1654
I54276
aI128
aI2688648
aa(lp1655
I54273
aI11
aI2688739
aa(lp1656
I54272
aI156
aI2688748
aa(lp1657
I65533
aI0
aI2688764
aa(lp1658
I54295
aI0
aI2688820
aa(lp1659
I54296
aI15
aI2688826
aa(lp1660
I54286
aI222
aI2689156
aa(lp1661
I54287
aI3
aI2689165
aa(lp1662
I54289
aI4
aI2689259
aa(lp1663
I54288
aI80
aI2689273
aa(lp1664
I54280
aI14
aI2689462
aa(lp1665
I54283
aI128
aI2689469
aa(lp1666
I54273
aI11
aI2689646
aa(lp1667
I54276
aI128
aI2689660
aa(lp1668
I54273
aI27
aI2689745
aa(lp1669
I54272
aI161
aI2689754
aa(lp1670
I65533
aI0
aI2689770
aa(lp1671
I54295
aI0
aI2689826
aa(lp1672
I54296
aI15
aI2689832
aa(lp1673
I54286
aI169
aI2690147
aa(lp1674
I54287
aI3
aI2690156
aa(lp1675
I54289
aI4
aI2690250
aa(lp1676
I54288
aI96
aI2690264
aa(lp1677
I54280
aI14
aI2690453
aa(lp1678
I54283
aI128
aI2690460
aa(lp1679
I54273
aI10
aI2690637
aa(lp1680
I54276
aI128
aI2690651
aa(lp1681
I54273
aI11
aI2690742
aa(lp1682
I54272
aI156
aI2690751
aa(lp1683
I65533
aI0
aI2690767
aa(lp1684
I54295
aI0
aI2690823
aa(lp1685
I54296
aI15
aI2690829
aa(lp1686
I54286
aI116
aI2691141
aa(lp1687
I54287
aI3
aI2691150
aa(lp1688
I54289
aI4
aI2691244
aa(lp1689
I54288
aI112
aI2691258
aa(lp1690
I54283
aI64
aI2691379
aa(lp1691
I54284
aI0
aI2691386
aa(lp1692
I54285
aI0
aI2691391
aa(lp1693
I54276
aI128
aI2691581
aa(lp1694
I54277
aI0
aI2691588
aa(lp1695
I54278
aI0
aI2691593
aa(lp1696
I54273
aI27
aI2691771
aa(lp1697
I54272
aI161
aI2691780
aa(lp1698
I65533
aI0
aI2691796
aa(lp1699
I54295
aI0
aI2691852
aa(lp1700
I54296
aI15
aI2691858
aa(lp1701
I54286
aI169
aI2692155
aa(lp1702
I54287
aI3
aI2692164
aa(lp1703
I54289
aI4
aI2692258
aa(lp1704
I54288
aI128
aI2692272
aa(lp1705
I54273
aI11
aI2692665
aa(lp1706
I54272
aI156
aI2692674
aa(lp1707
I65533
aI0
aI2692690
aa(lp1708
I54295
aI0
aI2692746
aa(lp1709
I54296
aI15
aI2692752
aa(lp1710
I54286
aI222
aI2693082
aa(lp1711
I54287
aI3
aI2693091
aa(lp1712
I54289
aI4
aI2693185
aa(lp1713
I54288
aI144
aI2693199
aa(lp1714
I54273
aI27
aI2693586
aa(lp1715
I54272
aI161
aI2693595
aa(lp1716
I65533
aI0
aI2693611
aa(lp1717
I54295
aI0
aI2693667
aa(lp1718
I54296
aI15
aI2693673
aa(lp1719
I54286
aI169
aI2694036
aa(lp1720
I54287
aI3
aI2694045
aa(lp1721
I54289
aI4
aI2694139
aa(lp1722
I54288
aI160
aI2694153
aa(lp1723
I54280
aI14
aI2694374
aa(lp1724
I54279
aI163
aI2694388
aa(lp1725
I54283
aI65
aI2694437
aa(lp1726
I54281
aI0
aI2694446
aa(lp1727
I54282
aI8
aI2694458
aa(lp1728
I54284
aI9
aI2694470
aa(lp1729
I54285
aI8
aI2694479
aa(lp1730
I54276
aI128
aI2694723
aa(lp1731
I54274
aI0
aI2694733
aa(lp1732
I54275
aI8
aI2694746
aa(lp1733
I54277
aI15
aI2694759
aa(lp1734
I54278
aI10
aI2694769
aa(lp1735
I65533
aI0
aI2694852
aa(lp1736
I54295
aI0
aI2694908
aa(lp1737
I54296
aI15
aI2694914
aa(lp1738
I54286
aI116
aI2695178
aa(lp1739
I54287
aI3
aI2695187
aa(lp1740
I54289
aI4
aI2695281
aa(lp1741
I54288
aI176
aI2695295
aa(lp1742
I54280
aI14
aI2695484
aa(lp1743
I54283
aI128
aI2695491
aa(lp1744
I54273
aI9
aI2695662
aa(lp1745
I54276
aI128
aI2695669
aa(lp1746
I54273
aI27
aI2695754
aa(lp1747
I54272
aI161
aI2695763
aa(lp1748
I65533
aI0
aI2695779
aa(lp1749
I54295
aI0
aI2695835
aa(lp1750
I54296
aI15
aI2695841
aa(lp1751
I54286
aI169
aI2696138
aa(lp1752
I54287
aI3
aI2696147
aa(lp1753
I54289
aI4
aI2696241
aa(lp1754
I54288
aI192
aI2696255
aa(lp1755
I54280
aI14
aI2696444
aa(lp1756
I54283
aI128
aI2696451
aa(lp1757
I54273
aI9
aI2696622
aa(lp1758
I54276
aI128
aI2696629
aa(lp1759
I54273
aI11
aI2696720
aa(lp1760
I54272
aI156
aI2696729
aa(lp1761
I65533
aI0
aI2696745
aa(lp1762
I65533
aI0
aI2696784
aa(lp1763
I54295
aI0
aI2696840
aa(lp1764
I54296
aI15
aI2696846
aa(lp1765
I54286
aI222
aI2697224
aa(lp1766
I54287
aI3
aI2697233
aa(lp1767
I54289
aI4
aI2697327
aa(lp1768
I54288
aI208
aI2697341
aa(lp1769
I54280
aI14
aI2697577
aa(lp1770
I54283
aI64
aI2697591
aa(lp1771
I54273
aI9
aI2697809
aa(lp1772
I54276
aI128
aI2697823
aa(lp1773
I54273
aI27
aI2697908
aa(lp1774
I54272
aI161
aI2697917
aa(lp1775
I65533
aI0
aI2697933
aa(lp1776
I54295
aI0
aI2697989
aa(lp1777
I54296
aI15
aI2697995
aa(lp1778
I54286
aI169
aI2698310
aa(lp1779
I54287
aI3
aI2698319
aa(lp1780
I54289
aI4
aI2698413
aa(lp1781
I54288
aI224
aI2698427
aa(lp1782
I54280
aI13
aI2698622
aa(lp1783
I54283
aI64
aI2698636
aa(lp1784
I54273
aI8
aI2698813
aa(lp1785
I54276
aI128
aI2698827
aa(lp1786
I54273
aI11
aI2698918
aa(lp1787
I54272
aI156
aI2698927
aa(lp1788
I65533
aI0
aI2698943
aa(lp1789
I54295
aI0
aI2698999
aa(lp1790
I54296
aI15
aI2699005
aa(lp1791
I54286
aI116
aI2699269
aa(lp1792
I54287
aI3
aI2699278
aa(lp1793
I54289
aI4
aI2699372
aa(lp1794
I54288
aI240
aI2699386
aa(lp1795
I54280
aI12
aI2699581
aa(lp1796
I54283
aI64
aI2699595
aa(lp1797
I54273
aI7
aI2699772
aa(lp1798
I54276
aI128
aI2699786
aa(lp1799
I54273
aI27
aI2699871
aa(lp1800
I54272
aI161
aI2699880
aa(lp1801
I65533
aI0
aI2699896
aa(lp1802
I54295
aI0
aI2699952
aa(lp1803
I54296
aI15
aI2699958
aa(lp1804
I54286
aI169
aI2700303
aa(lp1805
I54287
aI3
aI2700312
aa(lp1806
I54289
aI5
aI2700406
aa(lp1807
I54288
aI0
aI2700420
aa(lp1808
I54280
aI11
aI2700656
aa(lp1809
I54283
aI64
aI2700670
aa(lp1810
I54273
aI6
aI2700888
aa(lp1811
I54276
aI128
aI2700902
aa(lp1812
I54273
aI11
aI2700993
aa(lp1813
I54272
aI156
aI2701002
aa(lp1814
I65533
aI0
aI2701018
aa(lp1815
I54295
aI0
aI2701074
aa(lp1816
I54296
aI15
aI2701080
aa(lp1817
I54286
aI222
aI2701410
aa(lp1818
I54287
aI3
aI2701419
aa(lp1819
I54289
aI5
aI2701513
aa(lp1820
I54288
aI16
aI2701527
aa(lp1821
I54280
aI10
aI2701722
aa(lp1822
I54283
aI64
aI2701736
aa(lp1823
I54273
aI5
aI2701913
aa(lp1824
I54276
aI128
aI2701927
aa(lp1825
I54273
aI27
aI2702012
aa(lp1826
I54272
aI161
aI2702021
aa(lp1827
I65533
aI0
aI2702037
aa(lp1828
I54295
aI0
aI2702093
aa(lp1829
I54296
aI15
aI2702099
aa(lp1830
I54286
aI169
aI2702414
aa(lp1831
I54287
aI3
aI2702423
aa(lp1832
I54289
aI5
aI2702517
aa(lp1833
I54288
aI32
aI2702531
aa(lp1834
I54280
aI9
aI2702726
aa(lp1835
I54283
aI64
aI2702740
aa(lp1836
I54273
aI4
aI2702917
aa(lp1837
I54276
aI128
aI2702931
aa(lp1838
I54273
aI11
aI2703022
aa(lp1839
I54272
aI156
aI2703031
aa(lp1840
I65533
aI0
aI2703047
aa(lp1841
I54295
aI0
aI2703103
aa(lp1842
I54296
aI15
aI2703109
aa(lp1843
I54286
aI116
aI2703421
aa(lp1844
I54287
aI3
aI2703430
aa(lp1845
I54289
aI5
aI2703524
aa(lp1846
I54288
aI48
aI2703538
aa(lp1847
I54283
aI64
aI2703659
aa(lp1848
I54284
aI0
aI2703666
aa(lp1849
I54285
aI0
aI2703671
aa(lp1850
I54273
aI3
aI2703979
aa(lp1851
I54276
aI128
aI2703993
aa(lp1852
I54273
aI27
aI2704078
aa(lp1853
I54272
aI161
aI2704087
aa(lp1854
I65533
aI0
aI2704103
aa(lp1855
I54295
aI0
aI2704159
aa(lp1856
I54296
aI15
aI2704165
aa(lp1857
I54286
aI169
aI2704462
aa(lp1858
I54287
aI3
aI2704471
aa(lp1859
I54289
aI5
aI2704565
aa(lp1860
I54288
aI64
aI2704579
aa(lp1861
I54273
aI2
aI2704916
aa(lp1862
I54276
aI128
aI2704930
aa(lp1863
I54273
aI11
aI2705021
aa(lp1864
I54272
aI156
aI2705030
aa(lp1865
I65533
aI0
aI2705046
aa(lp1866
I54295
aI0
aI2705102
aa(lp1867
I54296
aI15
aI2705108
aa(lp1868
I54286
aI222
aI2705438
aa(lp1869
I54287
aI3
aI2705447
aa(lp1870
I54289
aI5
aI2705541
aa(lp1871
I54288
aI80
aI2705555
aa(lp1872
I54273
aI1
aI2705892
aa(lp1873
I54276
aI128
aI2705906
aa(lp1874
I54273
aI27
aI2705991
aa(lp1875
I54272
aI161
aI2706000
aa(lp1876
I65533
aI0
aI2706016
aa(lp1877
I65533
aI0
aI2706055
aa(lp1878
I54295
aI0
aI2706111
aa(lp1879
I54296
aI15
aI2706117
aa(lp1880
I54286
aI169
aI2706480
aa(lp1881
I54287
aI3
aI2706489
aa(lp1882
I54289
aI5
aI2706583
aa(lp1883
I54288
aI96
aI2706597
aa(lp1884
I54280
aI29
aI2706839
aa(lp1885
I54279
aI70
aI2706853
aa(lp1886
I54283
aI65
aI2706904
aa(lp1887
I54281
aI0
aI2706913
aa(lp1888
I54282
aI3
aI2706926
aa(lp1889
I54284
aI8
aI2706939
aa(lp1890
I54285
aI15
aI2706949
aa(lp1891
I54273
aI11
aI2707266
aa(lp1892
I54272
aI156
aI2707275
aa(lp1893
I65533
aI0
aI2707291
aa(lp1894
I54295
aI0
aI2707347
aa(lp1895
I54296
aI15
aI2707353
aa(lp1896
I54286
aI116
aI2707617
aa(lp1897
I54287
aI3
aI2707626
aa(lp1898
I54289
aI5
aI2707720
aa(lp1899
I54288
aI112
aI2707734
aa(lp1900
I54280
aI29
aI2707926
aa(lp1901
I54283
aI128
aI2707933
aa(lp1902
I54280
aI29
aI2708018
aa(lp1903
I54279
aI70
aI2708027
aa(lp1904
I54273
aI27
aI2708230
aa(lp1905
I54272
aI161
aI2708239
aa(lp1906
I65533
aI0
aI2708255
aa(lp1907
I54295
aI0
aI2708311
aa(lp1908
I54296
aI15
aI2708317
aa(lp1909
I54286
aI169
aI2708614
aa(lp1910
I54287
aI3
aI2708623
aa(lp1911
I54289
aI5
aI2708717
aa(lp1912
I54288
aI128
aI2708731
aa(lp1913
I54280
aI29
aI2708923
aa(lp1914
I54283
aI128
aI2708930
aa(lp1915
I54280
aI29
aI2709021
aa(lp1916
I54279
aI70
aI2709030
aa(lp1917
I54273
aI11
aI2709239
aa(lp1918
I54272
aI156
aI2709248
aa(lp1919
I65533
aI0
aI2709264
aa(lp1920
I54295
aI0
aI2709320
aa(lp1921
I54296
aI15
aI2709326
aa(lp1922
I54286
aI222
aI2709704
aa(lp1923
I54287
aI3
aI2709713
aa(lp1924
I54289
aI5
aI2709807
aa(lp1925
I54288
aI144
aI2709821
aa(lp1926
I54283
aI64
aI2709942
aa(lp1927
I54284
aI0
aI2709949
aa(lp1928
I54285
aI0
aI2709954
aa(lp1929
I54280
aI29
aI2710132
aa(lp1930
I54279
aI70
aI2710141
aa(lp1931
I54273
aI27
aI2710385
aa(lp1932
I54272
aI161
aI2710394
aa(lp1933
I65533
aI0
aI2710410
aa(lp1934
I54295
aI0
aI2710466
aa(lp1935
I54296
aI15
aI2710472
aa(lp1936
I54286
aI169
aI2710787
aa(lp1937
I54287
aI3
aI2710796
aa(lp1938
I54289
aI5
aI2710890
aa(lp1939
I54288
aI160
aI2710904
aa(lp1940
I54280
aI29
aI2711158
aa(lp1941
I54279
aI70
aI2711167
aa(lp1942
I54273
aI11
aI2711376
aa(lp1943
I54272
aI156
aI2711385
aa(lp1944
I65533
aI0
aI2711401
aa(lp1945
I54295
aI0
aI2711457
aa(lp1946
I54296
aI15
aI2711463
aa(lp1947
I54286
aI116
aI2711727
aa(lp1948
I54287
aI3
aI2711736
aa(lp1949
I54289
aI5
aI2711830
aa(lp1950
I54288
aI176
aI2711844
aa(lp1951
I54280
aI29
aI2712092
aa(lp1952
I54279
aI70
aI2712101
aa(lp1953
I54273
aI27
aI2712304
aa(lp1954
I54272
aI161
aI2712313
aa(lp1955
I65533
aI0
aI2712329
aa(lp1956
I54295
aI0
aI2712385
aa(lp1957
I54296
aI15
aI2712391
aa(lp1958
I54286
aI169
aI2712736
aa(lp1959
I54287
aI3
aI2712745
aa(lp1960
I54289
aI5
aI2712839
aa(lp1961
I54288
aI192
aI2712853
aa(lp1962
I54280
aI29
aI2713074
aa(lp1963
I54279
aI70
aI2713088
aa(lp1964
I54283
aI65
aI2713139
aa(lp1965
I54281
aI0
aI2713148
aa(lp1966
I54282
aI3
aI2713161
aa(lp1967
I54284
aI8
aI2713174
aa(lp1968
I54285
aI15
aI2713184
aa(lp1969
I54273
aI11
aI2713501
aa(lp1970
I54272
aI156
aI2713510
aa(lp1971
I65533
aI0
aI2713526
aa(lp1972
I54295
aI0
aI2713582
aa(lp1973
I54296
aI15
aI2713588
aa(lp1974
I54286
aI222
aI2713918
aa(lp1975
I54287
aI3
aI2713927
aa(lp1976
I54289
aI5
aI2714021
aa(lp1977
I54288
aI208
aI2714035
aa(lp1978
I54280
aI29
aI2714227
aa(lp1979
I54283
aI128
aI2714234
aa(lp1980
I54280
aI29
aI2714319
aa(lp1981
I54279
aI70
aI2714328
aa(lp1982
I54273
aI27
aI2714531
aa(lp1983
I54272
aI161
aI2714540
aa(lp1984
I65533
aI0
aI2714556
aa(lp1985
I54295
aI0
aI2714612
aa(lp1986
I54296
aI15
aI2714618
aa(lp1987
I54286
aI169
aI2714933
aa(lp1988
I54287
aI3
aI2714942
aa(lp1989
I54289
aI5
aI2715036
aa(lp1990
I54288
aI224
aI2715050
aa(lp1991
I54280
aI29
aI2715242
aa(lp1992
I54283
aI128
aI2715249
aa(lp1993
I54280
aI29
aI2715340
aa(lp1994
I54279
aI70
aI2715349
aa(lp1995
I54273
aI11
aI2715558
aa(lp1996
I54272
aI156
aI2715567
aa(lp1997
I65533
aI0
aI2715583
aa(lp1998
I65533
aI0
aI2715622
aa(lp1999
I54295
aI0
aI2715678
aa(lp2000
I54296
aI15
aI2715684
aa(lp2001
I54286
aI116
aI2715996
aa(lp2002
I54287
aI3
aI2716005
aa(lp2003
I54289
aI5
aI2716099
aa(lp2004
I54288
aI240
aI2716113
aa(lp2005
I54283
aI64
aI2716234
aa(lp2006
I54284
aI0
aI2716241
aa(lp2007
I54285
aI0
aI2716246
aa(lp2008
I54280
aI29
aI2716424
aa(lp2009
I54279
aI70
aI2716433
aa(lp2010
I54276
aI128
aI2716515
aa(lp2011
I54277
aI0
aI2716522
aa(lp2012
I54278
aI0
aI2716527
aa(lp2013
I54273
aI27
aI2716699
aa(lp2014
I54272
aI161
aI2716708
aa(lp2015
I65533
aI0
aI2716724
aa(lp2016
I54295
aI0
aI2716780
aa(lp2017
I54296
aI15
aI2716786
aa(lp2018
I54286
aI169
aI2717083
aa(lp2019
I54287
aI3
aI2717092
aa(lp2020
I54289
aI6
aI2717186
aa(lp2021
I54288
aI0
aI2717200
aa(lp2022
I54280
aI29
aI2717454
aa(lp2023
I54279
aI70
aI2717463
aa(lp2024
I54273
aI11
aI2717672
aa(lp2025
I54272
aI156
aI2717681
aa(lp2026
I65533
aI0
aI2717697
aa(lp2027
I54295
aI0
aI2717753
aa(lp2028
I54296
aI15
aI2717759
aa(lp2029
I54286
aI222
aI2718089
aa(lp2030
I54287
aI3
aI2718098
aa(lp2031
I54289
aI6
aI2718192
aa(lp2032
I54288
aI16
aI2718206
aa(lp2033
I54280
aI29
aI2718454
aa(lp2034
I54279
aI70
aI2718463
aa(lp2035
I54273
aI27
aI2718666
aa(lp2036
I54272
aI161
aI2718675
aa(lp2037
I65533
aI0
aI2718691
aa(lp2038
I54295
aI0
aI2718747
aa(lp2039
I54296
aI15
aI2718753
aa(lp2040
I54286
aI169
aI2719116
aa(lp2041
I54287
aI3
aI2719125
aa(lp2042
I54289
aI6
aI2719219
aa(lp2043
I54288
aI32
aI2719233
aa(lp2044
I54280
aI62
aI2719475
aa(lp2045
I54279
aI8
aI2719489
aa(lp2046
I54283
aI21
aI2719540
aa(lp2047
I54281
aI0
aI2719550
aa(lp2048
I54282
aI5
aI2719563
aa(lp2049
I54284
aI15
aI2719576
aa(lp2050
I54285
aI255
aI2719586
aa(lp2051
I54273
aI27
aI2719835
aa(lp2052
I54272
aI161
aI2719849
aa(lp2053
I54276
aI129
aI2719900
aa(lp2054
I54274
aI0
aI2719910
aa(lp2055
I54275
aI8
aI2719923
aa(lp2056
I54277
aI15
aI2719936
aa(lp2057
I54278
aI10
aI2719946
aa(lp2058
I65533
aI0
aI2720042
aa(lp2059
I54295
aI0
aI2720098
aa(lp2060
I54296
aI15
aI2720104
aa(lp2061
I54286
aI116
aI2720368
aa(lp2062
I54287
aI3
aI2720377
aa(lp2063
I54289
aI6
aI2720471
aa(lp2064
I54288
aI48
aI2720485
aa(lp2065
I54273
aI27
aI2720815
aa(lp2066
I54276
aI128
aI2720822
aa(lp2067
I54273
aI27
aI2720907
aa(lp2068
I54272
aI161
aI2720916
aa(lp2069
I65533
aI0
aI2720932
aa(lp2070
I54295
aI0
aI2720988
aa(lp2071
I54296
aI15
aI2720994
aa(lp2072
I54286
aI169
aI2721291
aa(lp2073
I54287
aI3
aI2721300
aa(lp2074
I54289
aI6
aI2721394
aa(lp2075
I54288
aI64
aI2721408
aa(lp2076
I54280
aI65
aI2721613
aa(lp2077
I54279
aI184
aI2721622
aa(lp2078
I54273
aI27
aI2721784
aa(lp2079
I54276
aI128
aI2721791
aa(lp2080
I54273
aI11
aI2721882
aa(lp2081
I54272
aI156
aI2721891
aa(lp2082
I65533
aI0
aI2721907
aa(lp2083
I54295
aI0
aI2721963
aa(lp2084
I54296
aI15
aI2721969
aa(lp2085
I54286
aI222
aI2722347
aa(lp2086
I54287
aI3
aI2722356
aa(lp2087
I54289
aI6
aI2722450
aa(lp2088
I54288
aI80
aI2722464
aa(lp2089
I54283
aI20
aI2722585
aa(lp2090
I54284
aI0
aI2722592
aa(lp2091
I54285
aI0
aI2722597
aa(lp2092
I54273
aI27
aI2722904
aa(lp2093
I54276
aI128
aI2722918
aa(lp2094
I54273
aI27
aI2723003
aa(lp2095
I54272
aI161
aI2723012
aa(lp2096
I65533
aI0
aI2723028
aa(lp2097
I54295
aI0
aI2723084
aa(lp2098
I54296
aI15
aI2723090
aa(lp2099
I54286
aI169
aI2723405
aa(lp2100
I54287
aI3
aI2723414
aa(lp2101
I54289
aI6
aI2723508
aa(lp2102
I54288
aI96
aI2723522
aa(lp2103
I54273
aI26
aI2723858
aa(lp2104
I54276
aI128
aI2723872
aa(lp2105
I54273
aI11
aI2723963
aa(lp2106
I54272
aI156
aI2723972
aa(lp2107
I65533
aI0
aI2723988
aa(lp2108
I54295
aI0
aI2724044
aa(lp2109
I54296
aI15
aI2724050
aa(lp2110
I54286
aI116
aI2724314
aa(lp2111
I54287
aI3
aI2724323
aa(lp2112
I54289
aI6
aI2724417
aa(lp2113
I54288
aI112
aI2724431
aa(lp2114
I54273
aI25
aI2724767
aa(lp2115
I54276
aI128
aI2724781
aa(lp2116
I54273
aI27
aI2724866
aa(lp2117
I54272
aI161
aI2724875
aa(lp2118
I65533
aI0
aI2724891
aa(lp2119
I65533
aI0
aI2724930
aa(lp2120
I54295
aI0
aI2724986
aa(lp2121
I54296
aI15
aI2724992
aa(lp2122
I54286
aI169
aI2725337
aa(lp2123
I54287
aI3
aI2725346
aa(lp2124
I54289
aI6
aI2725440
aa(lp2125
I54288
aI128
aI2725454
aa(lp2126
I54280
aI43
aI2725696
aa(lp2127
I54279
aI214
aI2725710
aa(lp2128
I54283
aI65
aI2725761
aa(lp2129
I54281
aI0
aI2725770
aa(lp2130
I54282
aI3
aI2725783
aa(lp2131
I54284
aI8
aI2725796
aa(lp2132
I54285
aI15
aI2725806
aa(lp2133
I54273
aI24
aI2726073
aa(lp2134
I54276
aI128
aI2726087
aa(lp2135
I54273
aI11
aI2726178
aa(lp2136
I54272
aI156
aI2726187
aa(lp2137
I65533
aI0
aI2726203
aa(lp2138
I54295
aI0
aI2726259
aa(lp2139
I54296
aI15
aI2726265
aa(lp2140
I54286
aI222
aI2726595
aa(lp2141
I54287
aI3
aI2726604
aa(lp2142
I54289
aI6
aI2726698
aa(lp2143
I54288
aI144
aI2726712
aa(lp2144
I54280
aI43
aI2726904
aa(lp2145
I54283
aI128
aI2726911
aa(lp2146
I54280
aI43
aI2726996
aa(lp2147
I54279
aI214
aI2727005
aa(lp2148
I54273
aI23
aI2727164
aa(lp2149
I54276
aI128
aI2727178
aa(lp2150
I54273
aI27
aI2727263
aa(lp2151
I54272
aI161
aI2727272
aa(lp2152
I65533
aI0
aI2727288
aa(lp2153
I54295
aI0
aI2727344
aa(lp2154
I54296
aI15
aI2727350
aa(lp2155
I54286
aI169
aI2727665
aa(lp2156
I54287
aI3
aI2727674
aa(lp2157
I54289
aI6
aI2727768
aa(lp2158
I54288
aI160
aI2727782
aa(lp2159
I54280
aI43
aI2727974
aa(lp2160
I54283
aI128
aI2727981
aa(lp2161
I54280
aI43
aI2728072
aa(lp2162
I54279
aI214
aI2728081
aa(lp2163
I54273
aI22
aI2728240
aa(lp2164
I54276
aI128
aI2728254
aa(lp2165
I54273
aI11
aI2728345
aa(lp2166
I54272
aI156
aI2728354
aa(lp2167
I65533
aI0
aI2728370
aa(lp2168
I54295
aI0
aI2728426
aa(lp2169
I54296
aI15
aI2728432
aa(lp2170
I54286
aI116
aI2728744
aa(lp2171
I54287
aI3
aI2728753
aa(lp2172
I54289
aI6
aI2728847
aa(lp2173
I54288
aI176
aI2728861
aa(lp2174
I54283
aI64
aI2728982
aa(lp2175
I54284
aI0
aI2728989
aa(lp2176
I54285
aI0
aI2728994
aa(lp2177
I54280
aI43
aI2729172
aa(lp2178
I54279
aI214
aI2729181
aa(lp2179
I54273
aI21
aI2729381
aa(lp2180
I54276
aI128
aI2729395
aa(lp2181
I54273
aI27
aI2729480
aa(lp2182
I54272
aI161
aI2729489
aa(lp2183
I65533
aI0
aI2729505
aa(lp2184
I54295
aI0
aI2729561
aa(lp2185
I54296
aI15
aI2729567
aa(lp2186
I54286
aI169
aI2729864
aa(lp2187
I54287
aI3
aI2729873
aa(lp2188
I54289
aI6
aI2729967
aa(lp2189
I54288
aI192
aI2729981
aa(lp2190
I54280
aI43
aI2730235
aa(lp2191
I54279
aI214
aI2730244
aa(lp2192
I54273
aI20
aI2730403
aa(lp2193
I54276
aI128
aI2730417
aa(lp2194
I54273
aI11
aI2730508
aa(lp2195
I54272
aI156
aI2730517
aa(lp2196
I65533
aI0
aI2730533
aa(lp2197
I54295
aI0
aI2730589
aa(lp2198
I54296
aI15
aI2730595
aa(lp2199
I54286
aI222
aI2730925
aa(lp2200
I54287
aI3
aI2730934
aa(lp2201
I54289
aI6
aI2731028
aa(lp2202
I54288
aI208
aI2731042
aa(lp2203
I54280
aI43
aI2731290
aa(lp2204
I54279
aI214
aI2731299
aa(lp2205
I54273
aI19
aI2731458
aa(lp2206
I54276
aI128
aI2731472
aa(lp2207
I54273
aI27
aI2731557
aa(lp2208
I54272
aI161
aI2731566
aa(lp2209
I65533
aI0
aI2731582
aa(lp2210
I54295
aI0
aI2731638
aa(lp2211
I54296
aI15
aI2731644
aa(lp2212
I54286
aI169
aI2732007
aa(lp2213
I54287
aI3
aI2732016
aa(lp2214
I54289
aI6
aI2732110
aa(lp2215
I54288
aI224
aI2732124
aa(lp2216
I54280
aI39
aI2732345
aa(lp2217
I54279
aI16
aI2732359
aa(lp2218
I54283
aI65
aI2732410
aa(lp2219
I54281
aI0
aI2732419
aa(lp2220
I54282
aI3
aI2732432
aa(lp2221
I54284
aI8
aI2732445
aa(lp2222
I54285
aI15
aI2732455
aa(lp2223
I54273
aI18
aI2732722
aa(lp2224
I54276
aI128
aI2732736
aa(lp2225
I54273
aI11
aI2732827
aa(lp2226
I54272
aI156
aI2732836
aa(lp2227
I65533
aI0
aI2732852
aa(lp2228
I54295
aI0
aI2732908
aa(lp2229
I54296
aI15
aI2732914
aa(lp2230
I54286
aI116
aI2733178
aa(lp2231
I54287
aI3
aI2733187
aa(lp2232
I54289
aI6
aI2733281
aa(lp2233
I54288
aI240
aI2733295
aa(lp2234
I54280
aI39
aI2733487
aa(lp2235
I54283
aI128
aI2733494
aa(lp2236
I54280
aI39
aI2733579
aa(lp2237
I54279
aI16
aI2733588
aa(lp2238
I54273
aI17
aI2733747
aa(lp2239
I54276
aI128
aI2733761
aa(lp2240
I54273
aI27
aI2733846
aa(lp2241
I54272
aI161
aI2733855
aa(lp2242
I65533
aI0
aI2733871
aa(lp2243
I54295
aI0
aI2733927
aa(lp2244
I54296
aI15
aI2733933
aa(lp2245
I54286
aI169
aI2734230
aa(lp2246
I54287
aI3
aI2734239
aa(lp2247
I54289
aI7
aI2734333
aa(lp2248
I54288
aI0
aI2734347
aa(lp2249
I54280
aI39
aI2734539
aa.I2249
.I1997
.F33.265
.(lp0
I0
aI0
aI1
a.I9
.F0.25
.