(lp0
(lp1
I65533
aI0
aI9872288
aa(lp2
I54296
aI31
aI9872417
aa(lp3
I54272
aI176
aI9872621
aa(lp4
I54273
aI14
aI9872625
aa(lp5
I54274
aI0
aI9872635
aa(lp6
I54275
aI0
aI9872639
aa(lp7
I54277
aI24
aI9872646
aa(lp8
I54278
aI106
aI9872653
aa(lp9
I54276
aI33
aI9872666
aa(lp10
I54283
aI8
aI9872961
aa(lp11
I54279
aI215
aI9872981
aa(lp12
I54280
aI156
aI9872985
aa(lp13
I54281
aI0
aI9872997
aa(lp14
I54282
aI0
aI9873001
aa(lp15
I54284
aI0
aI9873009
aa(lp16
I54285
aI242
aI9873017
aa(lp17
I54283
aI17
aI9873031
aa(lp18
I54288
aI186
aI9873394
aa(lp19
I54289
aI9
aI9873398
aa(lp20
I54286
aI32
aI9873464
aa(lp21
I54287
aI7
aI9873468
aa(lp22
I54293
aI2
aI9873576
aa(lp23
I54294
aI41
aI9873606
aa(lp24
I54296
aI31
aI9873624
aa(lp25
I65533
aI0
aI9873646
aa(lp26
I54272
aI176
aI9873871
aa(lp27
I54273
aI14
aI9873875
aa(lp28
I54279
aI135
aI9874012
aa(lp29
I54280
aI161
aI9874016
aa(lp30
I54288
aI189
aI9874136
aa(lp31
I54289
aI9
aI9874140
aa(lp32
I54286
aI39
aI9874206
aa(lp33
I54287
aI7
aI9874210
aa(lp34
I54293
aI0
aI9874318
aa(lp35
I54294
aI40
aI9874348
aa(lp36
I54296
aI31
aI9874366
aa(lp37
I65533
aI0
aI9874388
aa(lp38
I54279
aI55
aI9874689
aa(lp39
I54280
aI166
aI9874693
aa(lp40
I54288
aI192
aI9874813
aa(lp41
I54289
aI9
aI9874817
aa(lp42
I54286
aI46
aI9874883
aa(lp43
I54287
aI7
aI9874887
aa(lp44
I54293
aI2
aI9875001
aa(lp45
I54294
aI41
aI9875031
aa(lp46
I54296
aI31
aI9875049
aa(lp47
I65533
aI0
aI9875071
aa(lp48
I54279
aI231
aI9875374
aa(lp49
I54280
aI170
aI9875378
aa(lp50
I54288
aI195
aI9875498
aa(lp51
I54289
aI9
aI9875502
aa(lp52
I54286
aI53
aI9875568
aa(lp53
I54287
aI7
aI9875572
aa(lp54
I54293
aI4
aI9875686
aa(lp55
I54294
aI42
aI9875716
aa(lp56
I54296
aI31
aI9875734
aa(lp57
I65533
aI0
aI9875756
aa(lp58
I54296
aI31
aI9875885
aa(lp59
I54279
aI151
aI9876109
aa(lp60
I54280
aI175
aI9876113
aa(lp61
I54288
aI198
aI9876233
aa(lp62
I54289
aI9
aI9876237
aa(lp63
I54286
aI60
aI9876303
aa(lp64
I54287
aI7
aI9876307
aa(lp65
I54293
aI6
aI9876421
aa(lp66
I54294
aI43
aI9876451
aa(lp67
I54296
aI31
aI9876469
aa(lp68
I65533
aI0
aI9876491
aa(lp69
I54272
aI96
aI9876719
aa(lp70
I54273
aI29
aI9876723
aa(lp71
I54283
aI16
aI9876804
aa(lp72
I54279
aI71
aI9876869
aa(lp73
I54280
aI180
aI9876873
aa(lp74
I54288
aI201
aI9876993
aa(lp75
I54289
aI9
aI9876997
aa(lp76
I54286
aI67
aI9877063
aa(lp77
I54287
aI7
aI9877067
aa(lp78
I54293
aI0
aI9877181
aa(lp79
I54294
aI45
aI9877211
aa(lp80
I54296
aI31
aI9877229
aa(lp81
I65533
aI0
aI9877251
aa(lp82
I54279
aI247
aI9877551
aa(lp83
I54280
aI184
aI9877555
aa(lp84
I54288
aI204
aI9877675
aa(lp85
I54289
aI9
aI9877679
aa(lp86
I54286
aI74
aI9877745
aa(lp87
I54287
aI7
aI9877749
aa(lp88
I54293
aI2
aI9877863
aa(lp89
I54294
aI46
aI9877893
aa(lp90
I54296
aI31
aI9877911
aa(lp91
I65533
aI0
aI9877933
aa(lp92
I54279
aI167
aI9878235
aa(lp93
I54280
aI189
aI9878239
aa(lp94
I54288
aI207
aI9878359
aa(lp95
I54289
aI9
aI9878363
aa(lp96
I54286
aI81
aI9878429
aa(lp97
I54287
aI7
aI9878433
aa(lp98
I54293
aI4
aI9878547
aa(lp99
I54294
aI47
aI9878577
aa(lp100
I54296
aI31
aI9878595
aa(lp101
I65533
aI0
aI9878617
aa(lp102
I54296
aI31
aI9878746
aa(lp103
I54279
aI87
aI9878969
aa(lp104
I54280
aI194
aI9878973
aa(lp105
I54288
aI210
aI9879093
aa(lp106
I54289
aI9
aI9879097
aa(lp107
I54286
aI88
aI9879163
aa(lp108
I54287
aI7
aI9879167
aa(lp109
I54293
aI6
aI9879281
aa(lp110
I54294
aI48
aI9879311
aa(lp111
I54296
aI31
aI9879329
aa(lp112
I65533
aI0
aI9879351
aa(lp113
I54272
aI192
aI9879576
aa(lp114
I54273
aI58
aI9879580
aa(lp115
I54279
aI7
aI9879716
aa(lp116
I54280
aI199
aI9879720
aa(lp117
I54288
aI213
aI9879840
aa(lp118
I54289
aI9
aI9879844
aa(lp119
I54286
aI95
aI9879973
aa(lp120
I54287
aI7
aI9879977
aa(lp121
I54293
aI0
aI9880091
aa(lp122
I54294
aI50
aI9880121
aa(lp123
I54296
aI31
aI9880139
aa(lp124
I65533
aI0
aI9880161
aa(lp125
I54279
aI183
aI9880461
aa(lp126
I54280
aI203
aI9880465
aa(lp127
I54288
aI216
aI9880585
aa(lp128
I54289
aI9
aI9880589
aa(lp129
I54286
aI102
aI9880643
aa(lp130
I54287
aI7
aI9880647
aa(lp131
I54293
aI2
aI9880824
aa(lp132
I54294
aI51
aI9880854
aa(lp133
I54296
aI31
aI9880872
aa(lp134
I65533
aI0
aI9880894
aa(lp135
I54285
aI0
aI9881136
aa(lp136
I54284
aI0
aI9881146
aa(lp137
I54283
aI0
aI9881156
aa(lp138
I54282
aI0
aI9881166
aa(lp139
I54281
aI0
aI9881176
aa(lp140
I54280
aI0
aI9881186
aa(lp141
I54279
aI0
aI9881196
aa(lp142
I54288
aI219
aI9881315
aa(lp143
I54289
aI9
aI9881319
aa(lp144
I54286
aI109
aI9881373
aa(lp145
I54287
aI7
aI9881377
aa(lp146
I54293
aI4
aI9881479
aa(lp147
I54294
aI52
aI9881509
aa(lp148
I54296
aI31
aI9881527
aa(lp149
I65533
aI0
aI9881549
aa(lp150
I54296
aI31
aI9881678
aa(lp151
I54288
aI222
aI9881922
aa(lp152
I54289
aI9
aI9881926
aa(lp153
I54286
aI116
aI9881980
aa(lp154
I54287
aI7
aI9881984
aa(lp155
I54293
aI6
aI9882086
aa(lp156
I54294
aI53
aI9882116
aa(lp157
I54296
aI31
aI9882134
aa(lp158
I65533
aI0
aI9882156
aa(lp159
I54272
aI96
aI9882381
aa(lp160
I54273
aI29
aI9882385
aa(lp161
I54288
aI225
aI9882542
aa(lp162
I54289
aI9
aI9882546
aa(lp163
I54286
aI123
aI9882600
aa(lp164
I54287
aI7
aI9882604
aa(lp165
I54293
aI0
aI9882706
aa(lp166
I54294
aI55
aI9882736
aa(lp167
I54296
aI31
aI9882754
aa(lp168
I65533
aI0
aI9882776
aa(lp169
I54288
aI228
aI9883097
aa(lp170
I54289
aI9
aI9883101
aa(lp171
I54286
aI130
aI9883155
aa(lp172
I54287
aI7
aI9883159
aa(lp173
I54293
aI2
aI9883261
aa(lp174
I54294
aI56
aI9883291
aa(lp175
I54296
aI31
aI9883309
aa(lp176
I65533
aI0
aI9883331
aa(lp177
I54288
aI231
aI9883654
aa(lp178
I54289
aI9
aI9883658
aa(lp179
I54286
aI137
aI9883712
aa(lp180
I54287
aI7
aI9883716
aa(lp181
I54293
aI4
aI9883818
aa(lp182
I54294
aI57
aI9883848
aa(lp183
I54296
aI31
aI9883866
aa(lp184
I65533
aI0
aI9883888
aa(lp185
I54296
aI31
aI9884017
aa(lp186
I54288
aI234
aI9884261
aa(lp187
I54289
aI9
aI9884265
aa(lp188
I54286
aI144
aI9884319
aa(lp189
I54287
aI7
aI9884323
aa(lp190
I54293
aI6
aI9884425
aa(lp191
I54294
aI58
aI9884455
aa(lp192
I54296
aI31
aI9884473
aa(lp193
I65533
aI0
aI9884495
aa(lp194
I54272
aI2
aI9884720
aa(lp195
I54273
aI22
aI9884724
aa(lp196
I54288
aI237
aI9884881
aa(lp197
I54289
aI9
aI9884885
aa(lp198
I54286
aI151
aI9884939
aa(lp199
I54287
aI7
aI9884943
aa(lp200
I54293
aI0
aI9885045
aa(lp201
I54294
aI60
aI9885075
aa(lp202
I54296
aI31
aI9885093
aa(lp203
I65533
aI0
aI9885115
aa(lp204
I54288
aI240
aI9885436
aa(lp205
I54289
aI9
aI9885440
aa(lp206
I54286
aI158
aI9885494
aa(lp207
I54287
aI7
aI9885498
aa(lp208
I54293
aI6
aI9885606
aa(lp209
I54294
aI58
aI9885636
aa(lp210
I54296
aI31
aI9885654
aa(lp211
I65533
aI0
aI9885676
aa(lp212
I54288
aI243
aI9885999
aa(lp213
I54289
aI9
aI9886003
aa(lp214
I54286
aI151
aI9886063
aa(lp215
I54287
aI7
aI9886067
aa(lp216
I54293
aI4
aI9886175
aa(lp217
I54294
aI57
aI9886205
aa(lp218
I54296
aI31
aI9886223
aa(lp219
I65533
aI0
aI9886245
aa(lp220
I54296
aI31
aI9886374
aa(lp221
I54288
aI246
aI9886618
aa(lp222
I54289
aI9
aI9886622
aa(lp223
I54286
aI144
aI9886682
aa(lp224
I54287
aI7
aI9886686
aa(lp225
I54293
aI2
aI9886794
aa(lp226
I54294
aI56
aI9886824
aa(lp227
I54296
aI31
aI9886842
aa(lp228
I65533
aI0
aI9886864
aa(lp229
I54272
aI129
aI9887089
aa(lp230
I54273
aI18
aI9887093
aa(lp231
I54288
aI249
aI9887250
aa(lp232
I54289
aI9
aI9887254
aa(lp233
I54286
aI137
aI9887314
aa(lp234
I54287
aI7
aI9887318
aa(lp235
I54293
aI0
aI9887426
aa(lp236
I54294
aI55
aI9887456
aa(lp237
I54296
aI31
aI9887474
aa(lp238
I65533
aI0
aI9887496
aa(lp239
I54288
aI252
aI9887817
aa(lp240
I54289
aI9
aI9887821
aa(lp241
I54286
aI130
aI9887881
aa(lp242
I54287
aI7
aI9887885
aa(lp243
I54293
aI6
aI9887993
aa(lp244
I54294
aI53
aI9888023
aa(lp245
I54296
aI31
aI9888041
aa(lp246
I65533
aI0
aI9888063
aa(lp247
I54290
aI64
aI9888349
aa(lp248
I54288
aI255
aI9888405
aa(lp249
I54289
aI9
aI9888409
aa(lp250
I54286
aI123
aI9888469
aa(lp251
I54287
aI7
aI9888473
aa(lp252
I54293
aI4
aI9888581
aa(lp253
I54294
aI52
aI9888611
aa(lp254
I54296
aI31
aI9888629
aa(lp255
I65533
aI0
aI9888651
aa(lp256
I54296
aI31
aI9888780
aa(lp257
I54288
aI2
aI9889035
aa(lp258
I54289
aI10
aI9889039
aa(lp259
I54286
aI116
aI9889099
aa(lp260
I54287
aI7
aI9889103
aa(lp261
I54293
aI2
aI9889211
aa(lp262
I54294
aI51
aI9889241
aa(lp263
I54296
aI31
aI9889259
aa(lp264
I65533
aI0
aI9889281
aa(lp265
I54272
aI176
aI9889506
aa(lp266
I54273
aI14
aI9889510
aa(lp267
I54288
aI5
aI9889678
aa(lp268
I54289
aI10
aI9889682
aa(lp269
I54286
aI109
aI9889742
aa(lp270
I54287
aI7
aI9889746
aa(lp271
I54293
aI0
aI9889854
aa(lp272
I54294
aI50
aI9889884
aa(lp273
I54296
aI31
aI9889902
aa(lp274
I65533
aI0
aI9889924
aa(lp275
I54288
aI8
aI9890256
aa(lp276
I54289
aI10
aI9890260
aa(lp277
I54286
aI102
aI9890320
aa(lp278
I54287
aI7
aI9890324
aa(lp279
I54293
aI6
aI9890432
aa(lp280
I54294
aI48
aI9890462
aa(lp281
I54296
aI31
aI9890480
aa(lp282
I65533
aI0
aI9890502
aa(lp283
I54288
aI11
aI9890836
aa(lp284
I54289
aI10
aI9890840
aa(lp285
I54286
aI95
aI9890900
aa(lp286
I54287
aI7
aI9890904
aa(lp287
I54293
aI4
aI9891012
aa(lp288
I54294
aI47
aI9891042
aa(lp289
I54296
aI31
aI9891060
aa(lp290
I65533
aI0
aI9891082
aa(lp291
I54296
aI31
aI9891211
aa(lp292
I54288
aI14
aI9891466
aa(lp293
I54289
aI10
aI9891470
aa(lp294
I54286
aI88
aI9891530
aa(lp295
I54287
aI7
aI9891534
aa(lp296
I54293
aI2
aI9891642
aa(lp297
I54294
aI46
aI9891672
aa(lp298
I54296
aI31
aI9891690
aa(lp299
I65533
aI0
aI9891712
aa(lp300
I54272
aI96
aI9891940
aa(lp301
I54273
aI29
aI9891944
aa(lp302
I54288
aI17
aI9892112
aa(lp303
I54289
aI10
aI9892116
aa(lp304
I54286
aI81
aI9892176
aa(lp305
I54287
aI7
aI9892180
aa(lp306
I54293
aI0
aI9892288
aa(lp307
I54294
aI45
aI9892318
aa(lp308
I54296
aI31
aI9892336
aa(lp309
I65533
aI0
aI9892358
aa(lp310
I54276
aI32
aI9892507
aa(lp311
I54288
aI20
aI9892699
aa(lp312
I54289
aI10
aI9892703
aa(lp313
I54286
aI74
aI9892763
aa(lp314
I54287
aI7
aI9892767
aa(lp315
I54293
aI6
aI9892875
aa(lp316
I54294
aI43
aI9892905
aa(lp317
I54296
aI31
aI9892923
aa(lp318
I65533
aI0
aI9892945
aa(lp319
I54288
aI23
aI9893278
aa(lp320
I54289
aI10
aI9893282
aa(lp321
I54286
aI67
aI9893342
aa(lp322
I54287
aI7
aI9893346
aa(lp323
I54293
aI4
aI9893454
aa(lp324
I54294
aI42
aI9893484
aa(lp325
I54296
aI31
aI9893502
aa(lp326
I65533
aI0
aI9893524
aa(lp327
I54296
aI31
aI9893653
aa(lp328
I54288
aI26
aI9893907
aa(lp329
I54289
aI10
aI9893911
aa(lp330
I54286
aI60
aI9893971
aa(lp331
I54287
aI7
aI9893975
aa(lp332
I54293
aI2
aI9894083
aa(lp333
I54294
aI41
aI9894113
aa(lp334
I54296
aI31
aI9894131
aa(lp335
I65533
aI0
aI9894153
aa(lp336
I54272
aI192
aI9894377
aa(lp337
I54273
aI58
aI9894381
aa(lp338
I54288
aI29
aI9894549
aa(lp339
I54289
aI10
aI9894553
aa(lp340
I54286
aI53
aI9894613
aa(lp341
I54287
aI7
aI9894617
aa(lp342
I54293
aI0
aI9894725
aa(lp343
I54294
aI40
aI9894755
aa(lp344
I54296
aI31
aI9894773
aa(lp345
I65533
aI0
aI9894795
aa(lp346
I54288
aI32
aI9895126
aa(lp347
I54289
aI10
aI9895130
aa(lp348
I54286
aI46
aI9895190
aa(lp349
I54287
aI7
aI9895194
aa(lp350
I54293
aI2
aI9895308
aa(lp351
I54294
aI41
aI9895338
aa(lp352
I54296
aI31
aI9895356
aa(lp353
I65533
aI0
aI9895378
aa(lp354
I54288
aI35
aI9895711
aa(lp355
I54289
aI10
aI9895715
aa(lp356
I54286
aI39
aI9895775
aa(lp357
I54287
aI7
aI9895779
aa(lp358
I54293
aI4
aI9895893
aa(lp359
I54294
aI42
aI9895923
aa(lp360
I54296
aI31
aI9895941
aa(lp361
I65533
aI0
aI9895963
aa(lp362
I54296
aI31
aI9896092
aa(lp363
I54288
aI38
aI9896346
aa(lp364
I54289
aI10
aI9896350
aa(lp365
I54286
aI32
aI9896410
aa(lp366
I54287
aI7
aI9896414
aa(lp367
I54290
aI8
aI9896481
aa(lp368
I54293
aI4
aI9896725
aa(lp369
I54294
aI112
aI9896755
aa(lp370
I54286
aI1
aI9896782
aa(lp371
I54287
aI11
aI9896786
aa(lp372
I54288
aI0
aI9896796
aa(lp373
I54289
aI9
aI9896800
aa(lp374
I54291
aI24
aI9896807
aa(lp375
I54292
aI107
aI9896814
aa(lp376
I54290
aI65
aI9896826
aa(lp377
I54293
aI2
aI9897182
aa(lp378
I54294
aI111
aI9897212
aa(lp379
I54296
aI31
aI9897230
aa(lp380
I65533
aI0
aI9897252
aa(lp381
I54272
aI96
aI9897476
aa(lp382
I54273
aI29
aI9897480
aa(lp383
I54293
aI0
aI9897729
aa(lp384
I54294
aI110
aI9897759
aa(lp385
I54296
aI31
aI9897777
aa(lp386
I65533
aI0
aI9897799
aa(lp387
I54293
aI6
aI9898211
aa(lp388
I54294
aI108
aI9898241
aa(lp389
I54296
aI31
aI9898259
aa(lp390
I65533
aI0
aI9898281
aa(lp391
I54293
aI4
aI9898695
aa(lp392
I54294
aI107
aI9898725
aa(lp393
I54296
aI31
aI9898743
aa(lp394
I65533
aI0
aI9898765
aa(lp395
I54296
aI31
aI9898894
aa(lp396
I54293
aI2
aI9899229
aa(lp397
I54294
aI106
aI9899259
aa(lp398
I54296
aI31
aI9899277
aa(lp399
I65533
aI0
aI9899299
aa(lp400
I54272
aI2
aI9899523
aa(lp401
I54273
aI22
aI9899527
aa(lp402
I54293
aI0
aI9899776
aa(lp403
I54294
aI105
aI9899806
aa(lp404
I54296
aI31
aI9899824
aa(lp405
I65533
aI0
aI9899846
aa(lp406
I54293
aI6
aI9900258
aa(lp407
I54294
aI103
aI9900288
aa(lp408
I54296
aI31
aI9900306
aa(lp409
I65533
aI0
aI9900328
aa(lp410
I54293
aI4
aI9900742
aa(lp411
I54294
aI102
aI9900772
aa(lp412
I54296
aI31
aI9900790
aa(lp413
I65533
aI0
aI9900812
aa(lp414
I54296
aI31
aI9900941
aa(lp415
I54293
aI2
aI9901276
aa(lp416
I54294
aI101
aI9901306
aa(lp417
I54296
aI31
aI9901324
aa(lp418
I65533
aI0
aI9901346
aa(lp419
I54272
aI129
aI9901570
aa(lp420
I54273
aI18
aI9901574
aa(lp421
I54293
aI0
aI9901823
aa(lp422
I54294
aI100
aI9901853
aa(lp423
I54296
aI31
aI9901871
aa(lp424
I65533
aI0
aI9901893
aa(lp425
I54293
aI6
aI9902305
aa(lp426
I54294
aI98
aI9902335
aa(lp427
I54296
aI31
aI9902353
aa(lp428
I65533
aI0
aI9902375
aa(lp429
I54288
aI3
aI9902697
aa(lp430
I54289
aI9
aI9902701
aa(lp431
I54293
aI4
aI9902831
aa(lp432
I54294
aI97
aI9902861
aa(lp433
I54296
aI31
aI9902879
aa(lp434
I65533
aI0
aI9902901
aa(lp435
I54296
aI31
aI9903030
aa(lp436
I54288
aI6
aI9903273
aa(lp437
I54289
aI9
aI9903277
aa(lp438
I54293
aI2
aI9903407
aa(lp439
I54294
aI96
aI9903437
aa(lp440
I54296
aI31
aI9903455
aa(lp441
I65533
aI0
aI9903477
aa(lp442
I54272
aI176
aI9903701
aa(lp443
I54273
aI14
aI9903705
aa(lp444
I54288
aI9
aI9903862
aa(lp445
I54289
aI9
aI9903866
aa(lp446
I54293
aI0
aI9903996
aa(lp447
I54294
aI95
aI9904026
aa(lp448
I54296
aI31
aI9904044
aa(lp449
I65533
aI0
aI9904066
aa(lp450
I54288
aI12
aI9904386
aa(lp451
I54289
aI9
aI9904390
aa(lp452
I54293
aI6
aI9904520
aa(lp453
I54294
aI93
aI9904550
aa(lp454
I54296
aI31
aI9904568
aa(lp455
I65533
aI0
aI9904590
aa(lp456
I54288
aI15
aI9904912
aa(lp457
I54289
aI9
aI9904916
aa(lp458
I54293
aI4
aI9905046
aa(lp459
I54294
aI92
aI9905076
aa(lp460
I54296
aI31
aI9905094
aa(lp461
I65533
aI0
aI9905116
aa(lp462
I54296
aI31
aI9905245
aa(lp463
I54288
aI18
aI9905488
aa(lp464
I54289
aI9
aI9905492
aa(lp465
I54293
aI2
aI9905622
aa(lp466
I54294
aI91
aI9905652
aa(lp467
I54296
aI31
aI9905670
aa(lp468
I65533
aI0
aI9905692
aa(lp469
I54272
aI96
aI9905919
aa(lp470
I54273
aI29
aI9905923
aa(lp471
I54288
aI21
aI9906080
aa(lp472
I54289
aI9
aI9906084
aa(lp473
I54293
aI0
aI9906214
aa(lp474
I54294
aI90
aI9906244
aa(lp475
I54296
aI31
aI9906262
aa(lp476
I65533
aI0
aI9906284
aa(lp477
I54288
aI24
aI9906604
aa(lp478
I54289
aI9
aI9906608
aa(lp479
I54293
aI6
aI9906738
aa(lp480
I54294
aI88
aI9906768
aa(lp481
I54296
aI31
aI9906786
aa(lp482
I65533
aI0
aI9906808
aa(lp483
I54288
aI27
aI9907130
aa(lp484
I54289
aI9
aI9907134
aa(lp485
I54293
aI4
aI9907264
aa(lp486
I54294
aI87
aI9907294
aa(lp487
I54296
aI31
aI9907312
aa(lp488
I65533
aI0
aI9907334
aa(lp489
I54296
aI31
aI9907463
aa(lp490
I54288
aI30
aI9907706
aa(lp491
I54289
aI9
aI9907710
aa(lp492
I54293
aI2
aI9907840
aa(lp493
I54294
aI86
aI9907870
aa(lp494
I54296
aI31
aI9907888
aa(lp495
I65533
aI0
aI9907910
aa(lp496
I54272
aI192
aI9908134
aa(lp497
I54273
aI58
aI9908138
aa(lp498
I54288
aI33
aI9908295
aa(lp499
I54289
aI9
aI9908299
aa(lp500
I54293
aI0
aI9908429
aa(lp501
I54294
aI85
aI9908459
aa(lp502
I54296
aI31
aI9908477
aa(lp503
I65533
aI0
aI9908499
aa(lp504
I54288
aI36
aI9908819
aa(lp505
I54289
aI9
aI9908823
aa(lp506
I54293
aI6
aI9908953
aa(lp507
I54294
aI83
aI9908983
aa(lp508
I54296
aI31
aI9909001
aa(lp509
I65533
aI0
aI9909023
aa(lp510
I54290
aI64
aI9909308
aa(lp511
I54288
aI39
aI9909364
aa(lp512
I54289
aI9
aI9909368
aa(lp513
I54293
aI4
aI9909498
aa(lp514
I54294
aI82
aI9909528
aa(lp515
I54296
aI31
aI9909546
aa(lp516
I65533
aI0
aI9909568
aa(lp517
I54296
aI31
aI9909697
aa(lp518
I54288
aI42
aI9909951
aa(lp519
I54289
aI9
aI9909955
aa(lp520
I54293
aI2
aI9910085
aa(lp521
I54294
aI81
aI9910115
aa(lp522
I54296
aI31
aI9910133
aa(lp523
I65533
aI0
aI9910155
aa(lp524
I54272
aI96
aI9910379
aa(lp525
I54273
aI29
aI9910383
aa(lp526
I54288
aI45
aI9910551
aa(lp527
I54289
aI9
aI9910555
aa(lp528
I54293
aI0
aI9910685
aa(lp529
I54294
aI80
aI9910715
aa(lp530
I54296
aI31
aI9910733
aa(lp531
I65533
aI0
aI9910755
aa(lp532
I54288
aI48
aI9911086
aa(lp533
I54289
aI9
aI9911090
aa(lp534
I54293
aI6
aI9911220
aa(lp535
I54294
aI78
aI9911250
aa(lp536
I54296
aI31
aI9911268
aa(lp537
I65533
aI0
aI9911290
aa(lp538
I54288
aI51
aI9911623
aa(lp539
I54289
aI9
aI9911627
aa(lp540
I54293
aI4
aI9911757
aa(lp541
I54294
aI77
aI9911787
aa(lp542
I54296
aI31
aI9911805
aa(lp543
I65533
aI0
aI9911827
aa(lp544
I54296
aI31
aI9911956
aa(lp545
I54288
aI54
aI9912210
aa(lp546
I54289
aI9
aI9912214
aa(lp547
I54293
aI2
aI9912344
aa(lp548
I54294
aI76
aI9912374
aa(lp549
I54296
aI31
aI9912392
aa(lp550
I65533
aI0
aI9912414
aa(lp551
I54272
aI2
aI9912638
aa(lp552
I54273
aI22
aI9912642
aa(lp553
I54288
aI57
aI9912810
aa(lp554
I54289
aI9
aI9912814
aa(lp555
I54293
aI0
aI9912944
aa(lp556
I54294
aI75
aI9912974
aa(lp557
I54296
aI31
aI9912992
aa(lp558
I65533
aI0
aI9913014
aa(lp559
I54288
aI60
aI9913345
aa(lp560
I54289
aI9
aI9913349
aa(lp561
I54293
aI6
aI9913479
aa(lp562
I54294
aI73
aI9913509
aa(lp563
I54296
aI31
aI9913527
aa(lp564
I65533
aI0
aI9913549
aa(lp565
I54288
aI63
aI9913882
aa(lp566
I54289
aI9
aI9913886
aa(lp567
I54293
aI4
aI9914016
aa(lp568
I54294
aI72
aI9914046
aa(lp569
I54296
aI31
aI9914064
aa(lp570
I65533
aI0
aI9914086
aa(lp571
I54296
aI31
aI9914215
aa(lp572
I54288
aI66
aI9914469
aa(lp573
I54289
aI9
aI9914473
aa(lp574
I54293
aI2
aI9914603
aa(lp575
I54294
aI71
aI9914633
aa(lp576
I54296
aI31
aI9914651
aa(lp577
I65533
aI0
aI9914673
aa(lp578
I54272
aI129
aI9914897
aa(lp579
I54273
aI18
aI9914901
aa(lp580
I54288
aI69
aI9915069
aa(lp581
I54289
aI9
aI9915073
aa(lp582
I54293
aI0
aI9915203
aa(lp583
I54294
aI70
aI9915233
aa(lp584
I54296
aI31
aI9915251
aa(lp585
I65533
aI0
aI9915273
aa(lp586
I54288
aI72
aI9915604
aa(lp587
I54289
aI9
aI9915608
aa(lp588
I54293
aI6
aI9915738
aa(lp589
I54294
aI68
aI9915768
aa(lp590
I54296
aI31
aI9915786
aa(lp591
I65533
aI0
aI9915808
aa(lp592
I54288
aI75
aI9916141
aa(lp593
I54289
aI9
aI9916145
aa(lp594
I54293
aI4
aI9916275
aa(lp595
I54294
aI67
aI9916305
aa(lp596
I54296
aI31
aI9916323
aa(lp597
I65533
aI0
aI9916345
aa(lp598
I54296
aI31
aI9916474
aa(lp599
I54283
aI8
aI9916663
aa(lp600
I54279
aI215
aI9916683
aa(lp601
I54280
aI156
aI9916687
aa(lp602
I54281
aI0
aI9916699
aa(lp603
I54282
aI0
aI9916703
aa(lp604
I54284
aI0
aI9916711
aa(lp605
I54285
aI242
aI9916719
aa(lp606
I54283
aI17
aI9916733
aa(lp607
I54288
aI78
aI9917107
aa(lp608
I54289
aI9
aI9917111
aa(lp609
I54290
aI8
aI9917206
aa(lp610
I54293
aI4
aI9917450
aa(lp611
I54294
aI112
aI9917480
aa(lp612
I54286
aI1
aI9917507
aa(lp613
I54287
aI11
aI9917511
aa(lp614
I54288
aI0
aI9917521
aa(lp615
I54289
aI9
aI9917525
aa(lp616
I54291
aI24
aI9917532
aa(lp617
I54292
aI107
aI9917539
aa(lp618
I54290
aI65
aI9917551
aa(lp619
I54293
aI2
aI9917907
aa(lp620
I54294
aI111
aI9917937
aa(lp621
I54296
aI31
aI9917955
aa(lp622
I65533
aI0
aI9917977
aa(lp623
I54272
aI176
aI9918201
aa(lp624
I54273
aI14
aI9918205
aa(lp625
I54279
aI135
aI9918342
aa(lp626
I54280
aI161
aI9918346
aa(lp627
I54293
aI0
aI9918558
aa(lp628
I54294
aI110
aI9918588
aa(lp629
I54296
aI31
aI9918606
aa(lp630
I65533
aI0
aI9918628
aa(lp631
I54279
aI55
aI9918928
aa(lp632
I54280
aI166
aI9918932
aa(lp633
I54293
aI6
aI9919144
aa(lp634
I54294
aI108
aI9919174
aa(lp635
I54296
aI31
aI9919192
aa(lp636
I65533
aI0
aI9919214
aa(lp637
I54279
aI231
aI9919516
aa(lp638
I54280
aI170
aI9919520
aa(lp639
I54293
aI4
aI9919732
aa(lp640
I54294
aI107
aI9919762
aa(lp641
I54296
aI31
aI9919780
aa(lp642
I65533
aI0
aI9919802
aa(lp643
I54296
aI31
aI9919931
aa(lp644
I54279
aI151
aI9920154
aa(lp645
I54280
aI175
aI9920158
aa(lp646
I54293
aI2
aI9920370
aa(lp647
I54294
aI106
aI9920400
aa(lp648
I54296
aI31
aI9920418
aa(lp649
I65533
aI0
aI9920440
aa(lp650
I54272
aI96
aI9920667
aa(lp651
I54273
aI29
aI9920671
aa(lp652
I54283
aI16
aI9920752
aa(lp653
I54279
aI71
aI9920817
aa(lp654
I54280
aI180
aI9920821
aa(lp655
I54293
aI0
aI9921033
aa(lp656
I54294
aI105
aI9921063
aa(lp657
I54296
aI31
aI9921081
aa(lp658
I65533
aI0
aI9921103
aa(lp659
I54279
aI247
aI9921402
aa(lp660
I54280
aI184
aI9921406
aa(lp661
I54293
aI6
aI9921618
aa(lp662
I54294
aI103
aI9921648
aa(lp663
I54296
aI31
aI9921666
aa(lp664
I65533
aI0
aI9921688
aa(lp665
I54279
aI167
aI9921989
aa(lp666
I54280
aI189
aI9921993
aa(lp667
I54293
aI4
aI9922205
aa(lp668
I54294
aI102
aI9922235
aa(lp669
I54296
aI31
aI9922253
aa(lp670
I65533
aI0
aI9922275
aa(lp671
I54296
aI31
aI9922404
aa(lp672
I54279
aI87
aI9922626
aa(lp673
I54280
aI194
aI9922630
aa(lp674
I54293
aI2
aI9922842
aa(lp675
I54294
aI101
aI9922872
aa(lp676
I54296
aI31
aI9922890
aa(lp677
I65533
aI0
aI9922912
aa(lp678
I54272
aI192
aI9923136
aa(lp679
I54273
aI58
aI9923140
aa(lp680
I54279
aI7
aI9923276
aa(lp681
I54280
aI199
aI9923280
aa(lp682
I54293
aI0
aI9923492
aa(lp683
I54294
aI100
aI9923522
aa(lp684
I54296
aI31
aI9923540
aa(lp685
I65533
aI0
aI9923562
aa(lp686
I54279
aI183
aI9923861
aa(lp687
I54280
aI203
aI9923865
aa(lp688
I54293
aI6
aI9924077
aa(lp689
I54294
aI98
aI9924107
aa(lp690
I54296
aI31
aI9924125
aa(lp691
I65533
aI0
aI9924147
aa(lp692
I54285
aI0
aI9924388
aa(lp693
I54284
aI0
aI9924398
aa(lp694
I54283
aI0
aI9924408
aa(lp695
I54282
aI0
aI9924418
aa(lp696
I54281
aI0
aI9924428
aa(lp697
I54280
aI0
aI9924438
aa(lp698
I54279
aI0
aI9924448
aa(lp699
I54288
aI3
aI9924567
aa(lp700
I54289
aI9
aI9924571
aa(lp701
I54293
aI4
aI9924701
aa(lp702
I54294
aI97
aI9924731
aa(lp703
I54296
aI31
aI9924749
aa(lp704
I65533
aI0
aI9924771
aa(lp705
I54296
aI31
aI9924900
aa(lp706
I54288
aI6
aI9925143
aa(lp707
I54289
aI9
aI9925147
aa(lp708
I54293
aI2
aI9925277
aa(lp709
I54294
aI96
aI9925307
aa(lp710
I54296
aI31
aI9925325
aa(lp711
I65533
aI0
aI9925347
aa(lp712
I54272
aI96
aI9925571
aa(lp713
I54273
aI29
aI9925575
aa(lp714
I54288
aI9
aI9925732
aa(lp715
I54289
aI9
aI9925736
aa(lp716
I54293
aI0
aI9925866
aa(lp717
I54294
aI95
aI9925896
aa(lp718
I54296
aI31
aI9925914
aa(lp719
I65533
aI0
aI9925936
aa(lp720
I54288
aI12
aI9926256
aa(lp721
I54289
aI9
aI9926260
aa(lp722
I54293
aI6
aI9926390
aa(lp723
I54294
aI93
aI9926420
aa(lp724
I54296
aI31
aI9926438
aa(lp725
I65533
aI0
aI9926460
aa(lp726
I54288
aI15
aI9926782
aa(lp727
I54289
aI9
aI9926786
aa(lp728
I54293
aI4
aI9926916
aa(lp729
I54294
aI92
aI9926946
aa(lp730
I54296
aI31
aI9926964
aa(lp731
I65533
aI0
aI9926986
aa(lp732
I54296
aI31
aI9927115
aa(lp733
I54288
aI18
aI9927358
aa(lp734
I54289
aI9
aI9927362
aa(lp735
I54293
aI2
aI9927492
aa(lp736
I54294
aI91
aI9927522
aa(lp737
I54296
aI31
aI9927540
aa(lp738
I65533
aI0
aI9927562
aa(lp739
I54272
aI2
aI9927786
aa(lp740
I54273
aI22
aI9927790
aa(lp741
I54288
aI21
aI9927947
aa(lp742
I54289
aI9
aI9927951
aa(lp743
I54293
aI0
aI9928081
aa(lp744
I54294
aI90
aI9928111
aa(lp745
I54296
aI31
aI9928129
aa(lp746
I65533
aI0
aI9928151
aa(lp747
I54288
aI24
aI9928471
aa(lp748
I54289
aI9
aI9928475
aa(lp749
I54293
aI6
aI9928605
aa(lp750
I54294
aI88
aI9928635
aa(lp751
I54296
aI31
aI9928653
aa(lp752
I65533
aI0
aI9928675
aa(lp753
I54288
aI27
aI9928997
aa(lp754
I54289
aI9
aI9929001
aa(lp755
I54293
aI4
aI9929131
aa(lp756
I54294
aI87
aI9929161
aa(lp757
I54296
aI31
aI9929179
aa(lp758
I65533
aI0
aI9929201
aa(lp759
I54296
aI31
aI9929330
aa(lp760
I54288
aI30
aI9929573
aa(lp761
I54289
aI9
aI9929577
aa(lp762
I54293
aI2
aI9929707
aa(lp763
I54294
aI86
aI9929737
aa(lp764
I54296
aI31
aI9929755
aa(lp765
I65533
aI0
aI9929777
aa(lp766
I54272
aI129
aI9930001
aa(lp767
I54273
aI18
aI9930005
aa(lp768
I54288
aI33
aI9930162
aa(lp769
I54289
aI9
aI9930166
aa(lp770
I54293
aI0
aI9930296
aa(lp771
I54294
aI85
aI9930326
aa(lp772
I54296
aI31
aI9930344
aa(lp773
I65533
aI0
aI9930366
aa(lp774
I54288
aI36
aI9930686
aa(lp775
I54289
aI9
aI9930690
aa(lp776
I54293
aI6
aI9930820
aa(lp777
I54294
aI83
aI9930850
aa(lp778
I54296
aI31
aI9930868
aa(lp779
I65533
aI0
aI9930890
aa(lp780
I54288
aI39
aI9931212
aa(lp781
I54289
aI9
aI9931216
aa(lp782
I54293
aI4
aI9931346
aa(lp783
I54294
aI82
aI9931376
aa(lp784
I54296
aI31
aI9931394
aa(lp785
I65533
aI0
aI9931416
aa(lp786
I54296
aI31
aI9931545
aa(lp787
I54288
aI42
aI9931788
aa(lp788
I54289
aI9
aI9931792
aa(lp789
I54293
aI2
aI9931922
aa(lp790
I54294
aI81
aI9931952
aa(lp791
I54296
aI31
aI9931970
aa(lp792
I65533
aI0
aI9931992
aa(lp793
I54272
aI176
aI9932216
aa(lp794
I54273
aI14
aI9932220
aa(lp795
I54288
aI45
aI9932377
aa(lp796
I54289
aI9
aI9932381
aa(lp797
I54293
aI0
aI9932511
aa(lp798
I54294
aI80
aI9932541
aa(lp799
I54296
aI31
aI9932559
aa(lp800
I65533
aI0
aI9932581
aa(lp801
I54288
aI48
aI9932901
aa(lp802
I54289
aI9
aI9932905
aa(lp803
I54293
aI6
aI9933035
aa(lp804
I54294
aI78
aI9933065
aa(lp805
I54296
aI31
aI9933083
aa(lp806
I65533
aI0
aI9933105
aa(lp807
I54288
aI51
aI9933427
aa(lp808
I54289
aI9
aI9933431
aa(lp809
I54293
aI4
aI9933561
aa(lp810
I54294
aI77
aI9933591
aa(lp811
I54296
aI31
aI9933609
aa(lp812
I65533
aI0
aI9933631
aa(lp813
I54296
aI31
aI9933760
aa(lp814
I54288
aI54
aI9934003
aa(lp815
I54289
aI9
aI9934007
aa(lp816
I54293
aI2
aI9934137
aa(lp817
I54294
aI76
aI9934167
aa(lp818
I54296
aI31
aI9934185
aa(lp819
I65533
aI0
aI9934207
aa(lp820
I54272
aI96
aI9934434
aa(lp821
I54273
aI29
aI9934438
aa(lp822
I54288
aI57
aI9934595
aa(lp823
I54289
aI9
aI9934599
aa(lp824
I54293
aI0
aI9934729
aa(lp825
I54294
aI75
aI9934759
aa(lp826
I54296
aI31
aI9934777
aa(lp827
I65533
aI0
aI9934799
aa(lp828
I54288
aI60
aI9935119
aa(lp829
I54289
aI9
aI9935123
aa(lp830
I54293
aI6
aI9935253
aa(lp831
I54294
aI73
aI9935283
aa(lp832
I54296
aI31
aI9935301
aa(lp833
I65533
aI0
aI9935323
aa(lp834
I54288
aI63
aI9935645
aa(lp835
I54289
aI9
aI9935649
aa(lp836
I54293
aI4
aI9935779
aa(lp837
I54294
aI72
aI9935809
aa(lp838
I54296
aI31
aI9935827
aa(lp839
I65533
aI0
aI9935849
aa(lp840
I54296
aI31
aI9935978
aa(lp841
I54288
aI66
aI9936221
aa(lp842
I54289
aI9
aI9936225
aa(lp843
I54293
aI2
aI9936355
aa(lp844
I54294
aI71
aI9936385
aa(lp845
I54296
aI31
aI9936403
aa(lp846
I65533
aI0
aI9936425
aa(lp847
I54272
aI192
aI9936649
aa(lp848
I54273
aI58
aI9936653
aa(lp849
I54288
aI69
aI9936810
aa(lp850
I54289
aI9
aI9936814
aa(lp851
I54293
aI0
aI9936944
aa(lp852
I54294
aI70
aI9936974
aa(lp853
I54296
aI31
aI9936992
aa(lp854
I65533
aI0
aI9937014
aa(lp855
I54288
aI72
aI9937334
aa(lp856
I54289
aI9
aI9937338
aa(lp857
I54293
aI6
aI9937468
aa(lp858
I54294
aI68
aI9937498
aa(lp859
I54296
aI31
aI9937516
aa(lp860
I65533
aI0
aI9937538
aa(lp861
I54288
aI75
aI9937860
aa(lp862
I54289
aI9
aI9937864
aa(lp863
I54293
aI4
aI9937994
aa(lp864
I54294
aI67
aI9938024
aa(lp865
I54296
aI31
aI9938042
aa(lp866
I65533
aI0
aI9938064
aa(lp867
I54296
aI31
aI9938193
aa(lp868
I54272
aI176
aI9938416
aa(lp869
I54273
aI14
aI9938420
aa(lp870
I54274
aI0
aI9938430
aa(lp871
I54275
aI0
aI9938434
aa(lp872
I54277
aI24
aI9938441
aa(lp873
I54278
aI106
aI9938448
aa(lp874
I54276
aI33
aI9938461
aa(lp875
I54288
aI78
aI9938810
aa(lp876
I54289
aI9
aI9938814
aa(lp877
I54293
aI2
aI9938944
aa(lp878
I54294
aI66
aI9938974
aa(lp879
I54296
aI31
aI9938992
aa(lp880
I65533
aI0
aI9939014
aa(lp881
I54272
aI176
aI9939239
aa(lp882
I54273
aI14
aI9939243
aa(lp883
I54288
aI81
aI9939400
aa(lp884
I54289
aI9
aI9939404
aa(lp885
I54293
aI0
aI9939534
aa(lp886
I54294
aI65
aI9939564
aa(lp887
I54296
aI31
aI9939582
aa(lp888
I65533
aI0
aI9939604
aa(lp889
I54288
aI84
aI9939925
aa(lp890
I54289
aI9
aI9939929
aa(lp891
I54293
aI6
aI9940059
aa(lp892
I54294
aI63
aI9940089
aa(lp893
I54296
aI31
aI9940107
aa(lp894
I65533
aI0
aI9940129
aa(lp895
I54288
aI87
aI9940452
aa(lp896
I54289
aI9
aI9940456
aa(lp897
I54293
aI4
aI9940586
aa(lp898
I54294
aI62
aI9940616
aa(lp899
I54296
aI31
aI9940634
aa(lp900
I65533
aI0
aI9940656
aa(lp901
I54296
aI31
aI9940785
aa(lp902
I54288
aI90
aI9941029
aa(lp903
I54289
aI9
aI9941033
aa(lp904
I54293
aI2
aI9941163
aa(lp905
I54294
aI61
aI9941193
aa(lp906
I54296
aI31
aI9941211
aa(lp907
I65533
aI0
aI9941233
aa(lp908
I54272
aI96
aI9941461
aa(lp909
I54273
aI29
aI9941465
aa(lp910
I54288
aI93
aI9941622
aa(lp911
I54289
aI9
aI9941626
aa(lp912
I54286
aI8
aI9941680
aa(lp913
I54287
aI11
aI9941684
aa(lp914
I54293
aI0
aI9941786
aa(lp915
I54294
aI60
aI9941816
aa(lp916
I54296
aI31
aI9941834
aa(lp917
I65533
aI0
aI9941856
aa(lp918
I54288
aI96
aI9942177
aa(lp919
I54289
aI9
aI9942181
aa(lp920
I54286
aI15
aI9942235
aa(lp921
I54287
aI11
aI9942239
aa(lp922
I54293
aI6
aI9942341
aa(lp923
I54294
aI58
aI9942371
aa(lp924
I54296
aI31
aI9942389
aa(lp925
I65533
aI0
aI9942411
aa(lp926
I54288
aI99
aI9942734
aa(lp927
I54289
aI9
aI9942738
aa(lp928
I54286
aI22
aI9942792
aa(lp929
I54287
aI11
aI9942796
aa(lp930
I54293
aI4
aI9942898
aa(lp931
I54294
aI57
aI9942928
aa(lp932
I54296
aI31
aI9942946
aa(lp933
I65533
aI0
aI9942968
aa(lp934
I54296
aI31
aI9943097
aa(lp935
I54288
aI102
aI9943341
aa(lp936
I54289
aI9
aI9943345
aa(lp937
I54286
aI29
aI9943399
aa(lp938
I54287
aI11
aI9943403
aa(lp939
I54293
aI2
aI9943505
aa(lp940
I54294
aI56
aI9943535
aa(lp941
I54296
aI31
aI9943553
aa(lp942
I65533
aI0
aI9943575
aa(lp943
I54272
aI192
aI9943800
aa(lp944
I54273
aI58
aI9943804
aa(lp945
I54288
aI105
aI9943961
aa(lp946
I54289
aI9
aI9943965
aa(lp947
I54286
aI36
aI9944019
aa(lp948
I54287
aI11
aI9944023
aa(lp949
I54293
aI0
aI9944125
aa(lp950
I54294
aI55
aI9944155
aa(lp951
I54296
aI31
aI9944173
aa(lp952
I65533
aI0
aI9944195
aa(lp953
I54288
aI108
aI9944516
aa(lp954
I54289
aI9
aI9944520
aa(lp955
I54286
aI43
aI9944574
aa(lp956
I54287
aI11
aI9944578
aa(lp957
I54293
aI6
aI9944680
aa(lp958
I54294
aI53
aI9944710
aa(lp959
I54296
aI31
aI9944728
aa(lp960
I65533
aI0
aI9944750
aa(lp961
I54288
aI111
aI9945073
aa(lp962
I54289
aI9
aI9945077
aa(lp963
I54286
aI50
aI9945131
aa(lp964
I54287
aI11
aI9945135
aa(lp965
I54293
aI4
aI9945237
aa(lp966
I54294
aI52
aI9945267
aa(lp967
I54296
aI31
aI9945285
aa(lp968
I65533
aI0
aI9945307
aa(lp969
I54296
aI31
aI9945436
aa(lp970
I54288
aI114
aI9945680
aa(lp971
I54289
aI9
aI9945684
aa(lp972
I54286
aI57
aI9945738
aa(lp973
I54287
aI11
aI9945742
aa(lp974
I54293
aI2
aI9945844
aa(lp975
I54294
aI51
aI9945874
aa(lp976
I54296
aI31
aI9945892
aa(lp977
I65533
aI0
aI9945914
aa(lp978
I54272
aI96
aI9946139
aa(lp979
I54273
aI29
aI9946143
aa(lp980
I54288
aI117
aI9946300
aa(lp981
I54289
aI9
aI9946304
aa(lp982
I54286
aI64
aI9946358
aa(lp983
I54287
aI11
aI9946362
aa(lp984
I54293
aI0
aI9946464
aa(lp985
I54294
aI50
aI9946494
aa(lp986
I54296
aI31
aI9946512
aa(lp987
I65533
aI0
aI9946534
aa(lp988
I54288
aI120
aI9946855
aa(lp989
I54289
aI9
aI9946859
aa(lp990
I54286
aI71
aI9946913
aa(lp991
I54287
aI11
aI9946917
aa(lp992
I54293
aI2
aI9947019
aa(lp993
I54294
aI51
aI9947049
aa(lp994
I54296
aI31
aI9947067
aa(lp995
I65533
aI0
aI9947089
aa(lp996
I54288
aI123
aI9947412
aa(lp997
I54289
aI9
aI9947416
aa(lp998
I54286
aI64
aI9947476
aa(lp999
I54287
aI11
aI9947480
aa(lp1000
I54293
aI4
aI9947582
aa(lp1001
I54294
aI52
aI9947612
aa(lp1002
I54296
aI31
aI9947630
aa(lp1003
I65533
aI0
aI9947652
aa(lp1004
I54296
aI31
aI9947781
aa(lp1005
I54288
aI126
aI9948025
aa(lp1006
I54289
aI9
aI9948029
aa(lp1007
I54286
aI57
aI9948089
aa(lp1008
I54287
aI11
aI9948093
aa(lp1009
I54293
aI6
aI9948195
aa(lp1010
I54294
aI53
aI9948225
aa(lp1011
I54296
aI31
aI9948243
aa(lp1012
I65533
aI0
aI9948265
aa(lp1013
I54272
aI2
aI9948490
aa(lp1014
I54273
aI22
aI9948494
aa(lp1015
I54288
aI129
aI9948651
aa(lp1016
I54289
aI9
aI9948655
aa(lp1017
I54286
aI50
aI9948715
aa(lp1018
I54287
aI11
aI9948719
aa(lp1019
I54293
aI0
aI9948821
aa(lp1020
I54294
aI55
aI9948851
aa(lp1021
I54296
aI31
aI9948869
aa(lp1022
I65533
aI0
aI9948891
aa(lp1023
I54288
aI132
aI9949212
aa(lp1024
I54289
aI9
aI9949216
aa(lp1025
I54286
aI43
aI9949276
aa(lp1026
I54287
aI11
aI9949280
aa(lp1027
I54293
aI2
aI9949382
aa(lp1028
I54294
aI56
aI9949412
aa(lp1029
I54296
aI31
aI9949430
aa(lp1030
I65533
aI0
aI9949452
aa(lp1031
I54288
aI135
aI9949775
aa(lp1032
I54289
aI9
aI9949779
aa(lp1033
I54286
aI36
aI9949839
aa(lp1034
I54287
aI11
aI9949843
aa(lp1035
I54293
aI4
aI9949945
aa(lp1036
I54294
aI57
aI9949975
aa(lp1037
I54296
aI31
aI9949993
aa(lp1038
I65533
aI0
aI9950015
aa(lp1039
I54296
aI31
aI9950144
aa(lp1040
I54288
aI138
aI9950388
aa(lp1041
I54289
aI9
aI9950392
aa(lp1042
I54286
aI29
aI9950452
aa(lp1043
I54287
aI11
aI9950456
aa(lp1044
I54293
aI6
aI9950558
aa(lp1045
I54294
aI58
aI9950588
aa(lp1046
I54296
aI31
aI9950606
aa(lp1047
I65533
aI0
aI9950628
aa(lp1048
I54272
aI129
aI9950853
aa(lp1049
I54273
aI18
aI9950857
aa(lp1050
I54288
aI141
aI9951014
aa(lp1051
I54289
aI9
aI9951018
aa(lp1052
I54286
aI22
aI9951078
aa(lp1053
I54287
aI11
aI9951082
aa(lp1054
I54293
aI0
aI9951184
aa(lp1055
I54294
aI60
aI9951214
aa(lp1056
I54296
aI31
aI9951232
aa(lp1057
I65533
aI0
aI9951254
aa(lp1058
I54288
aI144
aI9951575
aa(lp1059
I54289
aI9
aI9951579
aa(lp1060
I54286
aI15
aI9951639
aa(lp1061
I54287
aI11
aI9951643
aa(lp1062
I54293
aI6
aI9951751
aa(lp1063
I54294
aI58
aI9951781
aa(lp1064
I54296
aI31
aI9951799
aa(lp1065
I65533
aI0
aI9951821
aa(lp1066
I54288
aI147
aI9952144
aa(lp1067
I54289
aI9
aI9952148
aa(lp1068
I54286
aI8
aI9952208
aa(lp1069
I54287
aI11
aI9952212
aa(lp1070
I54293
aI4
aI9952320
aa(lp1071
I54294
aI57
aI9952350
aa(lp1072
I54296
aI31
aI9952368
aa(lp1073
I65533
aI0
aI9952390
aa(lp1074
I54296
aI31
aI9952519
aa(lp1075
I54288
aI150
aI9952763
aa(lp1076
I54289
aI9
aI9952767
aa(lp1077
I54286
aI1
aI9952827
aa(lp1078
I54287
aI11
aI9952831
aa(lp1079
I54293
aI2
aI9952939
aa(lp1080
I54294
aI56
aI9952969
aa(lp1081
I54296
aI31
aI9952987
aa(lp1082
I65533
aI0
aI9953009
aa(lp1083
I54272
aI176
aI9953234
aa(lp1084
I54273
aI14
aI9953238
aa(lp1085
I54288
aI153
aI9953395
aa(lp1086
I54289
aI9
aI9953399
aa(lp1087
I54286
aI250
aI9953459
aa(lp1088
I54287
aI10
aI9953463
aa(lp1089
I54293
aI0
aI9953571
aa(lp1090
I54294
aI55
aI9953601
aa(lp1091
I54296
aI31
aI9953619
aa(lp1092
I65533
aI0
aI9953641
aa(lp1093
I54288
aI156
aI9953962
aa(lp1094
I54289
aI9
aI9953966
aa(lp1095
I54286
aI243
aI9954026
aa(lp1096
I54287
aI10
aI9954030
aa(lp1097
I54293
aI6
aI9954138
aa(lp1098
I54294
aI53
aI9954168
aa(lp1099
I54296
aI31
aI9954186
aa(lp1100
I65533
aI0
aI9954208
aa(lp1101
I54288
aI159
aI9954531
aa(lp1102
I54289
aI9
aI9954535
aa(lp1103
I54286
aI236
aI9954595
aa(lp1104
I54287
aI10
aI9954599
aa(lp1105
I54293
aI4
aI9954707
aa(lp1106
I54294
aI52
aI9954737
aa(lp1107
I54296
aI31
aI9954755
aa(lp1108
I65533
aI0
aI9954777
aa(lp1109
I54296
aI31
aI9954906
aa(lp1110
I54288
aI162
aI9955150
aa(lp1111
I54289
aI9
aI9955154
aa(lp1112
I54286
aI229
aI9955214
aa(lp1113
I54287
aI10
aI9955218
aa(lp1114
I54293
aI2
aI9955326
aa(lp1115
I54294
aI51
aI9955356
aa(lp1116
I54296
aI31
aI9955374
aa(lp1117
I65533
aI0
aI9955396
aa(lp1118
I54272
aI96
aI9955624
aa(lp1119
I54273
aI29
aI9955628
aa(lp1120
I54288
aI165
aI9955785
aa(lp1121
I54289
aI9
aI9955789
aa(lp1122
I54286
aI222
aI9955849
aa(lp1123
I54287
aI10
aI9955853
aa(lp1124
I54293
aI0
aI9955961
aa(lp1125
I54294
aI50
aI9955991
aa(lp1126
I54296
aI31
aI9956009
aa(lp1127
I65533
aI0
aI9956031
aa(lp1128
I54276
aI32
aI9956180
aa(lp1129
I54288
aI168
aI9956361
aa(lp1130
I54289
aI9
aI9956365
aa(lp1131
I54286
aI215
aI9956425
aa(lp1132
I54287
aI10
aI9956429
aa(lp1133
I54293
aI6
aI9956537
aa(lp1134
I54294
aI48
aI9956567
aa(lp1135
I54296
aI31
aI9956585
aa(lp1136
I65533
aI0
aI9956607
aa(lp1137
I54288
aI171
aI9956929
aa(lp1138
I54289
aI9
aI9956933
aa(lp1139
I54286
aI208
aI9956993
aa(lp1140
I54287
aI10
aI9956997
aa(lp1141
I54293
aI4
aI9957105
aa(lp1142
I54294
aI47
aI9957135
aa(lp1143
I54296
aI31
aI9957153
aa(lp1144
I65533
aI0
aI9957175
aa(lp1145
I54296
aI31
aI9957304
aa(lp1146
I54288
aI174
aI9957547
aa(lp1147
I54289
aI9
aI9957551
aa(lp1148
I54286
aI201
aI9957611
aa(lp1149
I54287
aI10
aI9957615
aa(lp1150
I54293
aI2
aI9957723
aa(lp1151
I54294
aI46
aI9957753
aa(lp1152
I54296
aI31
aI9957771
aa(lp1153
I65533
aI0
aI9957793
aa(lp1154
I54272
aI192
aI9958017
aa(lp1155
I54273
aI58
aI9958021
aa(lp1156
I54288
aI177
aI9958178
aa(lp1157
I54289
aI9
aI9958182
aa(lp1158
I54286
aI194
aI9958242
aa(lp1159
I54287
aI10
aI9958246
aa(lp1160
I54293
aI0
aI9958354
aa(lp1161
I54294
aI45
aI9958384
aa(lp1162
I54296
aI31
aI9958402
aa(lp1163
I65533
aI0
aI9958424
aa(lp1164
I54288
aI180
aI9958744
aa(lp1165
I54289
aI9
aI9958748
aa(lp1166
I54286
aI187
aI9958808
aa(lp1167
I54287
aI10
aI9958812
aa(lp1168
I54293
aI6
aI9958920
aa(lp1169
I54294
aI43
aI9958950
aa(lp1170
I54296
aI31
aI9958968
aa(lp1171
I65533
aI0
aI9958990
aa(lp1172
I54288
aI183
aI9959312
aa(lp1173
I54289
aI9
aI9959316
aa(lp1174
I54286
aI194
aI9959382
aa(lp1175
I54287
aI10
aI9959386
aa(lp1176
I54293
aI4
aI9959494
aa(lp1177
I54294
aI42
aI9959524
aa(lp1178
I54296
aI31
aI9959542
aa(lp1179
I65533
aI0
aI9959564
aa(lp1180
I54296
aI31
aI9959693
aa(lp1181
I54283
aI8
aI9959882
aa(lp1182
I54279
aI239
aI9959902
aa(lp1183
I54280
aI34
aI9959906
aa(lp1184
I54281
aI0
aI9959918
aa(lp1185
I54282
aI0
aI9959922
aa(lp1186
I54284
aI0
aI9959930
aa(lp1187
I54285
aI242
aI9959938
aa(lp1188
I54283
aI17
aI9959952
aa(lp1189
I54288
aI186
aI9960315
aa(lp1190
I54289
aI9
aI9960319
aa(lp1191
I54286
aI201
aI9960385
aa(lp1192
I54287
aI10
aI9960389
aa(lp1193
I54293
aI2
aI9960497
aa(lp1194
I54294
aI41
aI9960527
aa(lp1195
I54296
aI31
aI9960545
aa(lp1196
I65533
aI0
aI9960567
aa(lp1197
I54272
aI96
aI9960791
aa(lp1198
I54273
aI29
aI9960795
aa(lp1199
I54279
aI159
aI9960932
aa(lp1200
I54280
aI39
aI9960936
aa(lp1201
I54288
aI189
aI9961056
aa(lp1202
I54289
aI9
aI9961060
aa(lp1203
I54286
aI208
aI9961126
aa(lp1204
I54287
aI10
aI9961130
aa(lp1205
I54293
aI0
aI9961238
aa(lp1206
I54294
aI40
aI9961268
aa(lp1207
I54296
aI31
aI9961286
aa(lp1208
I65533
aI0
aI9961308
aa(lp1209
I54279
aI79
aI9961608
aa(lp1210
I54280
aI44
aI9961612
aa(lp1211
I54288
aI192
aI9961732
aa(lp1212
I54289
aI9
aI9961736
aa(lp1213
I54286
aI215
aI9961802
aa(lp1214
I54287
aI10
aI9961806
aa(lp1215
I54293
aI2
aI9961920
aa(lp1216
I54294
aI41
aI9961950
aa(lp1217
I54296
aI31
aI9961968
aa(lp1218
I65533
aI0
aI9961990
aa(lp1219
I54279
aI255
aI9962292
aa(lp1220
I54280
aI48
aI9962296
aa(lp1221
I54288
aI195
aI9962416
aa(lp1222
I54289
aI9
aI9962420
aa(lp1223
I54286
aI222
aI9962486
aa(lp1224
I54287
aI10
aI9962490
aa(lp1225
I54293
aI4
aI9962604
aa(lp1226
I54294
aI42
aI9962634
aa(lp1227
I54296
aI31
aI9962652
aa(lp1228
I65533
aI0
aI9962674
aa(lp1229
I54296
aI31
aI9962803
aa(lp1230
I54279
aI175
aI9963026
aa(lp1231
I54280
aI53
aI9963030
aa(lp1232
I54288
aI198
aI9963150
aa(lp1233
I54289
aI9
aI9963154
aa(lp1234
I54286
aI229
aI9963220
aa(lp1235
I54287
aI10
aI9963224
aa(lp1236
I54293
aI6
aI9963338
aa(lp1237
I54294
aI43
aI9963368
aa(lp1238
I54296
aI31
aI9963386
aa(lp1239
I65533
aI0
aI9963408
aa(lp1240
I54272
aI2
aI9963632
aa(lp1241
I54273
aI22
aI9963636
aa(lp1242
I54283
aI16
aI9963717
aa(lp1243
I54279
aI95
aI9963782
aa(lp1244
I54280
aI58
aI9963786
aa(lp1245
I54288
aI201
aI9963906
aa(lp1246
I54289
aI9
aI9963910
aa(lp1247
I54286
aI236
aI9963976
aa(lp1248
I54287
aI10
aI9963980
aa(lp1249
I54293
aI0
aI9964094
aa(lp1250
I54294
aI45
aI9964124
aa(lp1251
I54296
aI31
aI9964142
aa(lp1252
I65533
aI0
aI9964164
aa(lp1253
I54279
aI15
aI9964463
aa(lp1254
I54280
aI63
aI9964467
aa(lp1255
I54288
aI204
aI9964587
aa(lp1256
I54289
aI9
aI9964591
aa(lp1257
I54286
aI243
aI9964657
aa(lp1258
I54287
aI10
aI9964661
aa(lp1259
I54293
aI2
aI9964775
aa(lp1260
I54294
aI46
aI9964805
aa(lp1261
I54296
aI31
aI9964823
aa(lp1262
I65533
aI0
aI9964845
aa(lp1263
I54279
aI191
aI9965146
aa(lp1264
I54280
aI67
aI9965150
aa(lp1265
I54288
aI207
aI9965270
aa(lp1266
I54289
aI9
aI9965274
aa(lp1267
I54286
aI250
aI9965340
aa(lp1268
I54287
aI10
aI9965344
aa(lp1269
I54293
aI4
aI9965458
aa(lp1270
I54294
aI47
aI9965488
aa(lp1271
I54296
aI31
aI9965506
aa(lp1272
I65533
aI0
aI9965528
aa(lp1273
I54296
aI31
aI9965657
aa(lp1274
I54279
aI111
aI9965879
aa(lp1275
I54280
aI72
aI9965883
aa(lp1276
I54288
aI210
aI9966003
aa(lp1277
I54289
aI9
aI9966007
aa(lp1278
I54286
aI1
aI9966073
aa(lp1279
I54287
aI11
aI9966077
aa(lp1280
I54293
aI6
aI9966191
aa(lp1281
I54294
aI48
aI9966221
aa(lp1282
I54296
aI31
aI9966239
aa(lp1283
I65533
aI0
aI9966261
aa(lp1284
I54272
aI129
aI9966485
aa(lp1285
I54273
aI18
aI9966489
aa(lp1286
I54279
aI31
aI9966625
aa(lp1287
I54280
aI77
aI9966629
aa(lp1288
I54288
aI213
aI9966749
aa(lp1289
I54289
aI9
aI9966753
aa(lp1290
I54286
aI8
aI9966882
aa(lp1291
I54287
aI11
aI9966886
aa(lp1292
I54293
aI0
aI9967000
aa(lp1293
I54294
aI50
aI9967030
aa(lp1294
I54296
aI31
aI9967048
aa(lp1295
I65533
aI0
aI9967070
aa(lp1296
I54279
aI207
aI9967369
aa(lp1297
I54280
aI81
aI9967373
aa(lp1298
I54288
aI216
aI9967493
aa(lp1299
I54289
aI9
aI9967497
aa(lp1300
I54286
aI15
aI9967551
aa(lp1301
I54287
aI11
aI9967555
aa(lp1302
I54293
aI2
aI9967732
aa(lp1303
I54294
aI51
aI9967762
aa(lp1304
I54296
aI31
aI9967780
aa(lp1305
I65533
aI0
aI9967802
aa(lp1306
I54285
aI0
aI9968043
aa(lp1307
I54284
aI0
aI9968053
aa(lp1308
I54283
aI0
aI9968063
aa(lp1309
I54282
aI0
aI9968073
aa(lp1310
I54281
aI0
aI9968083
aa(lp1311
I54280
aI0
aI9968093
aa(lp1312
I54279
aI0
aI9968103
aa(lp1313
I54288
aI219
aI9968222
aa(lp1314
I54289
aI9
aI9968226
aa(lp1315
I54286
aI22
aI9968280
aa(lp1316
I54287
aI11
aI9968284
aa(lp1317
I54293
aI4
aI9968386
aa(lp1318
I54294
aI52
aI9968416
aa(lp1319
I54296
aI31
aI9968434
aa(lp1320
I65533
aI0
aI9968456
aa(lp1321
I54296
aI31
aI9968585
aa(lp1322
I54288
aI222
aI9968828
aa(lp1323
I54289
aI9
aI9968832
aa(lp1324
I54286
aI29
aI9968886
aa(lp1325
I54287
aI11
aI9968890
aa(lp1326
I54293
aI6
aI9968992
aa(lp1327
I54294
aI53
aI9969022
aa(lp1328
I54296
aI31
aI9969040
aa(lp1329
I65533
aI0
aI9969062
aa(lp1330
I54272
aI176
aI9969286
aa(lp1331
I54273
aI14
aI9969290
aa(lp1332
I54288
aI225
aI9969447
aa(lp1333
I54289
aI9
aI9969451
aa(lp1334
I54286
aI36
aI9969505
aa(lp1335
I54287
aI11
aI9969509
aa(lp1336
I54293
aI0
aI9969611
aa(lp1337
I54294
aI55
aI9969641
aa(lp1338
I54296
aI31
aI9969659
aa(lp1339
I65533
aI0
aI9969681
aa(lp1340
I54288
aI228
aI9970001
aa(lp1341
I54289
aI9
aI9970005
aa(lp1342
I54286
aI43
aI9970059
aa(lp1343
I54287
aI11
aI9970063
aa(lp1344
I54293
aI2
aI9970165
aa(lp1345
I54294
aI56
aI9970195
aa(lp1346
I54296
aI31
aI9970213
aa(lp1347
I65533
aI0
aI9970235
aa(lp1348
I54288
aI231
aI9970557
aa(lp1349
I54289
aI9
aI9970561
aa(lp1350
I54286
aI50
aI9970615
aa(lp1351
I54287
aI11
aI9970619
aa(lp1352
I54293
aI4
aI9970721
aa(lp1353
I54294
aI57
aI9970751
aa(lp1354
I54296
aI31
aI9970769
aa(lp1355
I65533
aI0
aI9970791
aa(lp1356
I54296
aI31
aI9970920
aa(lp1357
I54288
aI234
aI9971163
aa(lp1358
I54289
aI9
aI9971167
aa(lp1359
I54286
aI57
aI9971221
aa(lp1360
I54287
aI11
aI9971225
aa(lp1361
I54293
aI6
aI9971327
aa(lp1362
I54294
aI58
aI9971357
aa(lp1363
I54296
aI31
aI9971375
aa(lp1364
I65533
aI0
aI9971397
aa(lp1365
I54272
aI96
aI9971624
aa(lp1366
I54273
aI29
aI9971628
aa(lp1367
I54288
aI237
aI9971785
aa(lp1368
I54289
aI9
aI9971789
aa(lp1369
I54286
aI64
aI9971843
aa(lp1370
I54287
aI11
aI9971847
aa(lp1371
I54293
aI0
aI9971949
aa(lp1372
I54294
aI60
aI9971979
aa(lp1373
I54296
aI31
aI9971997
aa(lp1374
I65533
aI0
aI9972019
aa(lp1375
I54288
aI240
aI9972339
aa(lp1376
I54289
aI9
aI9972343
aa(lp1377
I54286
aI71
aI9972397
aa(lp1378
I54287
aI11
aI9972401
aa(lp1379
I54293
aI6
aI9972509
aa(lp1380
I54294
aI58
aI9972539
aa(lp1381
I54296
aI31
aI9972557
aa(lp1382
I65533
aI0
aI9972579
aa(lp1383
I54288
aI243
aI9972901
aa(lp1384
I54289
aI9
aI9972905
aa(lp1385
I54286
aI64
aI9972965
aa(lp1386
I54287
aI11
aI9972969
aa(lp1387
I54293
aI4
aI9973077
aa(lp1388
I54294
aI57
aI9973107
aa(lp1389
I54296
aI31
aI9973125
aa(lp1390
I65533
aI0
aI9973147
aa(lp1391
I54296
aI31
aI9973276
aa(lp1392
I54288
aI246
aI9973519
aa(lp1393
I54289
aI9
aI9973523
aa(lp1394
I54286
aI57
aI9973583
aa(lp1395
I54287
aI11
aI9973587
aa(lp1396
I54293
aI2
aI9973695
aa(lp1397
I54294
aI56
aI9973725
aa(lp1398
I54296
aI31
aI9973743
aa(lp1399
I65533
aI0
aI9973765
aa(lp1400
I54272
aI192
aI9973989
aa(lp1401
I54273
aI58
aI9973993
aa(lp1402
I54288
aI249
aI9974150
aa(lp1403
I54289
aI9
aI9974154
aa(lp1404
I54286
aI50
aI9974214
aa(lp1405
I54287
aI11
aI9974218
aa(lp1406
I54293
aI0
aI9974326
aa(lp1407
I54294
aI55
aI9974356
aa(lp1408
I54296
aI31
aI9974374
aa(lp1409
I65533
aI0
aI9974396
aa(lp1410
I54288
aI252
aI9974716
aa(lp1411
I54289
aI9
aI9974720
aa(lp1412
I54286
aI43
aI9974780
aa(lp1413
I54287
aI11
aI9974784
aa(lp1414
I54293
aI6
aI9974892
aa(lp1415
I54294
aI53
aI9974922
aa(lp1416
I54296
aI31
aI9974940
aa(lp1417
I65533
aI0
aI9974962
aa(lp1418
I54290
aI64
aI9975247
aa(lp1419
I54288
aI255
aI9975303
aa(lp1420
I54289
aI9
aI9975307
aa(lp1421
I54286
aI36
aI9975367
aa(lp1422
I54287
aI11
aI9975371
aa(lp1423
I54293
aI4
aI9975479
aa(lp1424
I54294
aI52
aI9975509
aa(lp1425
I54296
aI31
aI9975527
aa(lp1426
I65533
aI0
aI9975549
aa(lp1427
I54296
aI31
aI9975678
aa(lp1428
I54288
aI2
aI9975932
aa(lp1429
I54289
aI10
aI9975936
aa(lp1430
I54286
aI29
aI9975996
aa(lp1431
I54287
aI11
aI9976000
aa(lp1432
I54293
aI2
aI9976108
aa(lp1433
I54294
aI51
aI9976138
aa(lp1434
I54296
aI31
aI9976156
aa(lp1435
I65533
aI0
aI9976178
aa(lp1436
I54272
aI96
aI9976402
aa(lp1437
I54273
aI29
aI9976406
aa(lp1438
I54288
aI5
aI9976574
aa(lp1439
I54289
aI10
aI9976578
aa(lp1440
I54286
aI22
aI9976638
aa(lp1441
I54287
aI11
aI9976642
aa(lp1442
I54293
aI0
aI9976750
aa(lp1443
I54294
aI50
aI9976780
aa(lp1444
I54296
aI31
aI9976798
aa(lp1445
I65533
aI0
aI9976820
aa(lp1446
I54288
aI8
aI9977151
aa(lp1447
I54289
aI10
aI9977155
aa(lp1448
I54286
aI15
aI9977215
aa(lp1449
I54287
aI11
aI9977219
aa(lp1450
I54293
aI6
aI9977327
aa(lp1451
I54294
aI48
aI9977357
aa(lp1452
I54296
aI31
aI9977375
aa(lp1453
I65533
aI0
aI9977397
aa(lp1454
I54288
aI11
aI9977730
aa(lp1455
I54289
aI10
aI9977734
aa(lp1456
I54286
aI8
aI9977794
aa(lp1457
I54287
aI11
aI9977798
aa(lp1458
I54293
aI4
aI9977906
aa(lp1459
I54294
aI47
aI9977936
aa(lp1460
I54296
aI31
aI9977954
aa(lp1461
I65533
aI0
aI9977976
aa(lp1462
I54296
aI31
aI9978105
aa(lp1463
I54288
aI14
aI9978359
aa(lp1464
I54289
aI10
aI9978363
aa(lp1465
I54286
aI1
aI9978423
aa(lp1466
I54287
aI11
aI9978427
aa(lp1467
I54293
aI2
aI9978535
aa(lp1468
I54294
aI46
aI9978565
aa(lp1469
I54296
aI31
aI9978583
aa(lp1470
I65533
aI0
aI9978605
aa(lp1471
I54272
aI2
aI9978829
aa(lp1472
I54273
aI22
aI9978833
aa(lp1473
I54288
aI17
aI9979001
aa(lp1474
I54289
aI10
aI9979005
aa(lp1475
I54286
aI250
aI9979065
aa(lp1476
I54287
aI10
aI9979069
aa(lp1477
I54293
aI0
aI9979177
aa(lp1478
I54294
aI45
aI9979207
aa(lp1479
I54296
aI31
aI9979225
aa(lp1480
I65533
aI0
aI9979247
aa(lp1481
I54288
aI20
aI9979578
aa(lp1482
I54289
aI10
aI9979582
aa(lp1483
I54286
aI243
aI9979642
aa(lp1484
I54287
aI10
aI9979646
aa(lp1485
I54293
aI6
aI9979754
aa(lp1486
I54294
aI43
aI9979784
aa(lp1487
I54296
aI31
aI9979802
aa(lp1488
I65533
aI0
aI9979824
aa(lp1489
I54288
aI23
aI9980157
aa(lp1490
I54289
aI10
aI9980161
aa(lp1491
I54286
aI236
aI9980221
aa(lp1492
I54287
aI10
aI9980225
aa(lp1493
I54293
aI4
aI9980333
aa(lp1494
I54294
aI42
aI9980363
aa(lp1495
I54296
aI31
aI9980381
aa(lp1496
I65533
aI0
aI9980403
aa(lp1497
I54296
aI31
aI9980532
aa(lp1498
I54288
aI26
aI9980786
aa(lp1499
I54289
aI10
aI9980790
aa(lp1500
I54286
aI229
aI9980850
aa(lp1501
I54287
aI10
aI9980854
aa(lp1502
I54293
aI2
aI9980962
aa(lp1503
I54294
aI41
aI9980992
aa(lp1504
I54296
aI31
aI9981010
aa(lp1505
I65533
aI0
aI9981032
aa(lp1506
I54272
aI129
aI9981256
aa(lp1507
I54273
aI18
aI9981260
aa(lp1508
I54288
aI29
aI9981428
aa(lp1509
I54289
aI10
aI9981432
aa(lp1510
I54286
aI222
aI9981492
aa(lp1511
I54287
aI10
aI9981496
aa(lp1512
I54293
aI0
aI9981604
aa(lp1513
I54294
aI40
aI9981634
aa(lp1514
I54296
aI31
aI9981652
aa(lp1515
I65533
aI0
aI9981674
aa(lp1516
I54288
aI32
aI9982005
aa(lp1517
I54289
aI10
aI9982009
aa(lp1518
I54286
aI215
aI9982069
aa(lp1519
I54287
aI10
aI9982073
aa(lp1520
I54293
aI2
aI9982187
aa(lp1521
I54294
aI41
aI9982217
aa(lp1522
I54296
aI31
aI9982235
aa(lp1523
I65533
aI0
aI9982257
aa(lp1524
I54288
aI35
aI9982590
aa(lp1525
I54289
aI10
aI9982594
aa(lp1526
I54286
aI208
aI9982654
aa(lp1527
I54287
aI10
aI9982658
aa(lp1528
I54293
aI4
aI9982772
aa(lp1529
I54294
aI42
aI9982802
aa(lp1530
I54296
aI31
aI9982820
aa(lp1531
I65533
aI0
aI9982842
aa(lp1532
I54296
aI31
aI9982971
aa(lp1533
I54283
aI8
aI9983160
aa(lp1534
I54279
aI239
aI9983180
aa(lp1535
I54280
aI34
aI9983184
aa(lp1536
I54281
aI0
aI9983196
aa(lp1537
I54282
aI0
aI9983200
aa(lp1538
I54284
aI0
aI9983208
aa(lp1539
I54285
aI242
aI9983216
aa(lp1540
I54283
aI17
aI9983230
aa(lp1541
I54288
aI38
aI9983604
aa(lp1542
I54289
aI10
aI9983608
aa(lp1543
I54286
aI201
aI9983668
aa(lp1544
I54287
aI10
aI9983672
aa(lp1545
I54290
aI8
aI9983739
aa(lp1546
I54293
aI4
aI9983983
aa(lp1547
I54294
aI112
aI9984013
aa(lp1548
I54286
aI88
aI9984040
aa(lp1549
I54287
aI7
aI9984044
aa(lp1550
I54288
aI0
aI9984054
aa(lp1551
I54289
aI9
aI9984058
aa(lp1552
I54291
aI24
aI9984065
aa(lp1553
I54292
aI107
aI9984072
aa(lp1554
I54290
aI65
aI9984084
aa(lp1555
I54293
aI2
aI9984440
aa(lp1556
I54294
aI111
aI9984470
aa(lp1557
I54296
aI31
aI9984488
aa(lp1558
I65533
aI0
aI9984510
aa(lp1559
I54272
aI176
aI9984734
aa(lp1560
I54273
aI14
aI9984738
aa(lp1561
I54279
aI159
aI9984875
aa(lp1562
I54280
aI39
aI9984879
aa(lp1563
I54293
aI0
aI9985091
aa(lp1564
I54294
aI110
aI9985121
aa(lp1565
I54296
aI31
aI9985139
aa(lp1566
I65533
aI0
aI9985161
aa(lp1567
I54279
aI79
aI9985461
aa(lp1568
I54280
aI44
aI9985465
aa(lp1569
I54293
aI6
aI9985677
aa(lp1570
I54294
aI108
aI9985707
aa(lp1571
I54296
aI31
aI9985725
aa(lp1572
I65533
aI0
aI9985747
aa(lp1573
I54279
aI255
aI9986049
aa(lp1574
I54280
aI48
aI9986053
aa(lp1575
I54293
aI4
aI9986265
aa(lp1576
I54294
aI107
aI9986295
aa(lp1577
I54296
aI31
aI9986313
aa(lp1578
I65533
aI0
aI9986335
aa(lp1579
I54296
aI31
aI9986464
aa(lp1580
I54279
aI175
aI9986687
aa(lp1581
I54280
aI53
aI9986691
aa(lp1582
I54293
aI2
aI9986903
aa(lp1583
I54294
aI106
aI9986933
aa(lp1584
I54296
aI31
aI9986951
aa(lp1585
I65533
aI0
aI9986973
aa(lp1586
I54272
aI96
aI9987200
aa(lp1587
I54273
aI29
aI9987204
aa(lp1588
I54283
aI16
aI9987285
aa(lp1589
I54279
aI95
aI9987350
aa(lp1590
I54280
aI58
aI9987354
aa(lp1591
I54293
aI0
aI9987566
aa(lp1592
I54294
aI105
aI9987596
aa(lp1593
I54296
aI31
aI9987614
aa(lp1594
I65533
aI0
aI9987636
aa(lp1595
I54279
aI15
aI9987935
aa(lp1596
I54280
aI63
aI9987939
aa(lp1597
I54293
aI6
aI9988151
aa(lp1598
I54294
aI103
aI9988181
aa(lp1599
I54296
aI31
aI9988199
aa(lp1600
I65533
aI0
aI9988221
aa(lp1601
I54279
aI191
aI9988522
aa(lp1602
I54280
aI67
aI9988526
aa(lp1603
I54293
aI4
aI9988738
aa(lp1604
I54294
aI102
aI9988768
aa(lp1605
I54296
aI31
aI9988786
aa(lp1606
I65533
aI0
aI9988808
aa(lp1607
I54296
aI31
aI9988937
aa(lp1608
I54279
aI111
aI9989159
aa(lp1609
I54280
aI72
aI9989163
aa(lp1610
I54293
aI2
aI9989375
aa(lp1611
I54294
aI101
aI9989405
aa(lp1612
I54296
aI31
aI9989423
aa(lp1613
I65533
aI0
aI9989445
aa(lp1614
I54272
aI192
aI9989669
aa(lp1615
I54273
aI58
aI9989673
aa(lp1616
I54279
aI31
aI9989809
aa(lp1617
I54280
aI77
aI9989813
aa(lp1618
I54293
aI0
aI9990025
aa(lp1619
I54294
aI100
aI9990055
aa(lp1620
I54296
aI31
aI9990073
aa(lp1621
I65533
aI0
aI9990095
aa(lp1622
I54279
aI207
aI9990394
aa(lp1623
I54280
aI81
aI9990398
aa(lp1624
I54293
aI6
aI9990610
aa(lp1625
I54294
aI98
aI9990640
aa(lp1626
I54296
aI31
aI9990658
aa(lp1627
I65533
aI0
aI9990680
aa(lp1628
I54285
aI0
aI9990921
aa(lp1629
I54284
aI0
aI9990931
aa(lp1630
I54283
aI0
aI9990941
aa(lp1631
I54282
aI0
aI9990951
aa(lp1632
I54281
aI0
aI9990961
aa(lp1633
I54280
aI0
aI9990971
aa(lp1634
I54279
aI0
aI9990981
aa(lp1635
I54288
aI3
aI9991100
aa(lp1636
I54289
aI9
aI9991104
aa(lp1637
I54293
aI4
aI9991234
aa(lp1638
I54294
aI97
aI9991264
aa(lp1639
I54296
aI31
aI9991282
aa(lp1640
I65533
aI0
aI9991304
aa(lp1641
I54296
aI31
aI9991433
aa(lp1642
I54288
aI6
aI9991676
aa(lp1643
I54289
aI9
aI9991680
aa(lp1644
I54293
aI2
aI9991810
aa(lp1645
I54294
aI96
aI9991840
aa(lp1646
I54296
aI31
aI9991858
aa(lp1647
I65533
aI0
aI9991880
aa(lp1648
I54272
aI96
aI9992104
aa(lp1649
I54273
aI29
aI9992108
aa(lp1650
I54288
aI9
aI9992265
aa(lp1651
I54289
aI9
aI9992269
aa(lp1652
I54293
aI0
aI9992399
aa(lp1653
I54294
aI95
aI9992429
aa(lp1654
I54296
aI31
aI9992447
aa(lp1655
I65533
aI0
aI9992469
aa(lp1656
I54288
aI12
aI9992789
aa(lp1657
I54289
aI9
aI9992793
aa(lp1658
I54293
aI6
aI9992923
aa(lp1659
I54294
aI93
aI9992953
aa(lp1660
I54296
aI31
aI9992971
aa(lp1661
I65533
aI0
aI9992993
aa(lp1662
I54288
aI15
aI9993315
aa(lp1663
I54289
aI9
aI9993319
aa(lp1664
I54293
aI4
aI9993449
aa(lp1665
I54294
aI92
aI9993479
aa(lp1666
I54296
aI31
aI9993497
aa(lp1667
I65533
aI0
aI9993519
aa(lp1668
I54296
aI31
aI9993648
aa(lp1669
I54288
aI18
aI9993891
aa(lp1670
I54289
aI9
aI9993895
aa(lp1671
I54293
aI2
aI9994025
aa(lp1672
I54294
aI91
aI9994055
aa(lp1673
I54296
aI31
aI9994073
aa(lp1674
I65533
aI0
aI9994095
aa(lp1675
I54272
aI2
aI9994319
aa(lp1676
I54273
aI22
aI9994323
aa(lp1677
I54288
aI21
aI9994480
aa(lp1678
I54289
aI9
aI9994484
aa(lp1679
I54293
aI0
aI9994614
aa(lp1680
I54294
aI90
aI9994644
aa(lp1681
I54296
aI31
aI9994662
aa(lp1682
I65533
aI0
aI9994684
aa(lp1683
I54288
aI24
aI9995004
aa(lp1684
I54289
aI9
aI9995008
aa(lp1685
I54293
aI6
aI9995138
aa(lp1686
I54294
aI88
aI9995168
aa(lp1687
I54296
aI31
aI9995186
aa(lp1688
I65533
aI0
aI9995208
aa(lp1689
I54288
aI27
aI9995530
aa(lp1690
I54289
aI9
aI9995534
aa(lp1691
I54293
aI4
aI9995664
aa(lp1692
I54294
aI87
aI9995694
aa(lp1693
I54296
aI31
aI9995712
aa(lp1694
I65533
aI0
aI9995734
aa(lp1695
I54296
aI31
aI9995863
aa(lp1696
I54288
aI30
aI9996106
aa(lp1697
I54289
aI9
aI9996110
aa(lp1698
I54293
aI2
aI9996240
aa(lp1699
I54294
aI86
aI9996270
aa(lp1700
I54296
aI31
aI9996288
aa(lp1701
I65533
aI0
aI9996310
aa(lp1702
I54272
aI129
aI9996534
aa(lp1703
I54273
aI18
aI9996538
aa(lp1704
I54288
aI33
aI9996695
aa(lp1705
I54289
aI9
aI9996699
aa(lp1706
I54293
aI0
aI9996829
aa(lp1707
I54294
aI85
aI9996859
aa(lp1708
I54296
aI31
aI9996877
aa(lp1709
I65533
aI0
aI9996899
aa(lp1710
I54288
aI36
aI9997219
aa(lp1711
I54289
aI9
aI9997223
aa(lp1712
I54293
aI6
aI9997353
aa(lp1713
I54294
aI83
aI9997383
aa(lp1714
I54296
aI31
aI9997401
aa(lp1715
I65533
aI0
aI9997423
aa(lp1716
I54290
aI64
aI9997708
aa(lp1717
I54288
aI39
aI9997764
aa(lp1718
I54289
aI9
aI9997768
aa(lp1719
I54293
aI4
aI9997898
aa(lp1720
I54294
aI82
aI9997928
aa(lp1721
I54296
aI31
aI9997946
aa(lp1722
I65533
aI0
aI9997968
aa(lp1723
I54296
aI31
aI9998097
aa(lp1724
I54288
aI42
aI9998351
aa(lp1725
I54289
aI9
aI9998355
aa(lp1726
I54293
aI2
aI9998485
aa(lp1727
I54294
aI81
aI9998515
aa(lp1728
I54296
aI31
aI9998533
aa(lp1729
I65533
aI0
aI9998555
aa(lp1730
I54272
aI176
aI9998779
aa(lp1731
I54273
aI14
aI9998783
aa(lp1732
I54288
aI45
aI9998951
aa(lp1733
I54289
aI9
aI9998955
aa(lp1734
I54293
aI0
aI9999085
aa(lp1735
I54294
aI80
aI9999115
aa(lp1736
I54296
aI31
aI9999133
aa(lp1737
I65533
aI0
aI9999155
aa(lp1738
I54288
aI48
aI9999486
aa(lp1739
I54289
aI9
aI9999490
aa(lp1740
I54293
aI6
aI9999620
aa(lp1741
I54294
aI78
aI9999650
aa(lp1742
I54296
aI31
aI9999668
aa(lp1743
I65533
aI0
aI9999690
aa(lp1744
I54288
aI51
aI10000023
aa(lp1745
I54289
aI9
aI10000027
aa(lp1746
I54293
aI4
aI10000157
aa(lp1747
I54294
aI77
aI10000187
aa(lp1748
I54296
aI31
aI10000205
aa(lp1749
I65533
aI0
aI10000227
aa(lp1750
I54296
aI31
aI10000356
aa(lp1751
I54288
aI54
aI10000610
aa(lp1752
I54289
aI9
aI10000614
aa(lp1753
I54293
aI2
aI10000744
aa(lp1754
I54294
aI76
aI10000774
aa(lp1755
I54296
aI31
aI10000792
aa(lp1756
I65533
aI0
aI10000814
aa(lp1757
I54272
aI96
aI10001041
aa(lp1758
I54273
aI29
aI10001045
aa(lp1759
I54288
aI57
aI10001213
aa(lp1760
I54289
aI9
aI10001217
aa(lp1761
I54293
aI0
aI10001347
aa(lp1762
I54294
aI75
aI10001377
aa(lp1763
I54296
aI31
aI10001395
aa(lp1764
I65533
aI0
aI10001417
aa(lp1765
I54288
aI60
aI10001748
aa(lp1766
I54289
aI9
aI10001752
aa(lp1767
I54293
aI6
aI10001882
aa(lp1768
I54294
aI73
aI10001912
aa(lp1769
I54296
aI31
aI10001930
aa(lp1770
I65533
aI0
aI10001952
aa(lp1771
I54288
aI63
aI10002285
aa(lp1772
I54289
aI9
aI10002289
aa(lp1773
I54293
aI4
aI10002419
aa(lp1774
I54294
aI72
aI10002449
aa(lp1775
I54296
aI31
aI10002467
aa(lp1776
I65533
aI0
aI10002489
aa(lp1777
I54296
aI31
aI10002618
aa(lp1778
I54288
aI66
aI10002872
aa(lp1779
I54289
aI9
aI10002876
aa(lp1780
I54293
aI2
aI10003006
aa(lp1781
I54294
aI71
aI10003036
aa(lp1782
I54296
aI31
aI10003054
aa(lp1783
I65533
aI0
aI10003076
aa(lp1784
I54272
aI192
aI10003300
aa(lp1785
I54273
aI58
aI10003304
aa(lp1786
I54288
aI69
aI10003472
aa(lp1787
I54289
aI9
aI10003476
aa(lp1788
I54293
aI0
aI10003606
aa(lp1789
I54294
aI70
aI10003636
aa(lp1790
I54296
aI31
aI10003654
aa(lp1791
I65533
aI0
aI10003676
aa(lp1792
I54288
aI72
aI10004007
aa(lp1793
I54289
aI9
aI10004011
aa(lp1794
I54293
aI6
aI10004141
aa(lp1795
I54294
aI68
aI10004171
aa(lp1796
I54296
aI31
aI10004189
aa(lp1797
I65533
aI0
aI10004211
aa(lp1798
I54288
aI75
aI10004544
aa(lp1799
I54289
aI9
aI10004548
aa(lp1800
I54293
aI4
aI10004678
aa(lp1801
I54294
aI67
aI10004708
aa(lp1802
I54296
aI31
aI10004726
aa(lp1803
I65533
aI0
aI10004748
aa(lp1804
I54296
aI31
aI10004877
aa(lp1805
I54272
aI176
aI10005100
aa(lp1806
I54273
aI14
aI10005104
aa(lp1807
I54274
aI0
aI10005114
aa(lp1808
I54275
aI0
aI10005118
aa(lp1809
I54277
aI24
aI10005125
aa(lp1810
I54278
aI106
aI10005132
aa(lp1811
I54276
aI33
aI10005145
aa(lp1812
I54283
aI8
aI10005440
aa(lp1813
I54279
aI215
aI10005460
aa(lp1814
I54280
aI156
aI10005464
aa(lp1815
I54281
aI0
aI10005476
aa(lp1816
I54282
aI0
aI10005480
aa(lp1817
I54284
aI0
aI10005488
aa(lp1818
I54285
aI242
aI10005496
aa(lp1819
I54283
aI17
aI10005510
aa(lp1820
I54288
aI78
aI10005884
aa(lp1821
I54289
aI9
aI10005888
aa(lp1822
I54290
aI8
aI10005983
aa(lp1823
I54293
aI4
aI10006227
aa(lp1824
I54294
aI112
aI10006257
aa(lp1825
I54286
aI88
aI10006284
aa(lp1826
I54287
aI7
aI10006288
aa(lp1827
I54288
aI0
aI10006298
aa(lp1828
I54289
aI9
aI10006302
aa(lp1829
I54291
aI24
aI10006309
aa(lp1830
I54292
aI107
aI10006316
aa(lp1831
I54290
aI65
aI10006328
aa(lp1832
I54293
aI2
aI10006684
aa(lp1833
I54294
aI111
aI10006714
aa(lp1834
I54296
aI31
aI10006732
aa(lp1835
I65533
aI0
aI10006754
aa(lp1836
I54272
aI176
aI10006979
aa(lp1837
I54273
aI14
aI10006983
aa(lp1838
I54279
aI135
aI10007120
aa(lp1839
I54280
aI161
aI10007124
aa(lp1840
I54293
aI0
aI10007336
aa(lp1841
I54294
aI110
aI10007366
aa(lp1842
I54296
aI31
aI10007384
aa(lp1843
I65533
aI0
aI10007406
aa(lp1844
I54279
aI55
aI10007707
aa(lp1845
I54280
aI166
aI10007711
aa(lp1846
I54293
aI6
aI10007923
aa(lp1847
I54294
aI108
aI10007953
aa(lp1848
I54296
aI31
aI10007971
aa(lp1849
I65533
aI0
aI10007993
aa(lp1850
I54279
aI231
aI10008296
aa(lp1851
I54280
aI170
aI10008300
aa(lp1852
I54293
aI4
aI10008512
aa(lp1853
I54294
aI107
aI10008542
aa(lp1854
I54296
aI31
aI10008560
aa(lp1855
I65533
aI0
aI10008582
aa(lp1856
I54296
aI31
aI10008711
aa(lp1857
I54279
aI151
aI10008935
aa(lp1858
I54280
aI175
aI10008939
aa(lp1859
I54293
aI2
aI10009151
aa(lp1860
I54294
aI106
aI10009181
aa(lp1861
I54296
aI31
aI10009199
aa(lp1862
I65533
aI0
aI10009221
aa(lp1863
I54272
aI96
aI10009449
aa(lp1864
I54273
aI29
aI10009453
aa(lp1865
I54283
aI16
aI10009534
aa(lp1866
I54279
aI71
aI10009599
aa(lp1867
I54280
aI180
aI10009603
aa(lp1868
I54293
aI0
aI10009815
aa(lp1869
I54294
aI105
aI10009845
aa(lp1870
I54296
aI31
aI10009863
aa(lp1871
I65533
aI0
aI10009885
aa(lp1872
I54279
aI247
aI10010185
aa(lp1873
I54280
aI184
aI10010189
aa(lp1874
I54293
aI6
aI10010401
aa(lp1875
I54294
aI103
aI10010431
aa(lp1876
I54296
aI31
aI10010449
aa(lp1877
I65533
aI0
aI10010471
aa(lp1878
I54279
aI167
aI10010773
aa(lp1879
I54280
aI189
aI10010777
aa(lp1880
I54293
aI4
aI10010989
aa(lp1881
I54294
aI102
aI10011019
aa(lp1882
I54296
aI31
aI10011037
aa(lp1883
I65533
aI0
aI10011059
aa(lp1884
I54296
aI31
aI10011188
aa(lp1885
I54279
aI87
aI10011411
aa(lp1886
I54280
aI194
aI10011415
aa(lp1887
I54293
aI2
aI10011627
aa(lp1888
I54294
aI101
aI10011657
aa(lp1889
I54296
aI31
aI10011675
aa(lp1890
I65533
aI0
aI10011697
aa(lp1891
I54272
aI192
aI10011922
aa(lp1892
I54273
aI58
aI10011926
aa(lp1893
I54279
aI7
aI10012062
aa(lp1894
I54280
aI199
aI10012066
aa(lp1895
I54293
aI0
aI10012278
aa(lp1896
I54294
aI100
aI10012308
aa(lp1897
I54296
aI31
aI10012326
aa(lp1898
I65533
aI0
aI10012348
aa(lp1899
I54279
aI183
aI10012648
aa(lp1900
I54280
aI203
aI10012652
aa(lp1901
I54293
aI6
aI10012864
aa(lp1902
I54294
aI98
aI10012894
aa(lp1903
I54296
aI31
aI10012912
aa(lp1904
I65533
aI0
aI10012934
aa(lp1905
I54285
aI0
aI10013176
aa(lp1906
I54284
aI0
aI10013186
aa(lp1907
I54283
aI0
aI10013196
aa(lp1908
I54282
aI0
aI10013206
aa(lp1909
I54281
aI0
aI10013216
aa(lp1910
I54280
aI0
aI10013226
aa(lp1911
I54279
aI0
aI10013236
aa(lp1912
I54288
aI3
aI10013355
aa(lp1913
I54289
aI9
aI10013359
aa(lp1914
I54293
aI4
aI10013489
aa(lp1915
I54294
aI97
aI10013519
aa(lp1916
I54296
aI31
aI10013537
aa(lp1917
I65533
aI0
aI10013559
aa(lp1918
I54296
aI31
aI10013688
aa(lp1919
I54288
aI6
aI10013932
aa(lp1920
I54289
aI9
aI10013936
aa(lp1921
I54293
aI2
aI10014066
aa(lp1922
I54294
aI96
aI10014096
aa(lp1923
I54296
aI31
aI10014114
aa(lp1924
I65533
aI0
aI10014136
aa(lp1925
I54272
aI96
aI10014361
aa(lp1926
I54273
aI29
aI10014365
aa(lp1927
I54288
aI9
aI10014522
aa(lp1928
I54289
aI9
aI10014526
aa(lp1929
I54293
aI0
aI10014656
aa(lp1930
I54294
aI95
aI10014686
aa(lp1931
I54296
aI31
aI10014704
aa(lp1932
I65533
aI0
aI10014726
aa(lp1933
I54288
aI12
aI10015047
aa(lp1934
I54289
aI9
aI10015051
aa(lp1935
I54293
aI6
aI10015181
aa(lp1936
I54294
aI93
aI10015211
aa(lp1937
I54296
aI31
aI10015229
aa(lp1938
I65533
aI0
aI10015251
aa(lp1939
I54288
aI15
aI10015574
aa(lp1940
I54289
aI9
aI10015578
aa(lp1941
I54293
aI4
aI10015708
aa(lp1942
I54294
aI92
aI10015738
aa(lp1943
I54296
aI31
aI10015756
aa(lp1944
I65533
aI0
aI10015778
aa(lp1945
I54296
aI31
aI10015907
aa(lp1946
I54288
aI18
aI10016151
aa(lp1947
I54289
aI9
aI10016155
aa(lp1948
I54293
aI2
aI10016285
aa(lp1949
I54294
aI91
aI10016315
aa(lp1950
I54296
aI31
aI10016333
aa(lp1951
I65533
aI0
aI10016355
aa(lp1952
I54272
aI2
aI10016580
aa(lp1953
I54273
aI22
aI10016584
aa(lp1954
I54288
aI21
aI10016741
aa(lp1955
I54289
aI9
aI10016745
aa(lp1956
I54293
aI0
aI10016875
aa(lp1957
I54294
aI90
aI10016905
aa(lp1958
I54296
aI31
aI10016923
aa(lp1959
I65533
aI0
aI10016945
aa(lp1960
I54288
aI24
aI10017266
aa(lp1961
I54289
aI9
aI10017270
aa(lp1962
I54293
aI6
aI10017400
aa(lp1963
I54294
aI88
aI10017430
aa(lp1964
I54296
aI31
aI10017448
aa(lp1965
I65533
aI0
aI10017470
aa(lp1966
I54288
aI27
aI10017793
aa(lp1967
I54289
aI9
aI10017797
aa(lp1968
I54293
aI4
aI10017927
aa(lp1969
I54294
aI87
aI10017957
aa(lp1970
I54296
aI31
aI10017975
aa(lp1971
I65533
aI0
aI10017997
aa(lp1972
I54296
aI31
aI10018126
aa(lp1973
I54288
aI30
aI10018370
aa(lp1974
I54289
aI9
aI10018374
aa(lp1975
I54293
aI2
aI10018504
aa(lp1976
I54294
aI86
aI10018534
aa(lp1977
I54296
aI31
aI10018552
aa(lp1978
I65533
aI0
aI10018574
aa(lp1979
I54272
aI129
aI10018799
aa(lp1980
I54273
aI18
aI10018803
aa(lp1981
I54288
aI33
aI10018960
aa(lp1982
I54289
aI9
aI10018964
aa(lp1983
I54293
aI0
aI10019094
aa(lp1984
I54294
aI85
aI10019124
aa(lp1985
I54296
aI31
aI10019142
aa(lp1986
I65533
aI0
aI10019164
aa(lp1987
I54288
aI36
aI10019485
aa(lp1988
I54289
aI9
aI10019489
aa(lp1989
I54293
aI6
aI10019619
aa(lp1990
I54294
aI83
aI10019649
aa(lp1991
I54296
aI31
aI10019667
aa(lp1992
I65533
aI0
aI10019689
aa(lp1993
I54288
aI39
aI10020012
aa(lp1994
I54289
aI9
aI10020016
aa(lp1995
I54293
aI4
aI10020146
aa(lp1996
I54294
aI82
aI10020176
aa(lp1997
I54296
aI31
aI10020194
aa(lp1998
I65533
aI0
aI10020216
aa(lp1999
I54296
aI31
aI10020345
aa(lp2000
I54288
aI42
aI10020589
aa(lp2001
I54289
aI9
aI10020593
aa(lp2002
I54293
aI2
aI10020723
aa(lp2003
I54294
aI81
aI10020753
aa(lp2004
I54296
aI31
aI10020771
aa(lp2005
I65533
aI0
aI10020793
aa(lp2006
I54272
aI176
aI10021018
aa(lp2007
I54273
aI14
aI10021022
aa(lp2008
I54288
aI45
aI10021179
aa(lp2009
I54289
aI9
aI10021183
aa(lp2010
I54293
aI0
aI10021313
aa(lp2011
I54294
aI80
aI10021343
aa(lp2012
I54296
aI31
aI10021361
aa(lp2013
I65533
aI0
aI10021383
aa(lp2014
I54288
aI48
aI10021704
aa(lp2015
I54289
aI9
aI10021708
aa(lp2016
I54293
aI6
aI10021838
aa(lp2017
I54294
aI78
aI10021868
aa(lp2018
I54296
aI31
aI10021886
aa(lp2019
I65533
aI0
aI10021908
aa(lp2020
I54288
aI51
aI10022231
aa(lp2021
I54289
aI9
aI10022235
aa(lp2022
I54293
aI4
aI10022365
aa(lp2023
I54294
aI77
aI10022395
aa(lp2024
I54296
aI31
aI10022413
aa(lp2025
I65533
aI0
aI10022435
aa(lp2026
I54296
aI31
aI10022564
aa(lp2027
I54288
aI54
aI10022808
aa(lp2028
I54289
aI9
aI10022812
aa(lp2029
I54293
aI2
aI10022942
aa(lp2030
I54294
aI76
aI10022972
aa(lp2031
I54296
aI31
aI10022990
aa(lp2032
I65533
aI0
aI10023012
aa(lp2033
I54272
aI96
aI10023240
aa(lp2034
I54273
aI29
aI10023244
aa(lp2035
I54288
aI57
aI10023401
aa(lp2036
I54289
aI9
aI10023405
aa(lp2037
I54293
aI0
aI10023535
aa(lp2038
I54294
aI75
aI10023565
aa(lp2039
I54296
aI31
aI10023583
aa(lp2040
I65533
aI0
aI10023605
aa(lp2041
I54276
aI32
aI10023754
aa(lp2042
I54288
aI60
aI10023935
aa(lp2043
I54289
aI9
aI10023939
aa(lp2044
I54293
aI6
aI10024069
aa(lp2045
I54294
aI73
aI10024099
aa(lp2046
I54296
aI31
aI10024117
aa(lp2047
I65533
aI0
aI10024139
aa(lp2048
I54288
aI63
aI10024461
aa(lp2049
I54289
aI9
aI10024465
aa(lp2050
I54293
aI4
aI10024595
aa(lp2051
I54294
aI72
aI10024625
aa(lp2052
I54296
aI31
aI10024643
aa(lp2053
I65533
aI0
aI10024665
aa(lp2054
I54296
aI31
aI10024794
aa(lp2055
I54288
aI66
aI10025037
aa(lp2056
I54289
aI9
aI10025041
aa(lp2057
I54293
aI2
aI10025171
aa(lp2058
I54294
aI71
aI10025201
aa(lp2059
I54296
aI31
aI10025219
aa(lp2060
I65533
aI0
aI10025241
aa(lp2061
I54272
aI192
aI10025465
aa(lp2062
I54273
aI58
aI10025469
aa(lp2063
I54288
aI69
aI10025626
aa(lp2064
I54289
aI9
aI10025630
aa(lp2065
I54293
aI0
aI10025760
aa(lp2066
I54294
aI70
aI10025790
aa(lp2067
I54296
aI31
aI10025808
aa(lp2068
I65533
aI0
aI10025830
aa(lp2069
I54288
aI72
aI10026150
aa(lp2070
I54289
aI9
aI10026154
aa(lp2071
I54293
aI6
aI10026284
aa(lp2072
I54294
aI68
aI10026314
aa(lp2073
I54296
aI31
aI10026332
aa(lp2074
I65533
aI0
aI10026354
aa(lp2075
I54288
aI75
aI10026676
aa(lp2076
I54289
aI9
aI10026680
aa(lp2077
I54293
aI4
aI10026810
aa(lp2078
I54294
aI67
aI10026840
aa(lp2079
I54296
aI31
aI10026858
aa(lp2080
I65533
aI0
aI10026880
aa(lp2081
I54296
aI31
aI10027009
aa(lp2082
I54283
aI8
aI10027198
aa(lp2083
I54279
aI239
aI10027218
aa(lp2084
I54280
aI34
aI10027222
aa(lp2085
I54281
aI0
aI10027234
aa(lp2086
I54282
aI0
aI10027238
aa(lp2087
I54284
aI0
aI10027246
aa(lp2088
I54285
aI242
aI10027254
aa(lp2089
I54283
aI17
aI10027268
aa(lp2090
I54288
aI78
aI10027631
aa(lp2091
I54289
aI9
aI10027635
aa(lp2092
I54293
aI2
aI10027765
aa(lp2093
I54294
aI66
aI10027795
aa(lp2094
I54296
aI31
aI10027813
aa(lp2095
I65533
aI0
aI10027835
aa(lp2096
I54272
aI96
aI10028059
aa(lp2097
I54273
aI29
aI10028063
aa(lp2098
I54279
aI159
aI10028200
aa(lp2099
I54280
aI39
aI10028204
aa(lp2100
I54288
aI81
aI10028324
aa(lp2101
I54289
aI9
aI10028328
aa(lp2102
I54293
aI0
aI10028458
aa(lp2103
I54294
aI65
aI10028488
aa(lp2104
I54296
aI31
aI10028506
aa(lp2105
I65533
aI0
aI10028528
aa(lp2106
I54279
aI79
aI10028828
aa(lp2107
I54280
aI44
aI10028832
aa(lp2108
I54288
aI84
aI10028952
aa(lp2109
I54289
aI9
aI10028956
aa(lp2110
I54293
aI6
aI10029086
aa(lp2111
I54294
aI63
aI10029116
aa(lp2112
I54296
aI31
aI10029134
aa(lp2113
I65533
aI0
aI10029156
aa(lp2114
I54279
aI255
aI10029458
aa(lp2115
I54280
aI48
aI10029462
aa(lp2116
I54288
aI87
aI10029582
aa(lp2117
I54289
aI9
aI10029586
aa(lp2118
I54293
aI4
aI10029716
aa(lp2119
I54294
aI62
aI10029746
aa(lp2120
I54296
aI31
aI10029764
aa(lp2121
I65533
aI0
aI10029786
aa(lp2122
I54296
aI31
aI10029915
aa(lp2123
I54279
aI175
aI10030138
aa(lp2124
I54280
aI53
aI10030142
aa(lp2125
I54288
aI90
aI10030262
aa(lp2126
I54289
aI9
aI10030266
aa(lp2127
I54293
aI2
aI10030396
aa(lp2128
I54294
aI61
aI10030426
aa(lp2129
I54296
aI31
aI10030444
aa(lp2130
I65533
aI0
aI10030466
aa(lp2131
I54272
aI2
aI10030690
aa(lp2132
I54273
aI22
aI10030694
aa(lp2133
I54283
aI16
aI10030775
aa(lp2134
I54279
aI95
aI10030840
aa(lp2135
I54280
aI58
aI10030844
aa(lp2136
I54288
aI93
aI10030964
aa(lp2137
I54289
aI9
aI10030968
aa(lp2138
I54286
aI95
aI10031022
aa(lp2139
I54287
aI7
aI10031026
aa(lp2140
I54293
aI0
aI10031128
aa(lp2141
I54294
aI60
aI10031158
aa(lp2142
I54296
aI31
aI10031176
aa(lp2143
I65533
aI0
aI10031198
aa(lp2144
I54279
aI15
aI10031497
aa(lp2145
I54280
aI63
aI10031501
aa(lp2146
I54288
aI96
aI10031621
aa(lp2147
I54289
aI9
aI10031625
aa(lp2148
I54286
aI102
aI10031679
aa(lp2149
I54287
aI7
aI10031683
aa(lp2150
I54293
aI6
aI10031785
aa(lp2151
I54294
aI58
aI10031815
aa(lp2152
I54296
aI31
aI10031833
aa(lp2153
I65533
aI0
aI10031855
aa(lp2154
I54279
aI191
aI10032156
aa(lp2155
I54280
aI67
aI10032160
aa(lp2156
I54288
aI99
aI10032280
aa(lp2157
I54289
aI9
aI10032284
aa(lp2158
I54286
aI109
aI10032338
aa(lp2159
I54287
aI7
aI10032342
aa(lp2160
I54293
aI4
aI10032444
aa(lp2161
I54294
aI57
aI10032474
aa(lp2162
I54296
aI31
aI10032492
aa(lp2163
I65533
aI0
aI10032514
aa(lp2164
I54296
aI31
aI10032643
aa(lp2165
I54279
aI111
aI10032865
aa(lp2166
I54280
aI72
aI10032869
aa(lp2167
I54288
aI102
aI10032989
aa(lp2168
I54289
aI9
aI10032993
aa(lp2169
I54286
aI116
aI10033047
aa(lp2170
I54287
aI7
aI10033051
aa(lp2171
I54293
aI2
aI10033153
aa(lp2172
I54294
aI56
aI10033183
aa(lp2173
I54296
aI31
aI10033201
aa(lp2174
I65533
aI0
aI10033223
aa(lp2175
I54272
aI129
aI10033447
aa(lp2176
I54273
aI18
aI10033451
aa(lp2177
I54279
aI31
aI10033587
aa(lp2178
I54280
aI77
aI10033591
aa(lp2179
I54288
aI105
aI10033711
aa(lp2180
I54289
aI9
aI10033715
aa(lp2181
I54286
aI123
aI10033769
aa(lp2182
I54287
aI7
aI10033773
aa(lp2183
I54293
aI0
aI10033875
aa(lp2184
I54294
aI55
aI10033905
aa(lp2185
I54296
aI31
aI10033923
aa(lp2186
I65533
aI0
aI10033945
aa(lp2187
I54279
aI207
aI10034244
aa(lp2188
I54280
aI81
aI10034248
aa(lp2189
I54288
aI108
aI10034368
aa(lp2190
I54289
aI9
aI10034372
aa(lp2191
I54286
aI130
aI10034426
aa(lp2192
I54287
aI7
aI10034430
aa(lp2193
I54293
aI6
aI10034532
aa(lp2194
I54294
aI53
aI10034562
aa(lp2195
I54296
aI31
aI10034580
aa(lp2196
I65533
aI0
aI10034602
aa(lp2197
I54285
aI0
aI10034843
aa(lp2198
I54284
aI0
aI10034853
aa(lp2199
I54283
aI0
aI10034863
aa(lp2200
I54282
aI0
aI10034873
aa(lp2201
I54281
aI0
aI10034883
aa(lp2202
I54280
aI0
aI10034893
aa(lp2203
I54279
aI0
aI10034903
aa(lp2204
I54288
aI111
aI10035022
aa(lp2205
I54289
aI9
aI10035026
aa(lp2206
I54286
aI137
aI10035080
aa(lp2207
I54287
aI7
aI10035084
aa(lp2208
I54293
aI4
aI10035186
aa(lp2209
I54294
aI52
aI10035216
aa(lp2210
I54296
aI31
aI10035234
aa(lp2211
I65533
aI0
aI10035256
aa(lp2212
I54296
aI31
aI10035385
aa(lp2213
I54288
aI114
aI10035628
aa(lp2214
I54289
aI9
aI10035632
aa(lp2215
I54286
aI144
aI10035686
aa(lp2216
I54287
aI7
aI10035690
aa(lp2217
I54293
aI2
aI10035792
aa(lp2218
I54294
aI51
aI10035822
aa(lp2219
I54296
aI31
aI10035840
aa(lp2220
I65533
aI0
aI10035862
aa(lp2221
I54272
aI176
aI10036086
aa(lp2222
I54273
aI14
aI10036090
aa(lp2223
I54288
aI117
aI10036247
aa(lp2224
I54289
aI9
aI10036251
aa(lp2225
I54286
aI151
aI10036305
aa(lp2226
I54287
aI7
aI10036309
aa(lp2227
I54293
aI0
aI10036411
aa(lp2228
I54294
aI50
aI10036441
aa(lp2229
I54296
aI31
aI10036459
aa(lp2230
I65533
aI0
aI10036481
aa(lp2231
I54288
aI120
aI10036801
aa(lp2232
I54289
aI9
aI10036805
aa(lp2233
I54286
aI158
aI10036859
aa(lp2234
I54287
aI7
aI10036863
aa(lp2235
I54293
aI2
aI10036965
aa(lp2236
I54294
aI51
aI10036995
aa(lp2237
I54296
aI31
aI10037013
aa(lp2238
I65533
aI0
aI10037035
aa(lp2239
I54288
aI123
aI10037357
aa(lp2240
I54289
aI9
aI10037361
aa(lp2241
I54286
aI151
aI10037421
aa(lp2242
I54287
aI7
aI10037425
aa(lp2243
I54293
aI4
aI10037527
aa(lp2244
I54294
aI52
aI10037557
aa(lp2245
I54296
aI31
aI10037575
aa(lp2246
I65533
aI0
aI10037597
aa(lp2247
I54296
aI31
aI10037726
aa(lp2248
I54288
aI126
aI10037969
aa(lp2249
I54289
aI9
aI10037973
aa(lp2250
I54286
aI144
aI10038033
aa(lp2251
I54287
aI7
aI10038037
aa(lp2252
I54293
aI6
aI10038139
aa(lp2253
I54294
aI53
aI10038169
aa(lp2254
I54296
aI31
aI10038187
aa(lp2255
I65533
aI0
aI10038209
aa(lp2256
I54272
aI96
aI10038436
aa(lp2257
I54273
aI29
aI10038440
aa(lp2258
I54288
aI129
aI10038597
aa(lp2259
I54289
aI9
aI10038601
aa(lp2260
I54286
aI137
aI10038661
aa(lp2261
I54287
aI7
aI10038665
aa(lp2262
I54293
aI0
aI10038767
aa(lp2263
I54294
aI55
aI10038797
aa(lp2264
I54296
aI31
aI10038815
aa(lp2265
I65533
aI0
aI10038837
aa(lp2266
I54288
aI132
aI10039157
aa(lp2267
I54289
aI9
aI10039161
aa(lp2268
I54286
aI130
aI10039221
aa(lp2269
I54287
aI7
aI10039225
aa(lp2270
I54293
aI2
aI10039327
aa(lp2271
I54294
aI56
aI10039357
aa(lp2272
I54296
aI31
aI10039375
aa(lp2273
I65533
aI0
aI10039397
aa(lp2274
I54288
aI135
aI10039719
aa(lp2275
I54289
aI9
aI10039723
aa(lp2276
I54286
aI123
aI10039783
aa(lp2277
I54287
aI7
aI10039787
aa(lp2278
I54293
aI4
aI10039889
aa(lp2279
I54294
aI57
aI10039919
aa(lp2280
I54296
aI31
aI10039937
aa(lp2281
I65533
aI0
aI10039959
aa(lp2282
I54296
aI31
aI10040088
aa(lp2283
I54288
aI138
aI10040331
aa(lp2284
I54289
aI9
aI10040335
aa(lp2285
I54286
aI116
aI10040395
aa(lp2286
I54287
aI7
aI10040399
aa(lp2287
I54293
aI6
aI10040501
aa(lp2288
I54294
aI58
aI10040531
aa(lp2289
I54296
aI31
aI10040549
aa(lp2290
I65533
aI0
aI10040571
aa(lp2291
I54272
aI192
aI10040795
aa(lp2292
I54273
aI58
aI10040799
aa(lp2293
I54288
aI141
aI10040956
aa(lp2294
I54289
aI9
aI10040960
aa(lp2295
I54286
aI109
aI10041020
aa(lp2296
I54287
aI7
aI10041024
aa(lp2297
I54293
aI0
aI10041126
aa(lp2298
I54294
aI60
aI10041156
aa(lp2299
I54296
aI31
aI10041174
aa(lp2300
I65533
aI0
aI10041196
aa(lp2301
I54288
aI144
aI10041516
aa(lp2302
I54289
aI9
aI10041520
aa(lp2303
I54286
aI102
aI10041580
aa(lp2304
I54287
aI7
aI10041584
aa(lp2305
I54293
aI6
aI10041692
aa(lp2306
I54294
aI58
aI10041722
aa(lp2307
I54296
aI31
aI10041740
aa(lp2308
I65533
aI0
aI10041762
aa(lp2309
I54288
aI147
aI10042084
aa(lp2310
I54289
aI9
aI10042088
aa(lp2311
I54286
aI95
aI10042148
aa(lp2312
I54287
aI7
aI10042152
aa(lp2313
I54293
aI4
aI10042260
aa(lp2314
I54294
aI57
aI10042290
aa(lp2315
I54296
aI31
aI10042308
aa(lp2316
I65533
aI0
aI10042330
aa(lp2317
I54296
aI31
aI10042459
aa(lp2318
I54288
aI150
aI10042702
aa(lp2319
I54289
aI9
aI10042706
aa(lp2320
I54286
aI88
aI10042766
aa(lp2321
I54287
aI7
aI10042770
aa(lp2322
I54293
aI2
aI10042878
aa(lp2323
I54294
aI56
aI10042908
aa(lp2324
I54296
aI31
aI10042926
aa(lp2325
I65533
aI0
aI10042948
aa(lp2326
I54272
aI96
aI10043172
aa(lp2327
I54273
aI29
aI10043176
aa(lp2328
I54288
aI153
aI10043333
aa(lp2329
I54289
aI9
aI10043337
aa(lp2330
I54286
aI81
aI10043397
aa(lp2331
I54287
aI7
aI10043401
aa(lp2332
I54293
aI0
aI10043509
aa(lp2333
I54294
aI55
aI10043539
aa(lp2334
I54296
aI31
aI10043557
aa(lp2335
I65533
aI0
aI10043579
aa(lp2336
I54288
aI156
aI10043899
aa(lp2337
I54289
aI9
aI10043903
aa(lp2338
I54286
aI74
aI10043963
aa(lp2339
I54287
aI7
aI10043967
aa(lp2340
I54293
aI6
aI10044075
aa(lp2341
I54294
aI53
aI10044105
aa(lp2342
I54296
aI31
aI10044123
aa(lp2343
I65533
aI0
aI10044145
aa(lp2344
I54288
aI159
aI10044467
aa(lp2345
I54289
aI9
aI10044471
aa(lp2346
I54286
aI67
aI10044531
aa(lp2347
I54287
aI7
aI10044535
aa(lp2348
I54293
aI4
aI10044643
aa(lp2349
I54294
aI52
aI10044673
aa(lp2350
I54296
aI31
aI10044691
aa(lp2351
I65533
aI0
aI10044713
aa(lp2352
I54296
aI31
aI10044842
aa(lp2353
I54288
aI162
aI10045085
aa(lp2354
I54289
aI9
aI10045089
aa(lp2355
I54286
aI60
aI10045149
aa(lp2356
I54287
aI7
aI10045153
aa(lp2357
I54293
aI2
aI10045261
aa(lp2358
I54294
aI51
aI10045291
aa(lp2359
I54296
aI31
aI10045309
aa(lp2360
I65533
aI0
aI10045331
aa(lp2361
I54272
aI2
aI10045555
aa(lp2362
I54273
aI22
aI10045559
aa(lp2363
I54288
aI165
aI10045716
aa(lp2364
I54289
aI9
aI10045720
aa(lp2365
I54286
aI53
aI10045780
aa(lp2366
I54287
aI7
aI10045784
aa(lp2367
I54293
aI0
aI10045892
aa(lp2368
I54294
aI50
aI10045922
aa(lp2369
I54296
aI31
aI10045940
aa(lp2370
I65533
aI0
aI10045962
aa(lp2371
I54288
aI168
aI10046282
aa(lp2372
I54289
aI9
aI10046286
aa(lp2373
I54286
aI46
aI10046346
aa(lp2374
I54287
aI7
aI10046350
aa(lp2375
I54293
aI6
aI10046458
aa(lp2376
I54294
aI48
aI10046488
aa(lp2377
I54296
aI31
aI10046506
aa(lp2378
I65533
aI0
aI10046528
aa(lp2379
I54288
aI171
aI10046850
aa(lp2380
I54289
aI9
aI10046854
aa(lp2381
I54286
aI39
aI10046914
aa(lp2382
I54287
aI7
aI10046918
aa(lp2383
I54293
aI4
aI10047026
aa(lp2384
I54294
aI47
aI10047056
aa(lp2385
I54296
aI31
aI10047074
aa(lp2386
I65533
aI0
aI10047096
aa(lp2387
I54296
aI31
aI10047225
aa(lp2388
I54288
aI174
aI10047468
aa(lp2389
I54289
aI9
aI10047472
aa(lp2390
I54286
aI32
aI10047532
aa(lp2391
I54287
aI7
aI10047536
aa(lp2392
I54293
aI2
aI10047644
aa(lp2393
I54294
aI46
aI10047674
aa(lp2394
I54296
aI31
aI10047692
aa(lp2395
I65533
aI0
aI10047714
aa(lp2396
I54272
aI129
aI10047938
aa(lp2397
I54273
aI18
aI10047942
aa(lp2398
I54288
aI177
aI10048099
aa(lp2399
I54289
aI9
aI10048103
aa(lp2400
I54286
aI25
aI10048163
aa(lp2401
I54287
aI7
aI10048167
aa(lp2402
I54293
aI0
aI10048275
aa(lp2403
I54294
aI45
aI10048305
aa(lp2404
I54296
aI31
aI10048323
aa(lp2405
I65533
aI0
aI10048345
aa(lp2406
I54288
aI180
aI10048665
aa(lp2407
I54289
aI9
aI10048669
aa(lp2408
I54286
aI18
aI10048729
aa(lp2409
I54287
aI7
aI10048733
aa(lp2410
I54293
aI6
aI10048841
aa(lp2411
I54294
aI43
aI10048871
aa(lp2412
I54296
aI31
aI10048889
aa(lp2413
I65533
aI0
aI10048911
aa(lp2414
I54288
aI183
aI10049233
aa(lp2415
I54289
aI9
aI10049237
aa(lp2416
I54286
aI25
aI10049303
aa(lp2417
I54287
aI7
aI10049307
aa(lp2418
I54293
aI4
aI10049415
aa(lp2419
I54294
aI42
aI10049445
aa(lp2420
I54296
aI31
aI10049463
aa(lp2421
I65533
aI0
aI10049485
aa(lp2422
I54296
aI31
aI10049614
aa(lp2423
I54283
aI8
aI10049803
aa(lp2424
I54279
aI239
aI10049823
aa(lp2425
I54280
aI34
aI10049827
aa(lp2426
I54281
aI0
aI10049839
aa(lp2427
I54282
aI0
aI10049843
aa(lp2428
I54284
aI0
aI10049851
aa(lp2429
I54285
aI242
aI10049859
aa(lp2430
I54283
aI17
aI10049873
aa(lp2431
I54288
aI186
aI10050236
aa(lp2432
I54289
aI9
aI10050240
aa(lp2433
I54286
aI32
aI10050306
aa(lp2434
I54287
aI7
aI10050310
aa(lp2435
I54293
aI2
aI10050418
aa(lp2436
I54294
aI41
aI10050448
aa(lp2437
I54296
aI31
aI10050466
aa(lp2438
I65533
aI0
aI10050488
aa(lp2439
I54272
aI176
aI10050712
aa(lp2440
I54273
aI14
aI10050716
aa(lp2441
I54279
aI159
aI10050853
aa(lp2442
I54280
aI39
aI10050857
aa(lp2443
I54288
aI189
aI10050977
aa(lp2444
I54289
aI9
aI10050981
aa(lp2445
I54286
aI39
aI10051047
aa(lp2446
I54287
aI7
aI10051051
aa(lp2447
I54293
aI0
aI10051159
aa(lp2448
I54294
aI40
aI10051189
aa(lp2449
I54296
aI31
aI10051207
aa(lp2450
I65533
aI0
aI10051229
aa(lp2451
I54279
aI79
aI10051529
aa(lp2452
I54280
aI44
aI10051533
aa(lp2453
I54288
aI192
aI10051653
aa(lp2454
I54289
aI9
aI10051657
aa(lp2455
I54286
aI46
aI10051723
aa(lp2456
I54287
aI7
aI10051727
aa(lp2457
I54293
aI2
aI10051841
aa(lp2458
I54294
aI41
aI10051871
aa(lp2459
I54296
aI31
aI10051889
aa(lp2460
I65533
aI0
aI10051911
aa(lp2461
I54279
aI255
aI10052213
aa(lp2462
I54280
aI48
aI10052217
aa(lp2463
I54288
aI195
aI10052337
aa(lp2464
I54289
aI9
aI10052341
aa(lp2465
I54286
aI53
aI10052407
aa(lp2466
I54287
aI7
aI10052411
aa(lp2467
I54293
aI4
aI10052525
aa(lp2468
I54294
aI42
aI10052555
aa(lp2469
I54296
aI31
aI10052573
aa(lp2470
I65533
aI0
aI10052595
aa(lp2471
I54296
aI31
aI10052724
aa(lp2472
I54279
aI175
aI10052947
aa(lp2473
I54280
aI53
aI10052951
aa(lp2474
I54288
aI198
aI10053071
aa(lp2475
I54289
aI9
aI10053075
aa(lp2476
I54286
aI60
aI10053141
aa(lp2477
I54287
aI7
aI10053145
aa(lp2478
I54293
aI6
aI10053259
aa(lp2479
I54294
aI43
aI10053289
aa(lp2480
I54296
aI31
aI10053307
aa(lp2481
I65533
aI0
aI10053329
aa(lp2482
I54272
aI96
aI10053556
aa(lp2483
I54273
aI29
aI10053560
aa(lp2484
I54283
aI16
aI10053641
aa(lp2485
I54279
aI95
aI10053706
aa(lp2486
I54280
aI58
aI10053710
aa(lp2487
I54288
aI201
aI10053830
aa(lp2488
I54289
aI9
aI10053834
aa(lp2489
I54286
aI67
aI10053900
aa(lp2490
I54287
aI7
aI10053904
aa(lp2491
I54293
aI0
aI10054018
aa(lp2492
I54294
aI45
aI10054048
aa(lp2493
I54296
aI31
aI10054066
aa(lp2494
I65533
aI0
aI10054088
aa(lp2495
I54279
aI15
aI10054387
aa(lp2496
I54280
aI63
aI10054391
aa(lp2497
I54288
aI204
aI10054511
aa(lp2498
I54289
aI9
aI10054515
aa(lp2499
I54286
aI74
aI10054581
aa(lp2500
I54287
aI7
aI10054585
aa(lp2501
I54293
aI2
aI10054699
aa(lp2502
I54294
aI46
aI10054729
aa(lp2503
I54296
aI31
aI10054747
aa(lp2504
I65533
aI0
aI10054769
aa(lp2505
I54279
aI191
aI10055070
aa(lp2506
I54280
aI67
aI10055074
aa(lp2507
I54288
aI207
aI10055194
aa(lp2508
I54289
aI9
aI10055198
aa(lp2509
I54286
aI81
aI10055264
aa(lp2510
I54287
aI7
aI10055268
aa(lp2511
I54293
aI4
aI10055382
aa(lp2512
I54294
aI47
aI10055412
aa(lp2513
I54296
aI31
aI10055430
aa(lp2514
I65533
aI0
aI10055452
aa(lp2515
I54296
aI31
aI10055581
aa(lp2516
I54279
aI111
aI10055803
aa(lp2517
I54280
aI72
aI10055807
aa(lp2518
I54288
aI210
aI10055927
aa(lp2519
I54289
aI9
aI10055931
aa(lp2520
I54286
aI88
aI10055997
aa(lp2521
I54287
aI7
aI10056001
aa(lp2522
I54293
aI6
aI10056115
aa(lp2523
I54294
aI48
aI10056145
aa(lp2524
I54296
aI31
aI10056163
aa(lp2525
I65533
aI0
aI10056185
aa(lp2526
I54272
aI192
aI10056409
aa(lp2527
I54273
aI58
aI10056413
aa(lp2528
I54279
aI31
aI10056549
aa(lp2529
I54280
aI77
aI10056553
aa(lp2530
I54288
aI213
aI10056673
aa(lp2531
I54289
aI9
aI10056677
aa(lp2532
I54286
aI95
aI10056806
aa(lp2533
I54287
aI7
aI10056810
aa(lp2534
I54293
aI0
aI10056924
aa(lp2535
I54294
aI50
aI10056954
aa(lp2536
I54296
aI31
aI10056972
aa(lp2537
I65533
aI0
aI10056994
aa(lp2538
I54279
aI207
aI10057293
aa(lp2539
I54280
aI81
aI10057297
aa(lp2540
I54288
aI216
aI10057417
aa(lp2541
I54289
aI9
aI10057421
aa(lp2542
I54286
aI102
aI10057475
aa(lp2543
I54287
aI7
aI10057479
aa(lp2544
I54293
aI2
aI10057656
aa(lp2545
I54294
aI51
aI10057686
aa(lp2546
I54296
aI31
aI10057704
aa(lp2547
I65533
aI0
aI10057726
aa(lp2548
I54285
aI0
aI10057967
aa(lp2549
I54284
aI0
aI10057977
aa(lp2550
I54283
aI0
aI10057987
aa(lp2551
I54282
aI0
aI10057997
aa(lp2552
I54281
aI0
aI10058007
aa(lp2553
I54280
aI0
aI10058017
aa(lp2554
I54279
aI0
aI10058027
aa(lp2555
I54288
aI219
aI10058146
aa(lp2556
I54289
aI9
aI10058150
aa(lp2557
I54286
aI109
aI10058204
aa(lp2558
I54287
aI7
aI10058208
aa(lp2559
I54293
aI4
aI10058310
aa(lp2560
I54294
aI52
aI10058340
aa(lp2561
I54296
aI31
aI10058358
aa(lp2562
I65533
aI0
aI10058380
aa(lp2563
I54296
aI31
aI10058509
aa(lp2564
I54288
aI222
aI10058752
aa(lp2565
I54289
aI9
aI10058756
aa(lp2566
I54286
aI116
aI10058810
aa(lp2567
I54287
aI7
aI10058814
aa(lp2568
I54293
aI6
aI10058916
aa(lp2569
I54294
aI53
aI10058946
aa(lp2570
I54296
aI31
aI10058964
aa(lp2571
I65533
aI0
aI10058986
aa(lp2572
I54272
aI96
aI10059210
aa(lp2573
I54273
aI29
aI10059214
aa(lp2574
I54288
aI225
aI10059371
aa(lp2575
I54289
aI9
aI10059375
aa(lp2576
I54286
aI123
aI10059429
aa(lp2577
I54287
aI7
aI10059433
aa(lp2578
I54293
aI0
aI10059535
aa(lp2579
I54294
aI55
aI10059565
aa(lp2580
I54296
aI31
aI10059583
aa(lp2581
I65533
aI0
aI10059605
aa(lp2582
I54288
aI228
aI10059925
aa(lp2583
I54289
aI9
aI10059929
aa(lp2584
I54286
aI130
aI10059983
aa(lp2585
I54287
aI7
aI10059987
aa(lp2586
I54293
aI2
aI10060089
aa(lp2587
I54294
aI56
aI10060119
aa(lp2588
I54296
aI31
aI10060137
aa(lp2589
I65533
aI0
aI10060159
aa(lp2590
I54288
aI231
aI10060481
aa(lp2591
I54289
aI9
aI10060485
aa(lp2592
I54286
aI137
aI10060539
aa(lp2593
I54287
aI7
aI10060543
aa(lp2594
I54293
aI4
aI10060645
aa(lp2595
I54294
aI57
aI10060675
aa(lp2596
I54296
aI31
aI10060693
aa(lp2597
I65533
aI0
aI10060715
aa(lp2598
I54296
aI31
aI10060844
aa(lp2599
I54288
aI234
aI10061087
aa(lp2600
I54289
aI9
aI10061091
aa(lp2601
I54286
aI144
aI10061145
aa(lp2602
I54287
aI7
aI10061149
aa(lp2603
I54293
aI6
aI10061251
aa(lp2604
I54294
aI58
aI10061281
aa(lp2605
I54296
aI31
aI10061299
aa(lp2606
I65533
aI0
aI10061321
aa(lp2607
I54272
aI2
aI10061545
aa(lp2608
I54273
aI22
aI10061549
aa(lp2609
I54288
aI237
aI10061706
aa(lp2610
I54289
aI9
aI10061710
aa(lp2611
I54286
aI151
aI10061764
aa(lp2612
I54287
aI7
aI10061768
aa(lp2613
I54293
aI0
aI10061870
aa(lp2614
I54294
aI60
aI10061900
aa(lp2615
I54296
aI31
aI10061918
aa(lp2616
I65533
aI0
aI10061940
aa(lp2617
I54288
aI240
aI10062260
aa(lp2618
I54289
aI9
aI10062264
aa(lp2619
I54286
aI158
aI10062318
aa(lp2620
I54287
aI7
aI10062322
aa(lp2621
I54293
aI6
aI10062430
aa(lp2622
I54294
aI58
aI10062460
aa(lp2623
I54296
aI31
aI10062478
aa(lp2624
I65533
aI0
aI10062500
aa(lp2625
I54288
aI243
aI10062822
aa(lp2626
I54289
aI9
aI10062826
aa(lp2627
I54286
aI151
aI10062886
aa(lp2628
I54287
aI7
aI10062890
aa(lp2629
I54293
aI4
aI10062998
aa(lp2630
I54294
aI57
aI10063028
aa(lp2631
I54296
aI31
aI10063046
aa(lp2632
I65533
aI0
aI10063068
aa(lp2633
I54296
aI31
aI10063197
aa(lp2634
I54288
aI246
aI10063440
aa(lp2635
I54289
aI9
aI10063444
aa(lp2636
I54286
aI144
aI10063504
aa(lp2637
I54287
aI7
aI10063508
aa(lp2638
I54293
aI2
aI10063616
aa(lp2639
I54294
aI56
aI10063646
aa(lp2640
I54296
aI31
aI10063664
aa(lp2641
I65533
aI0
aI10063686
aa(lp2642
I54272
aI129
aI10063910
aa(lp2643
I54273
aI18
aI10063914
aa(lp2644
I54288
aI249
aI10064071
aa(lp2645
I54289
aI9
aI10064075
aa(lp2646
I54286
aI137
aI10064135
aa(lp2647
I54287
aI7
aI10064139
aa(lp2648
I54293
aI0
aI10064247
aa(lp2649
I54294
aI55
aI10064277
aa(lp2650
I54296
aI31
aI10064295
aa(lp2651
I65533
aI0
aI10064317
aa(lp2652
I54288
aI252
aI10064637
aa(lp2653
I54289
aI9
aI10064641
aa(lp2654
I54286
aI130
aI10064701
aa(lp2655
I54287
aI7
aI10064705
aa(lp2656
I54293
aI6
aI10064813
aa(lp2657
I54294
aI53
aI10064843
aa(lp2658
I54296
aI31
aI10064861
aa(lp2659
I65533
aI0
aI10064883
aa(lp2660
I54290
aI64
aI10065168
aa(lp2661
I54288
aI255
aI10065224
aa(lp2662
I54289
aI9
aI10065228
aa(lp2663
I54286
aI123
aI10065288
aa(lp2664
I54287
aI7
aI10065292
aa(lp2665
I54293
aI4
aI10065400
aa(lp2666
I54294
aI52
aI10065430
aa(lp2667
I54296
aI31
aI10065448
aa(lp2668
I65533
aI0
aI10065470
aa(lp2669
I54296
aI31
aI10065599
aa(lp2670
I54288
aI2
aI10065853
aa(lp2671
I54289
aI10
aI10065857
aa(lp2672
I54286
aI116
aI10065917
aa(lp2673
I54287
aI7
aI10065921
aa(lp2674
I54293
aI2
aI10066029
aa(lp2675
I54294
aI51
aI10066059
aa(lp2676
I54296
aI31
aI10066077
aa(lp2677
I65533
aI0
aI10066099
aa(lp2678
I54272
aI176
aI10066323
aa(lp2679
I54273
aI14
aI10066327
aa(lp2680
I54288
aI5
aI10066495
aa(lp2681
I54289
aI10
aI10066499
aa(lp2682
I54286
aI109
aI10066559
aa(lp2683
I54287
aI7
aI10066563
aa(lp2684
I54293
aI0
aI10066671
aa(lp2685
I54294
aI50
aI10066701
aa(lp2686
I54296
aI31
aI10066719
aa(lp2687
I65533
aI0
aI10066741
aa(lp2688
I54288
aI8
aI10067072
aa(lp2689
I54289
aI10
aI10067076
aa(lp2690
I54286
aI102
aI10067136
aa(lp2691
I54287
aI7
aI10067140
aa(lp2692
I54293
aI6
aI10067248
aa(lp2693
I54294
aI48
aI10067278
aa(lp2694
I54296
aI31
aI10067296
aa(lp2695
I65533
aI0
aI10067318
aa(lp2696
I54288
aI11
aI10067651
aa(lp2697
I54289
aI10
aI10067655
aa(lp2698
I54286
aI95
aI10067715
aa(lp2699
I54287
aI7
aI10067719
aa(lp2700
I54293
aI4
aI10067827
aa(lp2701
I54294
aI47
aI10067857
aa(lp2702
I54296
aI31
aI10067875
aa(lp2703
I65533
aI0
aI10067897
aa(lp2704
I54296
aI31
aI10068026
aa(lp2705
I54288
aI14
aI10068280
aa(lp2706
I54289
aI10
aI10068284
aa(lp2707
I54286
aI88
aI10068344
aa(lp2708
I54287
aI7
aI10068348
aa(lp2709
I54293
aI2
aI10068456
aa(lp2710
I54294
aI46
aI10068486
aa(lp2711
I54296
aI31
aI10068504
aa(lp2712
I65533
aI0
aI10068526
aa(lp2713
I54272
aI96
aI10068753
aa(lp2714
I54273
aI29
aI10068757
aa(lp2715
I54288
aI17
aI10068925
aa(lp2716
I54289
aI10
aI10068929
aa(lp2717
I54286
aI81
aI10068989
aa(lp2718
I54287
aI7
aI10068993
aa(lp2719
I54293
aI0
aI10069101
aa(lp2720
I54294
aI45
aI10069131
aa(lp2721
I54296
aI31
aI10069149
aa(lp2722
I65533
aI0
aI10069171
aa(lp2723
I54288
aI20
aI10069502
aa(lp2724
I54289
aI10
aI10069506
aa(lp2725
I54286
aI74
aI10069566
aa(lp2726
I54287
aI7
aI10069570
aa(lp2727
I54293
aI6
aI10069678
aa(lp2728
I54294
aI43
aI10069708
aa(lp2729
I54296
aI31
aI10069726
aa(lp2730
I65533
aI0
aI10069748
aa(lp2731
I54288
aI23
aI10070081
aa(lp2732
I54289
aI10
aI10070085
aa(lp2733
I54286
aI67
aI10070145
aa(lp2734
I54287
aI7
aI10070149
aa(lp2735
I54293
aI4
aI10070257
aa(lp2736
I54294
aI42
aI10070287
aa(lp2737
I54296
aI31
aI10070305
aa(lp2738
I65533
aI0
aI10070327
aa(lp2739
I54296
aI31
aI10070456
aa(lp2740
I54288
aI26
aI10070710
aa(lp2741
I54289
aI10
aI10070714
aa(lp2742
I54286
aI60
aI10070774
aa(lp2743
I54287
aI7
aI10070778
aa(lp2744
I54293
aI2
aI10070886
aa(lp2745
I54294
aI41
aI10070916
aa(lp2746
I54296
aI31
aI10070934
aa(lp2747
I65533
aI0
aI10070956
aa(lp2748
I54272
aI192
aI10071180
aa(lp2749
I54273
aI58
aI10071184
aa(lp2750
I54288
aI29
aI10071352
aa(lp2751
I54289
aI10
aI10071356
aa(lp2752
I54286
aI53
aI10071416
aa(lp2753
I54287
aI7
aI10071420
aa(lp2754
I54293
aI0
aI10071528
aa(lp2755
I54294
aI40
aI10071558
aa(lp2756
I54296
aI31
aI10071576
aa(lp2757
I65533
aI0
aI10071598
aa(lp2758
I54288
aI32
aI10071929
aa(lp2759
I54289
aI10
aI10071933
aa(lp2760
I54286
aI46
aI10071993
aa(lp2761
I54287
aI7
aI10071997
aa(lp2762
I54293
aI2
aI10072111
aa(lp2763
I54294
aI41
aI10072141
aa(lp2764
I54296
aI31
aI10072159
aa(lp2765
I65533
aI0
aI10072181
aa(lp2766
I54288
aI35
aI10072514
aa(lp2767
I54289
aI10
aI10072518
aa(lp2768
I54286
aI39
aI10072578
aa(lp2769
I54287
aI7
aI10072582
aa(lp2770
I54293
aI4
aI10072696
aa(lp2771
I54294
aI42
aI10072726
aa(lp2772
I54296
aI31
aI10072744
aa(lp2773
I65533
aI0
aI10072766
aa(lp2774
I54296
aI31
aI10072895
aa(lp2775
I54272
aI176
aI10073118
aa(lp2776
I54273
aI14
aI10073122
aa(lp2777
I54274
aI0
aI10073132
aa(lp2778
I54275
aI0
aI10073136
aa(lp2779
I54277
aI24
aI10073143
aa(lp2780
I54278
aI106
aI10073150
aa(lp2781
I54276
aI33
aI10073163
aa(lp2782
I54283
aI8
aI10073458
aa(lp2783
I54279
aI215
aI10073478
aa(lp2784
I54280
aI156
aI10073482
aa(lp2785
I54281
aI0
aI10073494
aa(lp2786
I54282
aI0
aI10073498
aa(lp2787
I54284
aI0
aI10073506
aa(lp2788
I54285
aI242
aI10073514
aa(lp2789
I54283
aI17
aI10073528
aa(lp2790
I54288
aI38
aI10073902
aa(lp2791
I54289
aI10
aI10073906
aa(lp2792
I54286
aI32
aI10073966
aa(lp2793
I54287
aI7
aI10073970
aa(lp2794
I54290
aI8
aI10074037
aa(lp2795
I54293
aI4
aI10074281
aa(lp2796
I54294
aI112
aI10074311
aa(lp2797
I54286
aI1
aI10074338
aa(lp2798
I54287
aI11
aI10074342
aa(lp2799
I54288
aI0
aI10074352
aa(lp2800
I54289
aI9
aI10074356
aa(lp2801
I54291
aI24
aI10074363
aa(lp2802
I54292
aI107
aI10074370
aa(lp2803
I54290
aI65
aI10074382
aa(lp2804
I54293
aI2
aI10074738
aa(lp2805
I54294
aI111
aI10074768
aa(lp2806
I54296
aI31
aI10074786
aa(lp2807
I65533
aI0
aI10074808
aa(lp2808
I54272
aI176
aI10075033
aa(lp2809
I54273
aI14
aI10075037
aa(lp2810
I54279
aI135
aI10075174
aa(lp2811
I54280
aI161
aI10075178
aa(lp2812
I54293
aI0
aI10075390
aa(lp2813
I54294
aI110
aI10075420
aa(lp2814
I54296
aI31
aI10075438
aa(lp2815
I65533
aI0
aI10075460
aa(lp2816
I54279
aI55
aI10075761
aa(lp2817
I54280
aI166
aI10075765
aa(lp2818
I54293
aI6
aI10075977
aa(lp2819
I54294
aI108
aI10076007
aa(lp2820
I54296
aI31
aI10076025
aa(lp2821
I65533
aI0
aI10076047
aa(lp2822
I54279
aI231
aI10076350
aa(lp2823
I54280
aI170
aI10076354
aa(lp2824
I54293
aI4
aI10076566
aa(lp2825
I54294
aI107
aI10076596
aa(lp2826
I54296
aI31
aI10076614
aa(lp2827
I65533
aI0
aI10076636
aa(lp2828
I54296
aI31
aI10076765
aa(lp2829
I54279
aI151
aI10076989
aa(lp2830
I54280
aI175
aI10076993
aa(lp2831
I54293
aI2
aI10077205
aa(lp2832
I54294
aI106
aI10077235
aa(lp2833
I54296
aI31
aI10077253
aa(lp2834
I65533
aI0
aI10077275
aa(lp2835
I54272
aI96
aI10077503
aa(lp2836
I54273
aI29
aI10077507
aa(lp2837
I54283
aI16
aI10077588
aa(lp2838
I54279
aI71
aI10077653
aa(lp2839
I54280
aI180
aI10077657
aa(lp2840
I54293
aI0
aI10077869
aa(lp2841
I54294
aI105
aI10077899
aa(lp2842
I54296
aI31
aI10077917
aa(lp2843
I65533
aI0
aI10077939
aa(lp2844
I54279
aI247
aI10078239
aa(lp2845
I54280
aI184
aI10078243
aa(lp2846
I54293
aI6
aI10078455
aa(lp2847
I54294
aI103
aI10078485
aa(lp2848
I54296
aI31
aI10078503
aa(lp2849
I65533
aI0
aI10078525
aa(lp2850
I54279
aI167
aI10078827
aa(lp2851
I54280
aI189
aI10078831
aa(lp2852
I54293
aI4
aI10079043
aa(lp2853
I54294
aI102
aI10079073
aa(lp2854
I54296
aI31
aI10079091
aa(lp2855
I65533
aI0
aI10079113
aa(lp2856
I54296
aI31
aI10079242
aa(lp2857
I54279
aI87
aI10079465
aa(lp2858
I54280
aI194
aI10079469
aa(lp2859
I54293
aI2
aI10079681
aa(lp2860
I54294
aI101
aI10079711
aa(lp2861
I54296
aI31
aI10079729
aa(lp2862
I65533
aI0
aI10079751
aa(lp2863
I54272
aI192
aI10079976
aa(lp2864
I54273
aI58
aI10079980
aa(lp2865
I54279
aI7
aI10080116
aa(lp2866
I54280
aI199
aI10080120
aa(lp2867
I54293
aI0
aI10080332
aa(lp2868
I54294
aI100
aI10080362
aa(lp2869
I54296
aI31
aI10080380
aa(lp2870
I65533
aI0
aI10080402
aa(lp2871
I54279
aI183
aI10080702
aa(lp2872
I54280
aI203
aI10080706
aa(lp2873
I54293
aI6
aI10080918
aa(lp2874
I54294
aI98
aI10080948
aa(lp2875
I54296
aI31
aI10080966
aa(lp2876
I65533
aI0
aI10080988
aa(lp2877
I54285
aI0
aI10081230
aa(lp2878
I54284
aI0
aI10081240
aa(lp2879
I54283
aI0
aI10081250
aa(lp2880
I54282
aI0
aI10081260
aa(lp2881
I54281
aI0
aI10081270
aa(lp2882
I54280
aI0
aI10081280
aa(lp2883
I54279
aI0
aI10081290
aa(lp2884
I54288
aI3
aI10081409
aa(lp2885
I54289
aI9
aI10081413
aa(lp2886
I54293
aI4
aI10081543
aa(lp2887
I54294
aI97
aI10081573
aa(lp2888
I54296
aI31
aI10081591
aa(lp2889
I65533
aI0
aI10081613
aa(lp2890
I54296
aI31
aI10081742
aa(lp2891
I54288
aI6
aI10081986
aa(lp2892
I54289
aI9
aI10081990
aa(lp2893
I54293
aI2
aI10082120
aa(lp2894
I54294
aI96
aI10082150
aa(lp2895
I54296
aI31
aI10082168
aa(lp2896
I65533
aI0
aI10082190
aa(lp2897
I54272
aI96
aI10082415
aa(lp2898
I54273
aI29
aI10082419
aa(lp2899
I54288
aI9
aI10082576
aa(lp2900
I54289
aI9
aI10082580
aa(lp2901
I54293
aI0
aI10082710
aa(lp2902
I54294
aI95
aI10082740
aa(lp2903
I54296
aI31
aI10082758
aa(lp2904
I65533
aI0
aI10082780
aa(lp2905
I54288
aI12
aI10083101
aa(lp2906
I54289
aI9
aI10083105
aa(lp2907
I54293
aI6
aI10083235
aa(lp2908
I54294
aI93
aI10083265
aa(lp2909
I54296
aI31
aI10083283
aa(lp2910
I65533
aI0
aI10083305
aa(lp2911
I54288
aI15
aI10083628
aa(lp2912
I54289
aI9
aI10083632
aa(lp2913
I54293
aI4
aI10083762
aa(lp2914
I54294
aI92
aI10083792
aa(lp2915
I54296
aI31
aI10083810
aa(lp2916
I65533
aI0
aI10083832
aa(lp2917
I54296
aI31
aI10083961
aa(lp2918
I54288
aI18
aI10084205
aa(lp2919
I54289
aI9
aI10084209
aa(lp2920
I54293
aI2
aI10084339
aa(lp2921
I54294
aI91
aI10084369
aa(lp2922
I54296
aI31
aI10084387
aa(lp2923
I65533
aI0
aI10084409
aa(lp2924
I54272
aI2
aI10084634
aa(lp2925
I54273
aI22
aI10084638
aa(lp2926
I54288
aI21
aI10084795
aa(lp2927
I54289
aI9
aI10084799
aa(lp2928
I54293
aI0
aI10084929
aa(lp2929
I54294
aI90
aI10084959
aa(lp2930
I54296
aI31
aI10084977
aa(lp2931
I65533
aI0
aI10084999
aa(lp2932
I54288
aI24
aI10085320
aa(lp2933
I54289
aI9
aI10085324
aa(lp2934
I54293
aI6
aI10085454
aa(lp2935
I54294
aI88
aI10085484
aa(lp2936
I54296
aI31
aI10085502
aa(lp2937
I65533
aI0
aI10085524
aa(lp2938
I54288
aI27
aI10085847
aa(lp2939
I54289
aI9
aI10085851
aa(lp2940
I54293
aI4
aI10085981
aa(lp2941
I54294
aI87
aI10086011
aa(lp2942
I54296
aI31
aI10086029
aa(lp2943
I65533
aI0
aI10086051
aa(lp2944
I54296
aI31
aI10086180
aa(lp2945
I54288
aI30
aI10086424
aa(lp2946
I54289
aI9
aI10086428
aa(lp2947
I54293
aI2
aI10086558
aa(lp2948
I54294
aI86
aI10086588
aa(lp2949
I54296
aI31
aI10086606
aa(lp2950
I65533
aI0
aI10086628
aa(lp2951
I54272
aI129
aI10086853
aa(lp2952
I54273
aI18
aI10086857
aa(lp2953
I54288
aI33
aI10087014
aa(lp2954
I54289
aI9
aI10087018
aa(lp2955
I54293
aI0
aI10087148
aa(lp2956
I54294
aI85
aI10087178
aa(lp2957
I54296
aI31
aI10087196
aa(lp2958
I65533
aI0
aI10087218
aa(lp2959
I54288
aI36
aI10087539
aa(lp2960
I54289
aI9
aI10087543
aa(lp2961
I54293
aI6
aI10087673
aa(lp2962
I54294
aI83
aI10087703
aa(lp2963
I54296
aI31
aI10087721
aa(lp2964
I65533
aI0
aI10087743
aa(lp2965
I54290
aI64
aI10088029
aa(lp2966
I54288
aI39
aI10088085
aa(lp2967
I54289
aI9
aI10088089
aa(lp2968
I54293
aI4
aI10088219
aa(lp2969
I54294
aI82
aI10088249
aa(lp2970
I54296
aI31
aI10088267
aa(lp2971
I65533
aI0
aI10088289
aa(lp2972
I54296
aI31
aI10088418
aa(lp2973
I54288
aI42
aI10088673
aa(lp2974
I54289
aI9
aI10088677
aa(lp2975
I54293
aI2
aI10088807
aa(lp2976
I54294
aI81
aI10088837
aa(lp2977
I54296
aI31
aI10088855
aa(lp2978
I65533
aI0
aI10088877
aa(lp2979
I54272
aI176
aI10089102
aa(lp2980
I54273
aI14
aI10089106
aa(lp2981
I54288
aI45
aI10089274
aa(lp2982
I54289
aI9
aI10089278
aa(lp2983
I54293
aI0
aI10089408
aa(lp2984
I54294
aI80
aI10089438
aa(lp2985
I54296
aI31
aI10089456
aa(lp2986
I65533
aI0
aI10089478
aa(lp2987
I54288
aI48
aI10089810
aa(lp2988
I54289
aI9
aI10089814
aa(lp2989
I54293
aI6
aI10089944
aa(lp2990
I54294
aI78
aI10089974
aa(lp2991
I54296
aI31
aI10089992
aa(lp2992
I65533
aI0
aI10090014
aa(lp2993
I54288
aI51
aI10090348
aa(lp2994
I54289
aI9
aI10090352
aa(lp2995
I54293
aI4
aI10090482
aa(lp2996
I54294
aI77
aI10090512
aa(lp2997
I54296
aI31
aI10090530
aa(lp2998
I65533
aI0
aI10090552
aa(lp2999
I54296
aI31
aI10090681
aa(lp3000
I54288
aI54
aI10090936
aa(lp3001
I54289
aI9
aI10090940
aa(lp3002
I54293
aI2
aI10091070
aa(lp3003
I54294
aI76
aI10091100
aa(lp3004
I54296
aI31
aI10091118
aa(lp3005
I65533
aI0
aI10091140
aa(lp3006
I54272
aI96
aI10091368
aa(lp3007
I54273
aI29
aI10091372
aa(lp3008
I54288
aI57
aI10091540
aa(lp3009
I54289
aI9
aI10091544
aa(lp3010
I54293
aI0
aI10091674
aa(lp3011
I54294
aI75
aI10091704
aa(lp3012
I54296
aI31
aI10091722
aa(lp3013
I65533
aI0
aI10091744
aa(lp3014
I54276
aI32
aI10091893
aa(lp3015
I54288
aI60
aI10092085
aa(lp3016
I54289
aI9
aI10092089
aa(lp3017
I54293
aI6
aI10092219
aa(lp3018
I54294
aI73
aI10092249
aa(lp3019
I54296
aI31
aI10092267
aa(lp3020
I65533
aI0
aI10092289
aa(lp3021
I54288
aI63
aI10092622
aa(lp3022
I54289
aI9
aI10092626
aa(lp3023
I54293
aI4
aI10092756
aa(lp3024
I54294
aI72
aI10092786
aa(lp3025
I54296
aI31
aI10092804
aa(lp3026
I65533
aI0
aI10092826
aa(lp3027
I54296
aI31
aI10092955
aa(lp3028
I54288
aI66
aI10093209
aa(lp3029
I54289
aI9
aI10093213
aa(lp3030
I54293
aI2
aI10093343
aa(lp3031
I54294
aI71
aI10093373
aa(lp3032
I54296
aI31
aI10093391
aa(lp3033
I65533
aI0
aI10093413
aa(lp3034
I54272
aI192
aI10093637
aa(lp3035
I54273
aI58
aI10093641
aa(lp3036
I54288
aI69
aI10093809
aa(lp3037
I54289
aI9
aI10093813
aa(lp3038
I54293
aI0
aI10093943
aa(lp3039
I54294
aI70
aI10093973
aa(lp3040
I54296
aI31
aI10093991
aa(lp3041
I65533
aI0
aI10094013
aa(lp3042
I54288
aI72
aI10094344
aa(lp3043
I54289
aI9
aI10094348
aa(lp3044
I54293
aI6
aI10094478
aa(lp3045
I54294
aI68
aI10094508
aa(lp3046
I54296
aI31
aI10094526
aa(lp3047
I65533
aI0
aI10094548
aa(lp3048
I54288
aI75
aI10094881
aa(lp3049
I54289
aI9
aI10094885
aa(lp3050
I54293
aI4
aI10095015
aa(lp3051
I54294
aI67
aI10095045
aa(lp3052
I54296
aI31
aI10095063
aa(lp3053
I65533
aI0
aI10095085
aa(lp3054
I54296
aI31
aI10095214
aa(lp3055
I54288
aI78
aI10095468
aa(lp3056
I54289
aI9
aI10095472
aa(lp3057
I54290
aI8
aI10095567
aa(lp3058
I54293
aI4
aI10095811
aa(lp3059
I54294
aI112
aI10095841
aa(lp3060
I54286
aI1
aI10095868
aa(lp3061
I54287
aI11
aI10095872
aa(lp3062
I54288
aI0
aI10095882
aa(lp3063
I54289
aI9
aI10095886
aa(lp3064
I54291
aI24
aI10095893
aa(lp3065
I54292
aI107
aI10095900
aa(lp3066
I54290
aI65
aI10095912
aa(lp3067
I54293
aI2
aI10096268
aa(lp3068
I54294
aI111
aI10096298
aa(lp3069
I54296
aI31
aI10096316
aa(lp3070
I65533
aI0
aI10096338
aa(lp3071
I54272
aI96
aI10096562
aa(lp3072
I54273
aI29
aI10096566
aa(lp3073
I54293
aI0
aI10096815
aa(lp3074
I54294
aI110
aI10096845
aa(lp3075
I54296
aI31
aI10096863
aa(lp3076
I65533
aI0
aI10096885
aa(lp3077
I54293
aI6
aI10097297
aa(lp3078
I54294
aI108
aI10097327
aa(lp3079
I54296
aI31
aI10097345
aa(lp3080
I65533
aI0
aI10097367
aa(lp3081
I54293
aI4
aI10097781
aa(lp3082
I54294
aI107
aI10097811
aa(lp3083
I54296
aI31
aI10097829
aa(lp3084
I65533
aI0
aI10097851
aa(lp3085
I54296
aI31
aI10097980
aa(lp3086
I54293
aI2
aI10098315
aa(lp3087
I54294
aI106
aI10098345
aa(lp3088
I54296
aI31
aI10098363
aa(lp3089
I65533
aI0
aI10098385
aa(lp3090
I54272
aI2
aI10098609
aa(lp3091
I54273
aI22
aI10098613
aa(lp3092
I54293
aI0
aI10098862
aa(lp3093
I54294
aI105
aI10098892
aa(lp3094
I54296
aI31
aI10098910
aa(lp3095
I65533
aI0
aI10098932
aa(lp3096
I54293
aI6
aI10099344
aa(lp3097
I54294
aI103
aI10099374
aa(lp3098
I54296
aI31
aI10099392
aa(lp3099
I65533
aI0
aI10099414
aa(lp3100
I54293
aI4
aI10099828
aa(lp3101
I54294
aI102
aI10099858
aa(lp3102
I54296
aI31
aI10099876
aa(lp3103
I65533
aI0
aI10099898
aa(lp3104
I54296
aI31
aI10100027
aa(lp3105
I54293
aI2
aI10100362
aa(lp3106
I54294
aI101
aI10100392
aa(lp3107
I54296
aI31
aI10100410
aa(lp3108
I65533
aI0
aI10100432
aa(lp3109
I54272
aI129
aI10100656
aa(lp3110
I54273
aI18
aI10100660
aa(lp3111
I54293
aI0
aI10100909
aa(lp3112
I54294
aI100
aI10100939
aa(lp3113
I54296
aI31
aI10100957
aa(lp3114
I65533
aI0
aI10100979
aa(lp3115
I54293
aI6
aI10101391
aa(lp3116
I54294
aI98
aI10101421
aa(lp3117
I54296
aI31
aI10101439
aa(lp3118
I65533
aI0
aI10101461
aa(lp3119
I54288
aI3
aI10101783
aa(lp3120
I54289
aI9
aI10101787
aa(lp3121
I54293
aI4
aI10101917
aa(lp3122
I54294
aI97
aI10101947
aa(lp3123
I54296
aI31
aI10101965
aa(lp3124
I65533
aI0
aI10101987
aa(lp3125
I54296
aI31
aI10102116
aa(lp3126
I54288
aI6
aI10102359
aa(lp3127
I54289
aI9
aI10102363
aa(lp3128
I54293
aI2
aI10102493
aa(lp3129
I54294
aI96
aI10102523
aa(lp3130
I54296
aI31
aI10102541
aa(lp3131
I65533
aI0
aI10102563
aa(lp3132
I54272
aI176
aI10102787
aa(lp3133
I54273
aI14
aI10102791
aa(lp3134
I54288
aI9
aI10102948
aa(lp3135
I54289
aI9
aI10102952
aa(lp3136
I54293
aI0
aI10103082
aa(lp3137
I54294
aI95
aI10103112
aa(lp3138
I54296
aI31
aI10103130
aa(lp3139
I65533
aI0
aI10103152
aa(lp3140
I54288
aI12
aI10103472
aa(lp3141
I54289
aI9
aI10103476
aa(lp3142
I54293
aI6
aI10103606
aa(lp3143
I54294
aI93
aI10103636
aa(lp3144
I54296
aI31
aI10103654
aa(lp3145
I65533
aI0
aI10103676
aa(lp3146
I54288
aI15
aI10103998
aa(lp3147
I54289
aI9
aI10104002
aa(lp3148
I54293
aI4
aI10104132
aa(lp3149
I54294
aI92
aI10104162
aa(lp3150
I54296
aI31
aI10104180
aa(lp3151
I65533
aI0
aI10104202
aa(lp3152
I54296
aI31
aI10104331
aa(lp3153
I54288
aI18
aI10104574
aa(lp3154
I54289
aI9
aI10104578
aa(lp3155
I54293
aI2
aI10104708
aa(lp3156
I54294
aI91
aI10104738
aa(lp3157
I54296
aI31
aI10104756
aa(lp3158
I65533
aI0
aI10104778
aa(lp3159
I54272
aI96
aI10105005
aa(lp3160
I54273
aI29
aI10105009
aa(lp3161
I54288
aI21
aI10105166
aa(lp3162
I54289
aI9
aI10105170
aa(lp3163
I54293
aI0
aI10105300
aa(lp3164
I54294
aI90
aI10105330
aa(lp3165
I54296
aI31
aI10105348
aa(lp3166
I65533
aI0
aI10105370
aa(lp3167
I54288
aI24
aI10105690
aa(lp3168
I54289
aI9
aI10105694
aa(lp3169
I54293
aI6
aI10105824
aa(lp3170
I54294
aI88
aI10105854
aa(lp3171
I54296
aI31
aI10105872
aa(lp3172
I65533
aI0
aI10105894
aa(lp3173
I54288
aI27
aI10106216
aa(lp3174
I54289
aI9
aI10106220
aa(lp3175
I54293
aI4
aI10106350
aa(lp3176
I54294
aI87
aI10106380
aa(lp3177
I54296
aI31
aI10106398
aa(lp3178
I65533
aI0
aI10106420
aa(lp3179
I54296
aI31
aI10106549
aa(lp3180
I54288
aI30
aI10106792
aa(lp3181
I54289
aI9
aI10106796
aa(lp3182
I54293
aI2
aI10106926
aa(lp3183
I54294
aI86
aI10106956
aa(lp3184
I54296
aI31
aI10106974
aa(lp3185
I65533
aI0
aI10106996
aa(lp3186
I54272
aI192
aI10107220
aa(lp3187
I54273
aI58
aI10107224
aa(lp3188
I54288
aI33
aI10107381
aa(lp3189
I54289
aI9
aI10107385
aa(lp3190
I54293
aI0
aI10107515
aa(lp3191
I54294
aI85
aI10107545
aa(lp3192
I54296
aI31
aI10107563
aa(lp3193
I65533
aI0
aI10107585
aa(lp3194
I54288
aI36
aI10107905
aa(lp3195
I54289
aI9
aI10107909
aa(lp3196
I54293
aI6
aI10108039
aa(lp3197
I54294
aI83
aI10108069
aa(lp3198
I54296
aI31
aI10108087
aa(lp3199
I65533
aI0
aI10108109
aa(lp3200
I54288
aI39
aI10108431
aa(lp3201
I54289
aI9
aI10108435
aa(lp3202
I54293
aI4
aI10108565
aa(lp3203
I54294
aI82
aI10108595
aa(lp3204
I54296
aI31
aI10108613
aa(lp3205
I65533
aI0
aI10108635
aa(lp3206
I54296
aI31
aI10108764
aa(lp3207
I54288
aI42
aI10109007
aa(lp3208
I54289
aI9
aI10109011
aa(lp3209
I54293
aI2
aI10109141
aa(lp3210
I54294
aI81
aI10109171
aa(lp3211
I54296
aI31
aI10109189
aa(lp3212
I65533
aI0
aI10109211
aa(lp3213
I54272
aI96
aI10109435
aa(lp3214
I54273
aI29
aI10109439
aa(lp3215
I54288
aI45
aI10109596
aa(lp3216
I54289
aI9
aI10109600
aa(lp3217
I54293
aI0
aI10109730
aa(lp3218
I54294
aI80
aI10109760
aa(lp3219
I54296
aI31
aI10109778
aa(lp3220
I65533
aI0
aI10109800
aa(lp3221
I54288
aI48
aI10110120
aa(lp3222
I54289
aI9
aI10110124
aa(lp3223
I54293
aI6
aI10110254
aa(lp3224
I54294
aI78
aI10110284
aa(lp3225
I54296
aI31
aI10110302
aa(lp3226
I65533
aI0
aI10110324
aa(lp3227
I54288
aI51
aI10110646
aa(lp3228
I54289
aI9
aI10110650
aa(lp3229
I54293
aI4
aI10110780
aa(lp3230
I54294
aI77
aI10110810
aa(lp3231
I54296
aI31
aI10110828
aa(lp3232
I65533
aI0
aI10110850
aa(lp3233
I54296
aI31
aI10110979
aa(lp3234
I54288
aI54
aI10111222
aa(lp3235
I54289
aI9
aI10111226
aa(lp3236
I54293
aI2
aI10111356
aa(lp3237
I54294
aI76
aI10111386
aa(lp3238
I54296
aI31
aI10111404
aa(lp3239
I65533
aI0
aI10111426
aa(lp3240
I54272
aI2
aI10111650
aa(lp3241
I54273
aI22
aI10111654
aa(lp3242
I54288
aI57
aI10111811
aa(lp3243
I54289
aI9
aI10111815
aa(lp3244
I54293
aI0
aI10111945
aa(lp3245
I54294
aI75
aI10111975
aa(lp3246
I54296
aI31
aI10111993
aa(lp3247
I65533
aI0
aI10112015
aa(lp3248
I54288
aI60
aI10112335
aa(lp3249
I54289
aI9
aI10112339
aa(lp3250
I54293
aI6
aI10112469
aa(lp3251
I54294
aI73
aI10112499
aa(lp3252
I54296
aI31
aI10112517
aa(lp3253
I65533
aI0
aI10112539
aa(lp3254
I54288
aI63
aI10112861
aa(lp3255
I54289
aI9
aI10112865
aa(lp3256
I54293
aI4
aI10112995
aa(lp3257
I54294
aI72
aI10113025
aa(lp3258
I54296
aI31
aI10113043
aa(lp3259
I65533
aI0
aI10113065
aa(lp3260
I54296
aI31
aI10113194
aa(lp3261
I54288
aI66
aI10113437
aa(lp3262
I54289
aI9
aI10113441
aa(lp3263
I54293
aI2
aI10113571
aa(lp3264
I54294
aI71
aI10113601
aa(lp3265
I54296
aI31
aI10113619
aa(lp3266
I65533
aI0
aI10113641
aa(lp3267
I54272
aI129
aI10113865
aa(lp3268
I54273
aI18
aI10113869
aa(lp3269
I54288
aI69
aI10114026
aa(lp3270
I54289
aI9
aI10114030
aa(lp3271
I54293
aI0
aI10114160
aa(lp3272
I54294
aI70
aI10114190
aa(lp3273
I54296
aI31
aI10114208
aa(lp3274
I65533
aI0
aI10114230
aa(lp3275
I54288
aI72
aI10114550
aa(lp3276
I54289
aI9
aI10114554
aa(lp3277
I54293
aI6
aI10114684
aa(lp3278
I54294
aI68
aI10114714
aa(lp3279
I54296
aI31
aI10114732
aa(lp3280
I65533
aI0
aI10114754
aa(lp3281
I54288
aI75
aI10115076
aa(lp3282
I54289
aI9
aI10115080
aa(lp3283
I54293
aI4
aI10115210
aa(lp3284
I54294
aI67
aI10115240
aa(lp3285
I54296
aI31
aI10115258
aa(lp3286
I65533
aI0
aI10115280
aa(lp3287
I54296
aI31
aI10115409
aa(lp3288
I54283
aI8
aI10115598
aa(lp3289
I54279
aI239
aI10115618
aa(lp3290
I54280
aI34
aI10115622
aa(lp3291
I54281
aI0
aI10115634
aa(lp3292
I54282
aI0
aI10115638
aa(lp3293
I54284
aI0
aI10115646
aa(lp3294
I54285
aI242
aI10115654
aa(lp3295
I54283
aI17
aI10115668
aa(lp3296
I54288
aI78
aI10116031
aa(lp3297
I54289
aI9
aI10116035
aa(lp3298
I54293
aI2
aI10116165
aa(lp3299
I54294
aI66
aI10116195
aa(lp3300
I54296
aI31
aI10116213
aa(lp3301
I65533
aI0
aI10116235
aa(lp3302
I54272
aI176
aI10116459
aa(lp3303
I54273
aI14
aI10116463
aa(lp3304
I54279
aI159
aI10116600
aa(lp3305
I54280
aI39
aI10116604
aa(lp3306
I54288
aI81
aI10116724
aa(lp3307
I54289
aI9
aI10116728
aa(lp3308
I54293
aI0
aI10116858
aa(lp3309
I54294
aI65
aI10116888
aa(lp3310
I54296
aI31
aI10116906
aa(lp3311
I65533
aI0
aI10116928
aa(lp3312
I54279
aI79
aI10117228
aa(lp3313
I54280
aI44
aI10117232
aa(lp3314
I54288
aI84
aI10117352
aa(lp3315
I54289
aI9
aI10117356
aa(lp3316
I54293
aI6
aI10117486
aa(lp3317
I54294
aI63
aI10117516
aa(lp3318
I54296
aI31
aI10117534
aa(lp3319
I65533
aI0
aI10117556
aa(lp3320
I54279
aI255
aI10117858
aa(lp3321
I54280
aI48
aI10117862
aa(lp3322
I54288
aI87
aI10117982
aa(lp3323
I54289
aI9
aI10117986
aa(lp3324
I54293
aI4
aI10118116
aa(lp3325
I54294
aI62
aI10118146
aa(lp3326
I54296
aI31
aI10118164
aa(lp3327
I65533
aI0
aI10118186
aa(lp3328
I54296
aI31
aI10118315
aa(lp3329
I54279
aI175
aI10118538
aa(lp3330
I54280
aI53
aI10118542
aa(lp3331
I54288
aI90
aI10118662
aa(lp3332
I54289
aI9
aI10118666
aa(lp3333
I54293
aI2
aI10118796
aa(lp3334
I54294
aI61
aI10118826
aa(lp3335
I54296
aI31
aI10118844
aa(lp3336
I65533
aI0
aI10118866
aa(lp3337
I54272
aI96
aI10119093
aa(lp3338
I54273
aI29
aI10119097
aa(lp3339
I54283
aI16
aI10119178
aa(lp3340
I54279
aI95
aI10119243
aa(lp3341
I54280
aI58
aI10119247
aa(lp3342
I54288
aI93
aI10119367
aa(lp3343
I54289
aI9
aI10119371
aa(lp3344
I54286
aI8
aI10119425
aa(lp3345
I54287
aI11
aI10119429
aa(lp3346
I54293
aI0
aI10119531
aa(lp3347
I54294
aI60
aI10119561
aa(lp3348
I54296
aI31
aI10119579
aa(lp3349
I65533
aI0
aI10119601
aa(lp3350
I54279
aI15
aI10119900
aa(lp3351
I54280
aI63
aI10119904
aa(lp3352
I54288
aI96
aI10120024
aa(lp3353
I54289
aI9
aI10120028
aa(lp3354
I54286
aI15
aI10120082
aa(lp3355
I54287
aI11
aI10120086
aa(lp3356
I54293
aI6
aI10120188
aa(lp3357
I54294
aI58
aI10120218
aa(lp3358
I54296
aI31
aI10120236
aa(lp3359
I65533
aI0
aI10120258
aa(lp3360
I54279
aI191
aI10120559
aa(lp3361
I54280
aI67
aI10120563
aa(lp3362
I54288
aI99
aI10120683
aa(lp3363
I54289
aI9
aI10120687
aa(lp3364
I54286
aI22
aI10120741
aa(lp3365
I54287
aI11
aI10120745
aa(lp3366
I54293
aI4
aI10120847
aa(lp3367
I54294
aI57
aI10120877
aa(lp3368
I54296
aI31
aI10120895
aa(lp3369
I65533
aI0
aI10120917
aa(lp3370
I54296
aI31
aI10121046
aa(lp3371
I54279
aI111
aI10121268
aa(lp3372
I54280
aI72
aI10121272
aa(lp3373
I54288
aI102
aI10121392
aa(lp3374
I54289
aI9
aI10121396
aa(lp3375
I54286
aI29
aI10121450
aa(lp3376
I54287
aI11
aI10121454
aa(lp3377
I54293
aI2
aI10121556
aa(lp3378
I54294
aI56
aI10121586
aa(lp3379
I54296
aI31
aI10121604
aa(lp3380
I65533
aI0
aI10121626
aa(lp3381
I54272
aI192
aI10121850
aa(lp3382
I54273
aI58
aI10121854
aa(lp3383
I54279
aI31
aI10121990
aa(lp3384
I54280
aI77
aI10121994
aa(lp3385
I54288
aI105
aI10122114
aa(lp3386
I54289
aI9
aI10122118
aa(lp3387
I54286
aI36
aI10122172
aa(lp3388
I54287
aI11
aI10122176
aa(lp3389
I54293
aI0
aI10122278
aa(lp3390
I54294
aI55
aI10122308
aa(lp3391
I54296
aI31
aI10122326
aa(lp3392
I65533
aI0
aI10122348
aa(lp3393
I54279
aI207
aI10122647
aa(lp3394
I54280
aI81
aI10122651
aa(lp3395
I54288
aI108
aI10122771
aa(lp3396
I54289
aI9
aI10122775
aa(lp3397
I54286
aI43
aI10122829
aa(lp3398
I54287
aI11
aI10122833
aa(lp3399
I54293
aI6
aI10122935
aa(lp3400
I54294
aI53
aI10122965
aa(lp3401
I54296
aI31
aI10122983
aa(lp3402
I65533
aI0
aI10123005
aa(lp3403
I54285
aI0
aI10123246
aa(lp3404
I54284
aI0
aI10123256
aa(lp3405
I54283
aI0
aI10123266
aa(lp3406
I54282
aI0
aI10123276
aa(lp3407
I54281
aI0
aI10123286
aa(lp3408
I54280
aI0
aI10123296
aa(lp3409
I54279
aI0
aI10123306
aa(lp3410
I54288
aI111
aI10123425
aa(lp3411
I54289
aI9
aI10123429
aa(lp3412
I54286
aI50
aI10123483
aa(lp3413
I54287
aI11
aI10123487
aa(lp3414
I54293
aI4
aI10123589
aa(lp3415
I54294
aI52
aI10123619
aa(lp3416
I54296
aI31
aI10123637
aa(lp3417
I65533
aI0
aI10123659
aa(lp3418
I54296
aI31
aI10123788
aa(lp3419
I54288
aI114
aI10124031
aa(lp3420
I54289
aI9
aI10124035
aa(lp3421
I54286
aI57
aI10124089
aa(lp3422
I54287
aI11
aI10124093
aa(lp3423
I54293
aI2
aI10124195
aa(lp3424
I54294
aI51
aI10124225
aa(lp3425
I54296
aI31
aI10124243
aa(lp3426
I65533
aI0
aI10124265
aa(lp3427
I54272
aI96
aI10124489
aa(lp3428
I54273
aI29
aI10124493
aa(lp3429
I54288
aI117
aI10124650
aa(lp3430
I54289
aI9
aI10124654
aa(lp3431
I54286
aI64
aI10124708
aa(lp3432
I54287
aI11
aI10124712
aa(lp3433
I54293
aI0
aI10124814
aa(lp3434
I54294
aI50
aI10124844
aa(lp3435
I54296
aI31
aI10124862
aa(lp3436
I65533
aI0
aI10124884
aa(lp3437
I54288
aI120
aI10125204
aa(lp3438
I54289
aI9
aI10125208
aa(lp3439
I54286
aI71
aI10125262
aa(lp3440
I54287
aI11
aI10125266
aa(lp3441
I54293
aI2
aI10125368
aa(lp3442
I54294
aI51
aI10125398
aa(lp3443
I54296
aI31
aI10125416
aa(lp3444
I65533
aI0
aI10125438
aa(lp3445
I54288
aI123
aI10125760
aa(lp3446
I54289
aI9
aI10125764
aa(lp3447
I54286
aI64
aI10125824
aa(lp3448
I54287
aI11
aI10125828
aa(lp3449
I54293
aI4
aI10125930
aa(lp3450
I54294
aI52
aI10125960
aa(lp3451
I54296
aI31
aI10125978
aa(lp3452
I65533
aI0
aI10126000
aa(lp3453
I54296
aI31
aI10126129
aa(lp3454
I54288
aI126
aI10126372
aa(lp3455
I54289
aI9
aI10126376
aa(lp3456
I54286
aI57
aI10126436
aa(lp3457
I54287
aI11
aI10126440
aa(lp3458
I54293
aI6
aI10126542
aa(lp3459
I54294
aI53
aI10126572
aa(lp3460
I54296
aI31
aI10126590
aa(lp3461
I65533
aI0
aI10126612
aa(lp3462
I54272
aI2
aI10126836
aa(lp3463
I54273
aI22
aI10126840
aa(lp3464
I54288
aI129
aI10126997
aa(lp3465
I54289
aI9
aI10127001
aa(lp3466
I54286
aI50
aI10127061
aa(lp3467
I54287
aI11
aI10127065
aa(lp3468
I54293
aI0
aI10127167
aa(lp3469
I54294
aI55
aI10127197
aa(lp3470
I54296
aI31
aI10127215
aa(lp3471
I65533
aI0
aI10127237
aa(lp3472
I54288
aI132
aI10127557
aa(lp3473
I54289
aI9
aI10127561
aa(lp3474
I54286
aI43
aI10127621
aa(lp3475
I54287
aI11
aI10127625
aa(lp3476
I54293
aI2
aI10127727
aa(lp3477
I54294
aI56
aI10127757
aa(lp3478
I54296
aI31
aI10127775
aa(lp3479
I65533
aI0
aI10127797
aa(lp3480
I54288
aI135
aI10128119
aa(lp3481
I54289
aI9
aI10128123
aa(lp3482
I54286
aI36
aI10128183
aa(lp3483
I54287
aI11
aI10128187
aa(lp3484
I54293
aI4
aI10128289
aa(lp3485
I54294
aI57
aI10128319
aa(lp3486
I54296
aI31
aI10128337
aa(lp3487
I65533
aI0
aI10128359
aa(lp3488
I54296
aI31
aI10128488
aa(lp3489
I54288
aI138
aI10128731
aa(lp3490
I54289
aI9
aI10128735
aa(lp3491
I54286
aI29
aI10128795
aa(lp3492
I54287
aI11
aI10128799
aa(lp3493
I54293
aI6
aI10128901
aa(lp3494
I54294
aI58
aI10128931
aa(lp3495
I54296
aI31
aI10128949
aa(lp3496
I65533
aI0
aI10128971
aa(lp3497
I54272
aI129
aI10129195
aa(lp3498
I54273
aI18
aI10129199
aa(lp3499
I54288
aI141
aI10129356
aa(lp3500
I54289
aI9
aI10129360
aa(lp3501
I54286
aI22
aI10129420
aa(lp3502
I54287
aI11
aI10129424
aa(lp3503
I54293
aI0
aI10129526
aa(lp3504
I54294
aI60
aI10129556
aa(lp3505
I54296
aI31
aI10129574
aa(lp3506
I65533
aI0
aI10129596
aa(lp3507
I54288
aI144
aI10129916
aa(lp3508
I54289
aI9
aI10129920
aa(lp3509
I54286
aI15
aI10129980
aa(lp3510
I54287
aI11
aI10129984
aa(lp3511
I54293
aI6
aI10130092
aa(lp3512
I54294
aI58
aI10130122
aa(lp3513
I54296
aI31
aI10130140
aa(lp3514
I65533
aI0
aI10130162
aa(lp3515
I54290
aI64
aI10130447
aa(lp3516
I54288
aI147
aI10130503
aa(lp3517
I54289
aI9
aI10130507
aa(lp3518
I54286
aI8
aI10130567
aa(lp3519
I54287
aI11
aI10130571
aa(lp3520
I54293
aI4
aI10130679
aa(lp3521
I54294
aI57
aI10130709
aa(lp3522
I54296
aI31
aI10130727
aa(lp3523
I65533
aI0
aI10130749
aa(lp3524
I54296
aI31
aI10130878
aa(lp3525
I54288
aI150
aI10131132
aa(lp3526
I54289
aI9
aI10131136
aa(lp3527
I54286
aI1
aI10131196
aa(lp3528
I54287
aI11
aI10131200
aa(lp3529
I54293
aI2
aI10131308
aa(lp3530
I54294
aI56
aI10131338
aa(lp3531
I54296
aI31
aI10131356
aa(lp3532
I65533
aI0
aI10131378
aa(lp3533
I54272
aI176
aI10131602
aa(lp3534
I54273
aI14
aI10131606
aa(lp3535
I54288
aI153
aI10131774
aa(lp3536
I54289
aI9
aI10131778
aa(lp3537
I54286
aI250
aI10131838
aa(lp3538
I54287
aI10
aI10131842
aa(lp3539
I54293
aI0
aI10131950
aa(lp3540
I54294
aI55
aI10131980
aa(lp3541
I54296
aI31
aI10131998
aa(lp3542
I65533
aI0
aI10132020
aa(lp3543
I54288
aI156
aI10132351
aa(lp3544
I54289
aI9
aI10132355
aa(lp3545
I54286
aI243
aI10132415
aa(lp3546
I54287
aI10
aI10132419
aa(lp3547
I54293
aI6
aI10132527
aa(lp3548
I54294
aI53
aI10132557
aa(lp3549
I54296
aI31
aI10132575
aa(lp3550
I65533
aI0
aI10132597
aa(lp3551
I54288
aI159
aI10132930
aa(lp3552
I54289
aI9
aI10132934
aa(lp3553
I54286
aI236
aI10132994
aa(lp3554
I54287
aI10
aI10132998
aa(lp3555
I54293
aI4
aI10133106
aa(lp3556
I54294
aI52
aI10133136
aa(lp3557
I54296
aI31
aI10133154
aa(lp3558
I65533
aI0
aI10133176
aa(lp3559
I54296
aI31
aI10133305
aa(lp3560
I54288
aI162
aI10133559
aa(lp3561
I54289
aI9
aI10133563
aa(lp3562
I54286
aI229
aI10133623
aa(lp3563
I54287
aI10
aI10133627
aa(lp3564
I54293
aI2
aI10133735
aa(lp3565
I54294
aI51
aI10133765
aa(lp3566
I54296
aI31
aI10133783
aa(lp3567
I65533
aI0
aI10133805
aa(lp3568
I54272
aI96
aI10134032
aa(lp3569
I54273
aI29
aI10134036
aa(lp3570
I54288
aI165
aI10134204
aa(lp3571
I54289
aI9
aI10134208
aa(lp3572
I54286
aI222
aI10134268
aa(lp3573
I54287
aI10
aI10134272
aa(lp3574
I54293
aI0
aI10134380
aa(lp3575
I54294
aI50
aI10134410
aa(lp3576
I54296
aI31
aI10134428
aa(lp3577
I65533
aI0
aI10134450
aa(lp3578
I54288
aI168
aI10134781
aa(lp3579
I54289
aI9
aI10134785
aa(lp3580
I54286
aI215
aI10134845
aa(lp3581
I54287
aI10
aI10134849
aa(lp3582
I54293
aI6
aI10134957
aa(lp3583
I54294
aI48
aI10134987
aa(lp3584
I54296
aI31
aI10135005
aa(lp3585
I65533
aI0
aI10135027
aa(lp3586
I54288
aI171
aI10135360
aa(lp3587
I54289
aI9
aI10135364
aa(lp3588
I54286
aI208
aI10135424
aa(lp3589
I54287
aI10
aI10135428
aa(lp3590
I54293
aI4
aI10135536
aa(lp3591
I54294
aI47
aI10135566
aa(lp3592
I54296
aI31
aI10135584
aa(lp3593
I65533
aI0
aI10135606
aa(lp3594
I54296
aI31
aI10135735
aa(lp3595
I54288
aI174
aI10135989
aa(lp3596
I54289
aI9
aI10135993
aa(lp3597
I54286
aI201
aI10136053
aa(lp3598
I54287
aI10
aI10136057
aa(lp3599
I54293
aI2
aI10136165
aa(lp3600
I54294
aI46
aI10136195
aa(lp3601
I54296
aI31
aI10136213
aa(lp3602
I65533
aI0
aI10136235
aa(lp3603
I54272
aI192
aI10136459
aa(lp3604
I54273
aI58
aI10136463
aa(lp3605
I54288
aI177
aI10136631
aa(lp3606
I54289
aI9
aI10136635
aa(lp3607
I54286
aI194
aI10136695
aa(lp3608
I54287
aI10
aI10136699
aa(lp3609
I54293
aI0
aI10136807
aa(lp3610
I54294
aI45
aI10136837
aa(lp3611
I54296
aI31
aI10136855
aa(lp3612
I65533
aI0
aI10136877
aa(lp3613
I54288
aI180
aI10137208
aa(lp3614
I54289
aI9
aI10137212
aa(lp3615
I54286
aI187
aI10137272
aa(lp3616
I54287
aI10
aI10137276
aa(lp3617
I54293
aI6
aI10137384
aa(lp3618
I54294
aI43
aI10137414
aa(lp3619
I54296
aI31
aI10137432
aa(lp3620
I65533
aI0
aI10137454
aa(lp3621
I54288
aI183
aI10137787
aa(lp3622
I54289
aI9
aI10137791
aa(lp3623
I54286
aI194
aI10137857
aa(lp3624
I54287
aI10
aI10137861
aa(lp3625
I54293
aI4
aI10137969
aa(lp3626
I54294
aI42
aI10137999
aa(lp3627
I54296
aI31
aI10138017
aa(lp3628
I65533
aI0
aI10138039
aa(lp3629
I54296
aI31
aI10138168
aa(lp3630
I54272
aI176
aI10138391
aa(lp3631
I54273
aI14
aI10138395
aa(lp3632
I54274
aI0
aI10138405
aa(lp3633
I54275
aI0
aI10138409
aa(lp3634
I54277
aI24
aI10138416
aa(lp3635
I54278
aI106
aI10138423
aa(lp3636
I54276
aI33
aI10138436
aa(lp3637
I54283
aI8
aI10138731
aa(lp3638
I54279
aI215
aI10138751
aa(lp3639
I54280
aI156
aI10138755
aa(lp3640
I54281
aI0
aI10138767
aa(lp3641
I54282
aI0
aI10138771
aa(lp3642
I54284
aI0
aI10138779
aa(lp3643
I54285
aI242
aI10138787
aa(lp3644
I54283
aI17
aI10138801
aa(lp3645
I54288
aI186
aI10139175
aa(lp3646
I54289
aI9
aI10139179
aa(lp3647
I54286
aI201
aI10139245
aa(lp3648
I54287
aI10
aI10139249
aa(lp3649
I54290
aI8
aI10139558
aa(lp3650
I54293
aI4
aI10139802
aa(lp3651
I54294
aI112
aI10139832
aa(lp3652
I54286
aI128
aI10139859
aa(lp3653
I54287
aI5
aI10139863
aa(lp3654
I54288
aI0
aI10139873
aa(lp3655
I54289
aI9
aI10139877
aa(lp3656
I54291
aI24
aI10139884
aa(lp3657
I54292
aI107
aI10139891
aa(lp3658
I54290
aI65
aI10139903
aa(lp3659
I54293
aI2
aI10140259
aa(lp3660
I54294
aI111
aI10140289
aa(lp3661
I54296
aI31
aI10140307
aa(lp3662
I65533
aI0
aI10140329
aa(lp3663
I54272
aI176
aI10140554
aa(lp3664
I54273
aI14
aI10140558
aa(lp3665
I54279
aI135
aI10140695
aa(lp3666
I54280
aI161
aI10140699
aa(lp3667
I54293
aI0
aI10140911
aa(lp3668
I54294
aI110
aI10140941
aa(lp3669
I54296
aI31
aI10140959
aa(lp3670
I65533
aI0
aI10140981
aa(lp3671
I54279
aI55
aI10141282
aa(lp3672
I54280
aI166
aI10141286
aa(lp3673
I54293
aI6
aI10141498
aa(lp3674
I54294
aI108
aI10141528
aa(lp3675
I54296
aI31
aI10141546
aa(lp3676
I65533
aI0
aI10141568
aa(lp3677
I54279
aI231
aI10141871
aa(lp3678
I54280
aI170
aI10141875
aa(lp3679
I54293
aI4
aI10142087
aa(lp3680
I54294
aI107
aI10142117
aa(lp3681
I54296
aI31
aI10142135
aa(lp3682
I65533
aI0
aI10142157
aa(lp3683
I54296
aI31
aI10142286
aa(lp3684
I54279
aI151
aI10142510
aa(lp3685
I54280
aI175
aI10142514
aa(lp3686
I54293
aI2
aI10142726
aa(lp3687
I54294
aI106
aI10142756
aa(lp3688
I54296
aI31
aI10142774
aa(lp3689
I65533
aI0
aI10142796
aa(lp3690
I54272
aI96
aI10143024
aa(lp3691
I54273
aI29
aI10143028
aa(lp3692
I54283
aI16
aI10143109
aa(lp3693
I54279
aI71
aI10143174
aa(lp3694
I54280
aI180
aI10143178
aa(lp3695
I54293
aI0
aI10143390
aa(lp3696
I54294
aI105
aI10143420
aa(lp3697
I54296
aI31
aI10143438
aa(lp3698
I65533
aI0
aI10143460
aa(lp3699
I54279
aI247
aI10143760
aa(lp3700
I54280
aI184
aI10143764
aa(lp3701
I54293
aI6
aI10143976
aa(lp3702
I54294
aI103
aI10144006
aa(lp3703
I54296
aI31
aI10144024
aa(lp3704
I65533
aI0
aI10144046
aa(lp3705
I54279
aI167
aI10144348
aa(lp3706
I54280
aI189
aI10144352
aa(lp3707
I54293
aI4
aI10144564
aa(lp3708
I54294
aI102
aI10144594
aa(lp3709
I54296
aI31
aI10144612
aa(lp3710
I65533
aI0
aI10144634
aa(lp3711
I54296
aI31
aI10144763
aa(lp3712
I54279
aI87
aI10144986
aa(lp3713
I54280
aI194
aI10144990
aa(lp3714
I54293
aI2
aI10145202
aa(lp3715
I54294
aI101
aI10145232
aa(lp3716
I54296
aI31
aI10145250
aa(lp3717
I65533
aI0
aI10145272
aa(lp3718
I54272
aI192
aI10145497
aa(lp3719
I54273
aI58
aI10145501
aa(lp3720
I54279
aI7
aI10145637
aa(lp3721
I54280
aI199
aI10145641
aa(lp3722
I54293
aI0
aI10145853
aa(lp3723
I54294
aI100
aI10145883
aa(lp3724
I54296
aI31
aI10145901
aa(lp3725
I65533
aI0
aI10145923
aa(lp3726
I54279
aI183
aI10146223
aa(lp3727
I54280
aI203
aI10146227
aa(lp3728
I54293
aI6
aI10146439
aa(lp3729
I54294
aI98
aI10146469
aa(lp3730
I54296
aI31
aI10146487
aa(lp3731
I65533
aI0
aI10146509
aa(lp3732
I54285
aI0
aI10146751
aa(lp3733
I54284
aI0
aI10146761
aa(lp3734
I54283
aI0
aI10146771
aa(lp3735
I54282
aI0
aI10146781
aa(lp3736
I54281
aI0
aI10146791
aa(lp3737
I54280
aI0
aI10146801
aa(lp3738
I54279
aI0
aI10146811
aa(lp3739
I54288
aI3
aI10146930
aa(lp3740
I54289
aI9
aI10146934
aa(lp3741
I54293
aI4
aI10147064
aa(lp3742
I54294
aI97
aI10147094
aa(lp3743
I54296
aI31
aI10147112
aa(lp3744
I65533
aI0
aI10147134
aa(lp3745
I54296
aI31
aI10147263
aa(lp3746
I54288
aI6
aI10147507
aa(lp3747
I54289
aI9
aI10147511
aa(lp3748
I54293
aI2
aI10147641
aa(lp3749
I54294
aI96
aI10147671
aa(lp3750
I54296
aI31
aI10147689
aa(lp3751
I65533
aI0
aI10147711
aa(lp3752
I54272
aI96
aI10147936
aa(lp3753
I54273
aI29
aI10147940
aa(lp3754
I54288
aI9
aI10148097
aa(lp3755
I54289
aI9
aI10148101
aa(lp3756
I54293
aI0
aI10148231
aa(lp3757
I54294
aI95
aI10148261
aa(lp3758
I54296
aI31
aI10148279
aa(lp3759
I65533
aI0
aI10148301
aa(lp3760
I54288
aI12
aI10148622
aa(lp3761
I54289
aI9
aI10148626
aa(lp3762
I54293
aI6
aI10148756
aa(lp3763
I54294
aI93
aI10148786
aa(lp3764
I54296
aI31
aI10148804
aa(lp3765
I65533
aI0
aI10148826
aa(lp3766
I54288
aI15
aI10149149
aa(lp3767
I54289
aI9
aI10149153
aa(lp3768
I54293
aI4
aI10149283
aa(lp3769
I54294
aI92
aI10149313
aa(lp3770
I54296
aI31
aI10149331
aa(lp3771
I65533
aI0
aI10149353
aa(lp3772
I54296
aI31
aI10149482
aa(lp3773
I54288
aI18
aI10149726
aa(lp3774
I54289
aI9
aI10149730
aa(lp3775
I54293
aI2
aI10149860
aa(lp3776
I54294
aI91
aI10149890
aa(lp3777
I54296
aI31
aI10149908
aa(lp3778
I65533
aI0
aI10149930
aa(lp3779
I54272
aI2
aI10150155
aa(lp3780
I54273
aI22
aI10150159
aa(lp3781
I54288
aI21
aI10150316
aa(lp3782
I54289
aI9
aI10150320
aa(lp3783
I54293
aI0
aI10150450
aa(lp3784
I54294
aI90
aI10150480
aa(lp3785
I54296
aI31
aI10150498
aa(lp3786
I65533
aI0
aI10150520
aa(lp3787
I54288
aI24
aI10150841
aa(lp3788
I54289
aI9
aI10150845
aa(lp3789
I54293
aI6
aI10150975
aa(lp3790
I54294
aI88
aI10151005
aa(lp3791
I54296
aI31
aI10151023
aa(lp3792
I65533
aI0
aI10151045
aa(lp3793
I54288
aI27
aI10151368
aa(lp3794
I54289
aI9
aI10151372
aa(lp3795
I54293
aI4
aI10151502
aa(lp3796
I54294
aI87
aI10151532
aa(lp3797
I54296
aI31
aI10151550
aa(lp3798
I65533
aI0
aI10151572
aa(lp3799
I54296
aI31
aI10151701
aa(lp3800
I54288
aI30
aI10151945
aa(lp3801
I54289
aI9
aI10151949
aa(lp3802
I54293
aI2
aI10152079
aa(lp3803
I54294
aI86
aI10152109
aa(lp3804
I54296
aI31
aI10152127
aa(lp3805
I65533
aI0
aI10152149
aa(lp3806
I54272
aI129
aI10152374
aa(lp3807
I54273
aI18
aI10152378
aa(lp3808
I54288
aI33
aI10152535
aa(lp3809
I54289
aI9
aI10152539
aa(lp3810
I54293
aI0
aI10152669
aa(lp3811
I54294
aI85
aI10152699
aa(lp3812
I54296
aI31
aI10152717
aa(lp3813
I65533
aI0
aI10152739
aa(lp3814
I54288
aI36
aI10153060
aa(lp3815
I54289
aI9
aI10153064
aa(lp3816
I54293
aI6
aI10153194
aa(lp3817
I54294
aI83
aI10153224
aa(lp3818
I54296
aI31
aI10153242
aa(lp3819
I65533
aI0
aI10153264
aa(lp3820
I54288
aI39
aI10153587
aa(lp3821
I54289
aI9
aI10153591
aa(lp3822
I54293
aI4
aI10153721
aa(lp3823
I54294
aI82
aI10153751
aa(lp3824
I54296
aI31
aI10153769
aa(lp3825
I65533
aI0
aI10153791
aa(lp3826
I54296
aI31
aI10153920
aa(lp3827
I54288
aI42
aI10154164
aa(lp3828
I54289
aI9
aI10154168
aa(lp3829
I54293
aI2
aI10154298
aa(lp3830
I54294
aI81
aI10154328
aa(lp3831
I54296
aI31
aI10154346
aa(lp3832
I65533
aI0
aI10154368
aa(lp3833
I54272
aI176
aI10154593
aa(lp3834
I54273
aI14
aI10154597
aa(lp3835
I54288
aI45
aI10154754
aa(lp3836
I54289
aI9
aI10154758
aa(lp3837
I54293
aI0
aI10154888
aa(lp3838
I54294
aI80
aI10154918
aa(lp3839
I54296
aI31
aI10154936
aa(lp3840
I65533
aI0
aI10154958
aa(lp3841
I54288
aI48
aI10155279
aa(lp3842
I54289
aI9
aI10155283
aa(lp3843
I54293
aI6
aI10155413
aa(lp3844
I54294
aI78
aI10155443
aa(lp3845
I54296
aI31
aI10155461
aa(lp3846
I65533
aI0
aI10155483
aa(lp3847
I54288
aI51
aI10155806
aa(lp3848
I54289
aI9
aI10155810
aa(lp3849
I54293
aI4
aI10155940
aa(lp3850
I54294
aI77
aI10155970
aa(lp3851
I54296
aI31
aI10155988
aa(lp3852
I65533
aI0
aI10156010
aa(lp3853
I54296
aI31
aI10156139
aa(lp3854
I54288
aI54
aI10156383
aa(lp3855
I54289
aI9
aI10156387
aa(lp3856
I54293
aI2
aI10156517
aa(lp3857
I54294
aI76
aI10156547
aa(lp3858
I54296
aI31
aI10156565
aa(lp3859
I65533
aI0
aI10156587
aa(lp3860
I54272
aI96
aI10156815
aa(lp3861
I54273
aI29
aI10156819
aa(lp3862
I54288
aI57
aI10156976
aa(lp3863
I54289
aI9
aI10156980
aa(lp3864
I54293
aI0
aI10157110
aa(lp3865
I54294
aI75
aI10157140
aa(lp3866
I54296
aI31
aI10157158
aa(lp3867
I65533
aI0
aI10157180
aa(lp3868
I54276
aI32
aI10157329
aa(lp3869
I54288
aI60
aI10157510
aa(lp3870
I54289
aI9
aI10157514
aa(lp3871
I54293
aI6
aI10157644
aa(lp3872
I54294
aI73
aI10157674
aa(lp3873
I54296
aI31
aI10157692
aa(lp3874
I65533
aI0
aI10157714
aa(lp3875
I54288
aI63
aI10158036
aa(lp3876
I54289
aI9
aI10158040
aa(lp3877
I54293
aI4
aI10158170
aa(lp3878
I54294
aI72
aI10158200
aa(lp3879
I54296
aI31
aI10158218
aa(lp3880
I65533
aI0
aI10158240
aa(lp3881
I54296
aI31
aI10158369
aa(lp3882
I54288
aI66
aI10158612
aa(lp3883
I54289
aI9
aI10158616
aa(lp3884
I54293
aI2
aI10158746
aa(lp3885
I54294
aI71
aI10158776
aa(lp3886
I54296
aI31
aI10158794
aa(lp3887
I65533
aI0
aI10158816
aa(lp3888
I54272
aI192
aI10159040
aa(lp3889
I54273
aI58
aI10159044
aa(lp3890
I54288
aI69
aI10159201
aa(lp3891
I54289
aI9
aI10159205
aa(lp3892
I54293
aI0
aI10159335
aa(lp3893
I54294
aI70
aI10159365
aa(lp3894
I54296
aI31
aI10159383
aa(lp3895
I65533
aI0
aI10159405
aa(lp3896
I54288
aI72
aI10159725
aa(lp3897
I54289
aI9
aI10159729
aa(lp3898
I54293
aI6
aI10159859
aa(lp3899
I54294
aI68
aI10159889
aa(lp3900
I54296
aI31
aI10159907
aa(lp3901
I65533
aI0
aI10159929
aa(lp3902
I54288
aI75
aI10160251
aa(lp3903
I54289
aI9
aI10160255
aa(lp3904
I54293
aI4
aI10160385
aa(lp3905
I54294
aI67
aI10160415
aa(lp3906
I54296
aI31
aI10160433
aa(lp3907
I65533
aI0
aI10160455
aa(lp3908
I54296
aI31
aI10160584
aa(lp3909
I54288
aI78
aI10160827
aa(lp3910
I54289
aI9
aI10160831
aa(lp3911
I54293
aI2
aI10160961
aa(lp3912
I54294
aI66
aI10160991
aa(lp3913
I54296
aI31
aI10161009
aa(lp3914
I65533
aI0
aI10161031
aa(lp3915
I54272
aI96
aI10161255
aa(lp3916
I54273
aI29
aI10161259
aa(lp3917
I54288
aI81
aI10161416
aa(lp3918
I54289
aI9
aI10161420
aa(lp3919
I54293
aI0
aI10161550
aa(lp3920
I54294
aI65
aI10161580
aa(lp3921
I54296
aI31
aI10161598
aa(lp3922
I65533
aI0
aI10161620
aa(lp3923
I54288
aI84
aI10161940
aa(lp3924
I54289
aI9
aI10161944
aa(lp3925
I54293
aI6
aI10162074
aa(lp3926
I54294
aI63
aI10162104
aa(lp3927
I54296
aI31
aI10162122
aa(lp3928
I65533
aI0
aI10162144
aa(lp3929
I54288
aI87
aI10162466
aa(lp3930
I54289
aI9
aI10162470
aa(lp3931
I54293
aI4
aI10162600
aa(lp3932
I54294
aI62
aI10162630
aa(lp3933
I54296
aI31
aI10162648
aa(lp3934
I65533
aI0
aI10162670
aa(lp3935
I54296
aI31
aI10162799
aa(lp3936
I54288
aI90
aI10163042
aa(lp3937
I54289
aI9
aI10163046
aa(lp3938
I54293
aI2
aI10163176
aa(lp3939
I54294
aI61
aI10163206
aa(lp3940
I54296
aI31
aI10163224
aa(lp3941
I65533
aI0
aI10163246
aa(lp3942
I54272
aI2
aI10163470
aa(lp3943
I54273
aI22
aI10163474
aa(lp3944
I54288
aI93
aI10163631
aa(lp3945
I54289
aI9
aI10163635
aa(lp3946
I54286
aI134
aI10163689
aa(lp3947
I54287
aI5
aI10163693
aa(lp3948
I54293
aI0
aI10163795
aa(lp3949
I54294
aI60
aI10163825
aa(lp3950
I54296
aI31
aI10163843
aa(lp3951
I65533
aI0
aI10163865
aa(lp3952
I54288
aI96
aI10164185
aa(lp3953
I54289
aI9
aI10164189
aa(lp3954
I54286
aI140
aI10164243
aa(lp3955
I54287
aI5
aI10164247
aa(lp3956
I54293
aI6
aI10164349
aa(lp3957
I54294
aI58
aI10164379
aa(lp3958
I54296
aI31
aI10164397
aa(lp3959
I65533
aI0
aI10164419
aa(lp3960
I54288
aI99
aI10164741
aa(lp3961
I54289
aI9
aI10164745
aa(lp3962
I54286
aI146
aI10164799
aa(lp3963
I54287
aI5
aI10164803
aa(lp3964
I54293
aI4
aI10164905
aa(lp3965
I54294
aI57
aI10164935
aa(lp3966
I54296
aI31
aI10164953
aa(lp3967
I65533
aI0
aI10164975
aa(lp3968
I54296
aI31
aI10165104
aa(lp3969
I54288
aI102
aI10165347
aa(lp3970
I54289
aI9
aI10165351
aa(lp3971
I54286
aI152
aI10165405
aa(lp3972
I54287
aI5
aI10165409
aa(lp3973
I54293
aI2
aI10165511
aa(lp3974
I54294
aI56
aI10165541
aa(lp3975
I54296
aI31
aI10165559
aa(lp3976
I65533
aI0
aI10165581
aa(lp3977
I54272
aI129
aI10165805
aa(lp3978
I54273
aI18
aI10165809
aa(lp3979
I54288
aI105
aI10165966
aa(lp3980
I54289
aI9
aI10165970
aa(lp3981
I54286
aI158
aI10166024
aa(lp3982
I54287
aI5
aI10166028
aa(lp3983
I54293
aI0
aI10166130
aa(lp3984
I54294
aI55
aI10166160
aa(lp3985
I54296
aI31
aI10166178
aa(lp3986
I65533
aI0
aI10166200
aa(lp3987
I54288
aI108
aI10166520
aa(lp3988
I54289
aI9
aI10166524
aa(lp3989
I54286
aI164
aI10166578
aa(lp3990
I54287
aI5
aI10166582
aa(lp3991
I54293
aI6
aI10166684
aa(lp3992
I54294
aI53
aI10166714
aa(lp3993
I54296
aI31
aI10166732
aa(lp3994
I65533
aI0
aI10166754
aa(lp3995
I54288
aI111
aI10167076
aa(lp3996
I54289
aI9
aI10167080
aa(lp3997
I54286
aI170
aI10167134
aa(lp3998
I54287
aI5
aI10167138
aa(lp3999
I54293
aI4
aI10167240
aa(lp4000
I54294
aI52
aI10167270
aa(lp4001
I54296
aI31
aI10167288
aa(lp4002
I65533
aI0
aI10167310
aa(lp4003
I54296
aI31
aI10167439
aa(lp4004
I54288
aI114
aI10167682
aa(lp4005
I54289
aI9
aI10167686
aa(lp4006
I54286
aI176
aI10167740
aa(lp4007
I54287
aI5
aI10167744
aa(lp4008
I54293
aI2
aI10167846
aa(lp4009
I54294
aI51
aI10167876
aa(lp4010
I54296
aI31
aI10167894
aa(lp4011
I65533
aI0
aI10167916
aa(lp4012
I54272
aI176
aI10168140
aa(lp4013
I54273
aI14
aI10168144
aa(lp4014
I54288
aI117
aI10168301
aa(lp4015
I54289
aI9
aI10168305
aa(lp4016
I54286
aI182
aI10168359
aa(lp4017
I54287
aI5
aI10168363
aa(lp4018
I54293
aI0
aI10168465
aa(lp4019
I54294
aI50
aI10168495
aa(lp4020
I54296
aI31
aI10168513
aa(lp4021
I65533
aI0
aI10168535
aa(lp4022
I54288
aI120
aI10168855
aa(lp4023
I54289
aI9
aI10168859
aa(lp4024
I54286
aI188
aI10168913
aa(lp4025
I54287
aI5
aI10168917
aa(lp4026
I54293
aI2
aI10169019
aa(lp4027
I54294
aI51
aI10169049
aa(lp4028
I54296
aI31
aI10169067
aa(lp4029
I65533
aI0
aI10169089
aa(lp4030
I54288
aI123
aI10169411
aa(lp4031
I54289
aI9
aI10169415
aa(lp4032
I54286
aI194
aI10169469
aa(lp4033
I54287
aI5
aI10169473
aa(lp4034
I54293
aI4
aI10169575
aa(lp4035
I54294
aI52
aI10169605
aa(lp4036
I54296
aI31
aI10169623
aa(lp4037
I65533
aI0
aI10169645
aa(lp4038
I54296
aI31
aI10169774
aa(lp4039
I54288
aI126
aI10170017
aa(lp4040
I54289
aI9
aI10170021
aa(lp4041
I54286
aI200
aI10170075
aa(lp4042
I54287
aI5
aI10170079
aa(lp4043
I54293
aI6
aI10170181
aa(lp4044
I54294
aI53
aI10170211
aa(lp4045
I54296
aI31
aI10170229
aa(lp4046
I65533
aI0
aI10170251
aa(lp4047
I54272
aI96
aI10170478
aa(lp4048
I54273
aI29
aI10170482
aa(lp4049
I54288
aI129
aI10170639
aa(lp4050
I54289
aI9
aI10170643
aa(lp4051
I54286
aI206
aI10170697
aa(lp4052
I54287
aI5
aI10170701
aa(lp4053
I54293
aI0
aI10170803
aa(lp4054
I54294
aI55
aI10170833
aa(lp4055
I54296
aI31
aI10170851
aa(lp4056
I65533
aI0
aI10170873
aa(lp4057
I54288
aI132
aI10171193
aa(lp4058
I54289
aI9
aI10171197
aa(lp4059
I54286
aI212
aI10171251
aa(lp4060
I54287
aI5
aI10171255
aa(lp4061
I54293
aI2
aI10171357
aa(lp4062
I54294
aI56
aI10171387
aa(lp4063
I54296
aI31
aI10171405
aa(lp4064
I65533
aI0
aI10171427
aa(lp4065
I54288
aI135
aI10171749
aa(lp4066
I54289
aI9
aI10171753
aa(lp4067
I54286
aI218
aI10171807
aa(lp4068
I54287
aI5
aI10171811
aa(lp4069
I54293
aI4
aI10171913
aa(lp4070
I54294
aI57
aI10171943
aa(lp4071
I54296
aI31
aI10171961
aa(lp4072
I65533
aI0
aI10171983
aa(lp4073
I54296
aI31
aI10172112
aa(lp4074
I54288
aI138
aI10172355
aa(lp4075
I54289
aI9
aI10172359
aa(lp4076
I54286
aI224
aI10172413
aa(lp4077
I54287
aI5
aI10172417
aa(lp4078
I54293
aI6
aI10172519
aa(lp4079
I54294
aI58
aI10172549
aa(lp4080
I54296
aI31
aI10172567
aa(lp4081
I65533
aI0
aI10172589
aa(lp4082
I54272
aI192
aI10172813
aa(lp4083
I54273
aI58
aI10172817
aa(lp4084
I54288
aI141
aI10172974
aa(lp4085
I54289
aI9
aI10172978
aa(lp4086
I54286
aI230
aI10173032
aa(lp4087
I54287
aI5
aI10173036
aa(lp4088
I54293
aI0
aI10173138
aa(lp4089
I54294
aI60
aI10173168
aa(lp4090
I54296
aI31
aI10173186
aa(lp4091
I65533
aI0
aI10173208
aa(lp4092
I54288
aI144
aI10173528
aa(lp4093
I54289
aI9
aI10173532
aa(lp4094
I54286
aI236
aI10173586
aa(lp4095
I54287
aI5
aI10173590
aa(lp4096
I54293
aI6
aI10173698
aa(lp4097
I54294
aI58
aI10173728
aa(lp4098
I54296
aI31
aI10173746
aa(lp4099
I65533
aI0
aI10173768
aa(lp4100
I54290
aI64
aI10174053
aa(lp4101
I54288
aI147
aI10174109
aa(lp4102
I54289
aI9
aI10174113
aa(lp4103
I54286
aI242
aI10174167
aa(lp4104
I54287
aI5
aI10174171
aa(lp4105
I54293
aI4
aI10174279
aa(lp4106
I54294
aI57
aI10174309
aa(lp4107
I54296
aI31
aI10174327
aa(lp4108
I65533
aI0
aI10174349
aa(lp4109
I54296
aI31
aI10174478
aa(lp4110
I54288
aI150
aI10174732
aa(lp4111
I54289
aI9
aI10174736
aa(lp4112
I54286
aI248
aI10174790
aa(lp4113
I54287
aI5
aI10174794
aa(lp4114
I54293
aI2
aI10174902
aa(lp4115
I54294
aI56
aI10174932
aa(lp4116
I54296
aI31
aI10174950
aa(lp4117
I65533
aI0
aI10174972
aa(lp4118
I54272
aI96
aI10175196
aa(lp4119
I54273
aI29
aI10175200
aa(lp4120
I54288
aI153
aI10175368
aa(lp4121
I54289
aI9
aI10175372
aa(lp4122
I54286
aI254
aI10175426
aa(lp4123
I54287
aI5
aI10175430
aa(lp4124
I54293
aI0
aI10175538
aa(lp4125
I54294
aI55
aI10175568
aa(lp4126
I54296
aI31
aI10175586
aa(lp4127
I65533
aI0
aI10175608
aa(lp4128
I54288
aI156
aI10175939
aa(lp4129
I54289
aI9
aI10175943
aa(lp4130
I54286
aI4
aI10175997
aa(lp4131
I54287
aI6
aI10176001
aa(lp4132
I54293
aI6
aI10176109
aa(lp4133
I54294
aI53
aI10176139
aa(lp4134
I54296
aI31
aI10176157
aa(lp4135
I65533
aI0
aI10176179
aa(lp4136
I54288
aI159
aI10176512
aa(lp4137
I54289
aI9
aI10176516
aa(lp4138
I54286
aI10
aI10176570
aa(lp4139
I54287
aI6
aI10176574
aa(lp4140
I54293
aI4
aI10176682
aa(lp4141
I54294
aI52
aI10176712
aa(lp4142
I54296
aI31
aI10176730
aa(lp4143
I65533
aI0
aI10176752
aa(lp4144
I54296
aI31
aI10176881
aa(lp4145
I54288
aI162
aI10177135
aa(lp4146
I54289
aI9
aI10177139
aa(lp4147
I54286
aI16
aI10177193
aa(lp4148
I54287
aI6
aI10177197
aa(lp4149
I54293
aI2
aI10177305
aa(lp4150
I54294
aI51
aI10177335
aa(lp4151
I54296
aI31
aI10177353
aa(lp4152
I65533
aI0
aI10177375
aa(lp4153
I54272
aI2
aI10177599
aa(lp4154
I54273
aI22
aI10177603
aa(lp4155
I54288
aI165
aI10177771
aa(lp4156
I54289
aI9
aI10177775
aa(lp4157
I54286
aI22
aI10177829
aa(lp4158
I54287
aI6
aI10177833
aa(lp4159
I54293
aI0
aI10177941
aa(lp4160
I54294
aI50
aI10177971
aa(lp4161
I54296
aI31
aI10177989
aa(lp4162
I65533
aI0
aI10178011
aa(lp4163
I54288
aI168
aI10178342
aa(lp4164
I54289
aI9
aI10178346
aa(lp4165
I54286
aI28
aI10178400
aa(lp4166
I54287
aI6
aI10178404
aa(lp4167
I54293
aI6
aI10178512
aa(lp4168
I54294
aI48
aI10178542
aa(lp4169
I54296
aI31
aI10178560
aa(lp4170
I65533
aI0
aI10178582
aa(lp4171
I54288
aI171
aI10178915
aa(lp4172
I54289
aI9
aI10178919
aa(lp4173
I54286
aI34
aI10178973
aa(lp4174
I54287
aI6
aI10178977
aa(lp4175
I54293
aI4
aI10179085
aa(lp4176
I54294
aI47
aI10179115
aa(lp4177
I54296
aI31
aI10179133
aa(lp4178
I65533
aI0
aI10179155
aa(lp4179
I54296
aI31
aI10179284
aa(lp4180
I54288
aI174
aI10179538
aa(lp4181
I54289
aI9
aI10179542
aa(lp4182
I54286
aI40
aI10179596
aa(lp4183
I54287
aI6
aI10179600
aa(lp4184
I54293
aI2
aI10179708
aa(lp4185
I54294
aI46
aI10179738
aa(lp4186
I54296
aI31
aI10179756
aa(lp4187
I65533
aI0
aI10179778
aa(lp4188
I54272
aI129
aI10180002
aa(lp4189
I54273
aI18
aI10180006
aa(lp4190
I54288
aI177
aI10180174
aa(lp4191
I54289
aI9
aI10180178
aa(lp4192
I54286
aI46
aI10180232
aa(lp4193
I54287
aI6
aI10180236
aa(lp4194
I54293
aI0
aI10180344
aa(lp4195
I54294
aI45
aI10180374
aa(lp4196
I54296
aI31
aI10180392
aa(lp4197
I65533
aI0
aI10180414
aa(lp4198
I54288
aI180
aI10180745
aa(lp4199
I54289
aI9
aI10180749
aa(lp4200
I54286
aI52
aI10180803
aa(lp4201
I54287
aI6
aI10180807
aa(lp4202
I54293
aI6
aI10180915
aa(lp4203
I54294
aI43
aI10180945
aa(lp4204
I54296
aI31
aI10180963
aa(lp4205
I65533
aI0
aI10180985
aa(lp4206
I54288
aI183
aI10181318
aa(lp4207
I54289
aI9
aI10181322
aa(lp4208
I54286
aI58
aI10181376
aa(lp4209
I54287
aI6
aI10181380
aa(lp4210
I54293
aI4
aI10181488
aa(lp4211
I54294
aI42
aI10181518
aa(lp4212
I54296
aI31
aI10181536
aa(lp4213
I65533
aI0
aI10181558
aa(lp4214
I54296
aI31
aI10181687
aa(lp4215
I54288
aI186
aI10182063
aa(lp4216
I54289
aI9
aI10182067
aa(lp4217
I54286
aI64
aI10182121
aa(lp4218
I54287
aI6
aI10182125
aa(lp4219
I54290
aI8
aI10182492
aa(lp4220
I54293
aI4
aI10182736
aa(lp4221
I54294
aI112
aI10182766
aa(lp4222
I54286
aI139
aI10182793
aa(lp4223
I54287
aI6
aI10182797
aa(lp4224
I54288
aI0
aI10182807
aa(lp4225
I54289
aI9
aI10182811
aa(lp4226
I54291
aI24
aI10182818
aa(lp4227
I54292
aI107
aI10182825
aa(lp4228
I54290
aI65
aI10182837
aa(lp4229
I54293
aI2
aI10183193
aa(lp4230
I54294
aI111
aI10183223
aa(lp4231
I54296
aI31
aI10183241
aa(lp4232
I65533
aI0
aI10183263
aa(lp4233
I54272
aI176
aI10183487
aa(lp4234
I54273
aI14
aI10183491
aa(lp4235
I54293
aI0
aI10183740
aa(lp4236
I54294
aI110
aI10183770
aa(lp4237
I54296
aI31
aI10183788
aa(lp4238
I65533
aI0
aI10183810
aa(lp4239
I54293
aI6
aI10184222
aa(lp4240
I54294
aI108
aI10184252
aa(lp4241
I54296
aI31
aI10184270
aa(lp4242
I65533
aI0
aI10184292
aa(lp4243
I54293
aI4
aI10184706
aa(lp4244
I54294
aI107
aI10184736
aa(lp4245
I54296
aI31
aI10184754
aa(lp4246
I65533
aI0
aI10184776
aa(lp4247
I54296
aI31
aI10184905
aa(lp4248
I54293
aI2
aI10185240
aa(lp4249
I54294
aI106
aI10185270
aa(lp4250
I54296
aI31
aI10185288
aa(lp4251
I65533
aI0
aI10185310
aa(lp4252
I54272
aI96
aI10185537
aa(lp4253
I54273
aI29
aI10185541
aa(lp4254
I54293
aI0
aI10185790
aa(lp4255
I54294
aI105
aI10185820
aa(lp4256
I54296
aI31
aI10185838
aa(lp4257
I65533
aI0
aI10185860
aa(lp4258
I54293
aI6
aI10186272
aa(lp4259
I54294
aI103
aI10186302
aa(lp4260
I54296
aI31
aI10186320
aa(lp4261
I65533
aI0
aI10186342
aa(lp4262
I54293
aI4
aI10186756
aa(lp4263
I54294
aI102
aI10186786
aa(lp4264
I54296
aI31
aI10186804
aa(lp4265
I65533
aI0
aI10186826
aa(lp4266
I54296
aI31
aI10186955
aa(lp4267
I54293
aI2
aI10187290
aa(lp4268
I54294
aI101
aI10187320
aa(lp4269
I54296
aI31
aI10187338
aa(lp4270
I65533
aI0
aI10187360
aa(lp4271
I54272
aI192
aI10187584
aa(lp4272
I54273
aI58
aI10187588
aa(lp4273
I54293
aI0
aI10187837
aa(lp4274
I54294
aI100
aI10187867
aa(lp4275
I54296
aI31
aI10187885
aa(lp4276
I65533
aI0
aI10187907
aa(lp4277
I54293
aI6
aI10188319
aa(lp4278
I54294
aI98
aI10188349
aa(lp4279
I54296
aI31
aI10188367
aa(lp4280
I65533
aI0
aI10188389
aa(lp4281
I54288
aI3
aI10188711
aa(lp4282
I54289
aI9
aI10188715
aa(lp4283
I54293
aI4
aI10188845
aa(lp4284
I54294
aI97
aI10188875
aa(lp4285
I54296
aI31
aI10188893
aa(lp4286
I65533
aI0
aI10188915
aa(lp4287
I54296
aI31
aI10189044
aa(lp4288
I54288
aI6
aI10189287
aa(lp4289
I54289
aI9
aI10189291
aa(lp4290
I54293
aI2
aI10189421
aa(lp4291
I54294
aI96
aI10189451
aa(lp4292
I54296
aI31
aI10189469
aa(lp4293
I65533
aI0
aI10189491
aa(lp4294
I54272
aI96
aI10189715
aa(lp4295
I54273
aI29
aI10189719
aa(lp4296
I54288
aI9
aI10189876
aa(lp4297
I54289
aI9
aI10189880
aa(lp4298
I54293
aI0
aI10190010
aa(lp4299
I54294
aI95
aI10190040
aa(lp4300
I54296
aI31
aI10190058
aa(lp4301
I65533
aI0
aI10190080
aa(lp4302
I54288
aI12
aI10190400
aa(lp4303
I54289
aI9
aI10190404
aa(lp4304
I54293
aI6
aI10190534
aa(lp4305
I54294
aI93
aI10190564
aa(lp4306
I54296
aI31
aI10190582
aa(lp4307
I65533
aI0
aI10190604
aa(lp4308
I54288
aI15
aI10190926
aa(lp4309
I54289
aI9
aI10190930
aa(lp4310
I54293
aI4
aI10191060
aa(lp4311
I54294
aI92
aI10191090
aa(lp4312
I54296
aI31
aI10191108
aa(lp4313
I65533
aI0
aI10191130
aa(lp4314
I54296
aI31
aI10191259
aa(lp4315
I54288
aI18
aI10191502
aa(lp4316
I54289
aI9
aI10191506
aa(lp4317
I54293
aI2
aI10191636
aa(lp4318
I54294
aI91
aI10191666
aa(lp4319
I54296
aI31
aI10191684
aa(lp4320
I65533
aI0
aI10191706
aa(lp4321
I54272
aI2
aI10191930
aa(lp4322
I54273
aI22
aI10191934
aa(lp4323
I54288
aI21
aI10192091
aa(lp4324
I54289
aI9
aI10192095
aa(lp4325
I54293
aI0
aI10192225
aa(lp4326
I54294
aI90
aI10192255
aa(lp4327
I54296
aI31
aI10192273
aa(lp4328
I65533
aI0
aI10192295
aa(lp4329
I54288
aI24
aI10192615
aa(lp4330
I54289
aI9
aI10192619
aa(lp4331
I54293
aI6
aI10192749
aa(lp4332
I54294
aI88
aI10192779
aa(lp4333
I54296
aI31
aI10192797
aa(lp4334
I65533
aI0
aI10192819
aa(lp4335
I54288
aI27
aI10193141
aa(lp4336
I54289
aI9
aI10193145
aa(lp4337
I54293
aI4
aI10193275
aa(lp4338
I54294
aI87
aI10193305
aa(lp4339
I54296
aI31
aI10193323
aa(lp4340
I65533
aI0
aI10193345
aa(lp4341
I54296
aI31
aI10193474
aa(lp4342
I54288
aI30
aI10193717
aa(lp4343
I54289
aI9
aI10193721
aa(lp4344
I54293
aI2
aI10193851
aa(lp4345
I54294
aI86
aI10193881
aa(lp4346
I54296
aI31
aI10193899
aa(lp4347
I65533
aI0
aI10193921
aa(lp4348
I54272
aI129
aI10194145
aa(lp4349
I54273
aI18
aI10194149
aa(lp4350
I54288
aI33
aI10194306
aa(lp4351
I54289
aI9
aI10194310
aa(lp4352
I54293
aI0
aI10194440
aa(lp4353
I54294
aI85
aI10194470
aa(lp4354
I54296
aI31
aI10194488
aa(lp4355
I65533
aI0
aI10194510
aa(lp4356
I54288
aI36
aI10194830
aa(lp4357
I54289
aI9
aI10194834
aa(lp4358
I54293
aI6
aI10194964
aa(lp4359
I54294
aI83
aI10194994
aa(lp4360
I54296
aI31
aI10195012
aa(lp4361
I65533
aI0
aI10195034
aa(lp4362
I54288
aI39
aI10195356
aa(lp4363
I54289
aI9
aI10195360
aa(lp4364
I54293
aI4
aI10195490
aa(lp4365
I54294
aI82
aI10195520
aa(lp4366
I54296
aI31
aI10195538
aa(lp4367
I65533
aI0
aI10195560
aa(lp4368
I54296
aI31
aI10195689
aa(lp4369
I54288
aI42
aI10195932
aa(lp4370
I54289
aI9
aI10195936
aa(lp4371
I54293
aI2
aI10196066
aa(lp4372
I54294
aI81
aI10196096
aa(lp4373
I54296
aI31
aI10196114
aa(lp4374
I65533
aI0
aI10196136
aa(lp4375
I54272
aI176
aI10196360
aa(lp4376
I54273
aI14
aI10196364
aa(lp4377
I54288
aI45
aI10196521
aa(lp4378
I54289
aI9
aI10196525
aa(lp4379
I54293
aI0
aI10196655
aa(lp4380
I54294
aI80
aI10196685
aa(lp4381
I54296
aI31
aI10196703
aa(lp4382
I65533
aI0
aI10196725
aa(lp4383
I54288
aI48
aI10197045
aa(lp4384
I54289
aI9
aI10197049
aa(lp4385
I54293
aI6
aI10197179
aa(lp4386
I54294
aI78
aI10197209
aa(lp4387
I54296
aI31
aI10197227
aa(lp4388
I65533
aI0
aI10197249
aa(lp4389
I54288
aI51
aI10197571
aa(lp4390
I54289
aI9
aI10197575
aa(lp4391
I54293
aI4
aI10197705
aa(lp4392
I54294
aI77
aI10197735
aa(lp4393
I54296
aI31
aI10197753
aa(lp4394
I65533
aI0
aI10197775
aa(lp4395
I54296
aI31
aI10197904
aa(lp4396
I54288
aI54
aI10198147
aa(lp4397
I54289
aI9
aI10198151
aa(lp4398
I54293
aI2
aI10198281
aa(lp4399
I54294
aI76
aI10198311
aa(lp4400
I54296
aI31
aI10198329
aa(lp4401
I65533
aI0
aI10198351
aa(lp4402
I54272
aI96
aI10198578
aa(lp4403
I54273
aI29
aI10198582
aa(lp4404
I54288
aI57
aI10198739
aa(lp4405
I54289
aI9
aI10198743
aa(lp4406
I54293
aI0
aI10198873
aa(lp4407
I54294
aI75
aI10198903
aa(lp4408
I54296
aI31
aI10198921
aa(lp4409
I65533
aI0
aI10198943
aa(lp4410
I54288
aI60
aI10199263
aa(lp4411
I54289
aI9
aI10199267
aa(lp4412
I54293
aI6
aI10199397
aa(lp4413
I54294
aI73
aI10199427
aa(lp4414
I54296
aI31
aI10199445
aa(lp4415
I65533
aI0
aI10199467
aa(lp4416
I54288
aI63
aI10199789
aa(lp4417
I54289
aI9
aI10199793
aa(lp4418
I54293
aI4
aI10199923
aa(lp4419
I54294
aI72
aI10199953
aa(lp4420
I54296
aI31
aI10199971
aa(lp4421
I65533
aI0
aI10199993
aa(lp4422
I54296
aI31
aI10200122
aa(lp4423
I54288
aI66
aI10200365
aa(lp4424
I54289
aI9
aI10200369
aa(lp4425
I54293
aI2
aI10200499
aa(lp4426
I54294
aI71
aI10200529
aa(lp4427
I54296
aI31
aI10200547
aa(lp4428
I65533
aI0
aI10200569
aa(lp4429
I54272
aI192
aI10200793
aa(lp4430
I54273
aI58
aI10200797
aa(lp4431
I54288
aI69
aI10200954
aa(lp4432
I54289
aI9
aI10200958
aa(lp4433
I54293
aI0
aI10201088
aa(lp4434
I54294
aI70
aI10201118
aa(lp4435
I54296
aI31
aI10201136
aa(lp4436
I65533
aI0
aI10201158
aa(lp4437
I54288
aI72
aI10201478
aa(lp4438
I54289
aI9
aI10201482
aa(lp4439
I54293
aI6
aI10201612
aa(lp4440
I54294
aI68
aI10201642
aa(lp4441
I54296
aI31
aI10201660
aa(lp4442
I65533
aI0
aI10201682
aa(lp4443
I54288
aI75
aI10202004
aa(lp4444
I54289
aI9
aI10202008
aa(lp4445
I54293
aI4
aI10202138
aa(lp4446
I54294
aI67
aI10202168
aa(lp4447
I54296
aI31
aI10202186
aa(lp4448
I65533
aI0
aI10202208
aa(lp4449
I54296
aI31
aI10202337
aa(lp4450
I54283
aI8
aI10202720
aa(lp4451
I54279
aI239
aI10202740
aa(lp4452
I54280
aI34
aI10202744
aa(lp4453
I54281
aI0
aI10202756
aa(lp4454
I54282
aI0
aI10202760
aa(lp4455
I54284
aI0
aI10202768
aa(lp4456
I54285
aI242
aI10202776
aa(lp4457
I54283
aI17
aI10202790
aa(lp4458
I54288
aI78
aI10203153
aa(lp4459
I54289
aI9
aI10203157
aa(lp4460
I54293
aI2
aI10203287
aa(lp4461
I54294
aI66
aI10203317
aa(lp4462
I54296
aI31
aI10203335
aa(lp4463
I65533
aI0
aI10203357
aa(lp4464
I54272
aI96
aI10203581
aa(lp4465
I54273
aI29
aI10203585
aa(lp4466
I54279
aI159
aI10203722
aa(lp4467
I54280
aI39
aI10203726
aa(lp4468
I54288
aI81
aI10203846
aa(lp4469
I54289
aI9
aI10203850
aa(lp4470
I54293
aI0
aI10203980
aa(lp4471
I54294
aI65
aI10204010
aa(lp4472
I54296
aI31
aI10204028
aa(lp4473
I65533
aI0
aI10204050
aa(lp4474
I54279
aI79
aI10204350
aa(lp4475
I54280
aI44
aI10204354
aa(lp4476
I54288
aI84
aI10204474
aa(lp4477
I54289
aI9
aI10204478
aa(lp4478
I54293
aI6
aI10204608
aa(lp4479
I54294
aI63
aI10204638
aa(lp4480
I54296
aI31
aI10204656
aa(lp4481
I65533
aI0
aI10204678
aa(lp4482
I54279
aI255
aI10204980
aa(lp4483
I54280
aI48
aI10204984
aa(lp4484
I54288
aI87
aI10205104
aa(lp4485
I54289
aI9
aI10205108
aa(lp4486
I54293
aI4
aI10205238
aa(lp4487
I54294
aI62
aI10205268
aa(lp4488
I54296
aI31
aI10205286
aa(lp4489
I65533
aI0
aI10205308
aa(lp4490
I54296
aI31
aI10205437
aa(lp4491
I54279
aI175
aI10205660
aa(lp4492
I54280
aI53
aI10205664
aa(lp4493
I54288
aI90
aI10205784
aa(lp4494
I54289
aI9
aI10205788
aa(lp4495
I54293
aI2
aI10205918
aa(lp4496
I54294
aI61
aI10205948
aa(lp4497
I54296
aI31
aI10205966
aa(lp4498
I65533
aI0
aI10205988
aa(lp4499
I54272
aI2
aI10206212
aa(lp4500
I54273
aI22
aI10206216
aa(lp4501
I54283
aI16
aI10206297
aa(lp4502
I54279
aI95
aI10206362
aa(lp4503
I54280
aI58
aI10206366
aa(lp4504
I54288
aI93
aI10206486
aa(lp4505
I54289
aI9
aI10206490
aa(lp4506
I54286
aI146
aI10206544
aa(lp4507
I54287
aI6
aI10206548
aa(lp4508
I54293
aI0
aI10206650
aa(lp4509
I54294
aI60
aI10206680
aa(lp4510
I54296
aI31
aI10206698
aa(lp4511
I65533
aI0
aI10206720
aa(lp4512
I54279
aI15
aI10207019
aa(lp4513
I54280
aI63
aI10207023
aa(lp4514
I54288
aI96
aI10207143
aa(lp4515
I54289
aI9
aI10207147
aa(lp4516
I54286
aI153
aI10207201
aa(lp4517
I54287
aI6
aI10207205
aa(lp4518
I54293
aI6
aI10207307
aa(lp4519
I54294
aI58
aI10207337
aa(lp4520
I54296
aI31
aI10207355
aa(lp4521
I65533
aI0
aI10207377
aa(lp4522
I54279
aI191
aI10207678
aa(lp4523
I54280
aI67
aI10207682
aa(lp4524
I54288
aI99
aI10207802
aa(lp4525
I54289
aI9
aI10207806
aa(lp4526
I54286
aI160
aI10207860
aa(lp4527
I54287
aI6
aI10207864
aa(lp4528
I54293
aI4
aI10207966
aa(lp4529
I54294
aI57
aI10207996
aa(lp4530
I54296
aI31
aI10208014
aa(lp4531
I65533
aI0
aI10208036
aa(lp4532
I54296
aI31
aI10208165
aa(lp4533
I54279
aI111
aI10208387
aa(lp4534
I54280
aI72
aI10208391
aa(lp4535
I54288
aI102
aI10208511
aa(lp4536
I54289
aI9
aI10208515
aa(lp4537
I54286
aI167
aI10208569
aa(lp4538
I54287
aI6
aI10208573
aa(lp4539
I54293
aI2
aI10208675
aa(lp4540
I54294
aI56
aI10208705
aa(lp4541
I54296
aI31
aI10208723
aa(lp4542
I65533
aI0
aI10208745
aa(lp4543
I54272
aI129
aI10208969
aa(lp4544
I54273
aI18
aI10208973
aa(lp4545
I54279
aI31
aI10209109
aa(lp4546
I54280
aI77
aI10209113
aa(lp4547
I54288
aI105
aI10209233
aa(lp4548
I54289
aI9
aI10209237
aa(lp4549
I54286
aI174
aI10209291
aa(lp4550
I54287
aI6
aI10209295
aa(lp4551
I54293
aI0
aI10209397
aa(lp4552
I54294
aI55
aI10209427
aa(lp4553
I54296
aI31
aI10209445
aa(lp4554
I65533
aI0
aI10209467
aa(lp4555
I54279
aI207
aI10209766
aa(lp4556
I54280
aI81
aI10209770
aa(lp4557
I54288
aI108
aI10209890
aa(lp4558
I54289
aI9
aI10209894
aa(lp4559
I54286
aI181
aI10209948
aa(lp4560
I54287
aI6
aI10209952
aa(lp4561
I54293
aI6
aI10210054
aa(lp4562
I54294
aI53
aI10210084
aa(lp4563
I54296
aI31
aI10210102
aa(lp4564
I65533
aI0
aI10210124
aa(lp4565
I54285
aI0
aI10210365
aa(lp4566
I54284
aI0
aI10210375
aa(lp4567
I54283
aI0
aI10210385
aa(lp4568
I54282
aI0
aI10210395
aa(lp4569
I54281
aI0
aI10210405
aa(lp4570
I54280
aI0
aI10210415
aa(lp4571
I54279
aI0
aI10210425
aa(lp4572
I54288
aI111
aI10210544
aa(lp4573
I54289
aI9
aI10210548
aa(lp4574
I54286
aI188
aI10210602
aa(lp4575
I54287
aI6
aI10210606
aa(lp4576
I54293
aI4
aI10210708
aa(lp4577
I54294
aI52
aI10210738
aa(lp4578
I54296
aI31
aI10210756
aa(lp4579
I65533
aI0
aI10210778
aa(lp4580
I54296
aI31
aI10210907
aa(lp4581
I54288
aI114
aI10211150
aa(lp4582
I54289
aI9
aI10211154
aa(lp4583
I54286
aI195
aI10211208
aa(lp4584
I54287
aI6
aI10211212
aa(lp4585
I54293
aI2
aI10211314
aa(lp4586
I54294
aI51
aI10211344
aa(lp4587
I54296
aI31
aI10211362
aa(lp4588
I65533
aI0
aI10211384
aa(lp4589
I54272
aI176
aI10211608
aa(lp4590
I54273
aI14
aI10211612
aa(lp4591
I54288
aI117
aI10211769
aa(lp4592
I54289
aI9
aI10211773
aa(lp4593
I54286
aI202
aI10211827
aa(lp4594
I54287
aI6
aI10211831
aa(lp4595
I54293
aI0
aI10211933
aa(lp4596
I54294
aI50
aI10211963
aa(lp4597
I54296
aI31
aI10211981
aa(lp4598
I65533
aI0
aI10212003
aa(lp4599
I54288
aI120
aI10212323
aa(lp4600
I54289
aI9
aI10212327
aa(lp4601
I54286
aI209
aI10212381
aa(lp4602
I54287
aI6
aI10212385
aa(lp4603
I54293
aI2
aI10212487
aa(lp4604
I54294
aI51
aI10212517
aa(lp4605
I54296
aI31
aI10212535
aa(lp4606
I65533
aI0
aI10212557
aa(lp4607
I54288
aI123
aI10212879
aa(lp4608
I54289
aI9
aI10212883
aa(lp4609
I54286
aI202
aI10212943
aa(lp4610
I54287
aI6
aI10212947
aa(lp4611
I54293
aI4
aI10213049
aa(lp4612
I54294
aI52
aI10213079
aa(lp4613
I54296
aI31
aI10213097
aa(lp4614
I65533
aI0
aI10213119
aa(lp4615
I54296
aI31
aI10213248
aa(lp4616
I54288
aI126
aI10213491
aa(lp4617
I54289
aI9
aI10213495
aa(lp4618
I54286
aI195
aI10213555
aa(lp4619
I54287
aI6
aI10213559
aa(lp4620
I54293
aI6
aI10213661
aa(lp4621
I54294
aI53
aI10213691
aa(lp4622
I54296
aI31
aI10213709
aa(lp4623
I65533
aI0
aI10213731
aa(lp4624
I54272
aI96
aI10213958
aa(lp4625
I54273
aI29
aI10213962
aa(lp4626
I54288
aI129
aI10214119
aa(lp4627
I54289
aI9
aI10214123
aa(lp4628
I54286
aI188
aI10214183
aa(lp4629
I54287
aI6
aI10214187
aa(lp4630
I54293
aI0
aI10214289
aa(lp4631
I54294
aI55
aI10214319
aa(lp4632
I54296
aI31
aI10214337
aa(lp4633
I65533
aI0
aI10214359
aa(lp4634
I54283
aI8
aI10214625
aa(lp4635
I54279
aI239
aI10214645
aa(lp4636
I54280
aI34
aI10214649
aa(lp4637
I54281
aI0
aI10214661
aa(lp4638
I54282
aI0
aI10214665
aa(lp4639
I54284
aI0
aI10214673
aa(lp4640
I54285
aI242
aI10214681
aa(lp4641
I54283
aI17
aI10214695
aa(lp4642
I54288
aI132
aI10215058
aa(lp4643
I54289
aI9
aI10215062
aa(lp4644
I54286
aI181
aI10215122
aa(lp4645
I54287
aI6
aI10215126
aa(lp4646
I54293
aI2
aI10215228
aa(lp4647
I54294
aI56
aI10215258
aa(lp4648
I54296
aI31
aI10215276
aa(lp4649
I65533
aI0
aI10215298
aa(lp4650
I54279
aI159
aI10215600
aa(lp4651
I54280
aI39
aI10215604
aa(lp4652
I54288
aI135
aI10215724
aa(lp4653
I54289
aI9
aI10215728
aa(lp4654
I54286
aI174
aI10215788
aa(lp4655
I54287
aI6
aI10215792
aa(lp4656
I54293
aI4
aI10215894
aa(lp4657
I54294
aI57
aI10215924
aa(lp4658
I54296
aI31
aI10215942
aa(lp4659
I65533
aI0
aI10215964
aa(lp4660
I54296
aI31
aI10216093
aa(lp4661
I54279
aI79
aI10216316
aa(lp4662
I54280
aI44
aI10216320
aa(lp4663
I54288
aI138
aI10216440
aa(lp4664
I54289
aI9
aI10216444
aa(lp4665
I54286
aI167
aI10216504
aa(lp4666
I54287
aI6
aI10216508
aa(lp4667
I54293
aI6
aI10216610
aa(lp4668
I54294
aI58
aI10216640
aa(lp4669
I54296
aI31
aI10216658
aa(lp4670
I65533
aI0
aI10216680
aa(lp4671
I54272
aI192
aI10216904
aa(lp4672
I54273
aI58
aI10216908
aa(lp4673
I54279
aI255
aI10217045
aa(lp4674
I54280
aI48
aI10217049
aa(lp4675
I54288
aI141
aI10217169
aa(lp4676
I54289
aI9
aI10217173
aa(lp4677
I54286
aI160
aI10217233
aa(lp4678
I54287
aI6
aI10217237
aa(lp4679
I54293
aI0
aI10217339
aa(lp4680
I54294
aI60
aI10217369
aa(lp4681
I54296
aI31
aI10217387
aa(lp4682
I65533
aI0
aI10217409
aa(lp4683
I54279
aI175
aI10217709
aa(lp4684
I54280
aI53
aI10217713
aa(lp4685
I54288
aI144
aI10217833
aa(lp4686
I54289
aI9
aI10217837
aa(lp4687
I54286
aI153
aI10217897
aa(lp4688
I54287
aI6
aI10217901
aa(lp4689
I54293
aI6
aI10218009
aa(lp4690
I54294
aI58
aI10218039
aa(lp4691
I54296
aI31
aI10218057
aa(lp4692
I65533
aI0
aI10218079
aa(lp4693
I54283
aI16
aI10218325
aa(lp4694
I54279
aI95
aI10218390
aa(lp4695
I54280
aI58
aI10218394
aa(lp4696
I54288
aI147
aI10218514
aa(lp4697
I54289
aI9
aI10218518
aa(lp4698
I54286
aI146
aI10218578
aa(lp4699
I54287
aI6
aI10218582
aa(lp4700
I54293
aI4
aI10218690
aa(lp4701
I54294
aI57
aI10218720
aa(lp4702
I54296
aI31
aI10218738
aa(lp4703
I65533
aI0
aI10218760
aa(lp4704
I54296
aI31
aI10218889
aa(lp4705
I54279
aI15
aI10219111
aa(lp4706
I54280
aI63
aI10219115
aa(lp4707
I54288
aI150
aI10219235
aa(lp4708
I54289
aI9
aI10219239
aa(lp4709
I54286
aI139
aI10219299
aa(lp4710
I54287
aI6
aI10219303
aa(lp4711
I54293
aI2
aI10219411
aa(lp4712
I54294
aI56
aI10219441
aa(lp4713
I54296
aI31
aI10219459
aa(lp4714
I65533
aI0
aI10219481
aa(lp4715
I54272
aI96
aI10219705
aa(lp4716
I54273
aI29
aI10219709
aa(lp4717
I54279
aI191
aI10219845
aa(lp4718
I54280
aI67
aI10219849
aa(lp4719
I54288
aI153
aI10219969
aa(lp4720
I54289
aI9
aI10219973
aa(lp4721
I54286
aI132
aI10220033
aa(lp4722
I54287
aI6
aI10220037
aa(lp4723
I54293
aI0
aI10220145
aa(lp4724
I54294
aI55
aI10220175
aa(lp4725
I54296
aI31
aI10220193
aa(lp4726
I65533
aI0
aI10220215
aa(lp4727
I54279
aI111
aI10220514
aa(lp4728
I54280
aI72
aI10220518
aa(lp4729
I54288
aI156
aI10220638
aa(lp4730
I54289
aI9
aI10220642
aa(lp4731
I54286
aI125
aI10220702
aa(lp4732
I54287
aI6
aI10220706
aa(lp4733
I54293
aI6
aI10220814
aa(lp4734
I54294
aI53
aI10220844
aa(lp4735
I54296
aI31
aI10220862
aa(lp4736
I65533
aI0
aI10220884
aa(lp4737
I54279
aI31
aI10221185
aa(lp4738
I54280
aI77
aI10221189
aa(lp4739
I54288
aI159
aI10221309
aa(lp4740
I54289
aI9
aI10221313
aa(lp4741
I54286
aI118
aI10221373
aa(lp4742
I54287
aI6
aI10221377
aa(lp4743
I54293
aI4
aI10221485
aa(lp4744
I54294
aI52
aI10221515
aa(lp4745
I54296
aI31
aI10221533
aa(lp4746
I65533
aI0
aI10221555
aa(lp4747
I54296
aI31
aI10221684
aa(lp4748
I54279
aI207
aI10221906
aa(lp4749
I54280
aI81
aI10221910
aa(lp4750
I54288
aI162
aI10222030
aa(lp4751
I54289
aI9
aI10222034
aa(lp4752
I54286
aI111
aI10222094
aa(lp4753
I54287
aI6
aI10222098
aa(lp4754
I54293
aI2
aI10222206
aa(lp4755
I54294
aI51
aI10222236
aa(lp4756
I54296
aI31
aI10222254
aa(lp4757
I65533
aI0
aI10222276
aa(lp4758
I54272
aI2
aI10222500
aa(lp4759
I54273
aI22
aI10222504
aa(lp4760
I54285
aI0
aI10222580
aa(lp4761
I54284
aI0
aI10222590
aa(lp4762
I54283
aI0
aI10222600
aa(lp4763
I54282
aI0
aI10222610
aa(lp4764
I54281
aI0
aI10222620
aa(lp4765
I54280
aI0
aI10222630
aa(lp4766
I54279
aI0
aI10222640
aa(lp4767
I54288
aI165
aI10222759
aa(lp4768
I54289
aI9
aI10222763
aa(lp4769
I54286
aI104
aI10222823
aa(lp4770
I54287
aI6
aI10222827
aa(lp4771
I54293
aI0
aI10222935
aa(lp4772
I54294
aI50
aI10222965
aa(lp4773
I54296
aI31
aI10222983
aa(lp4774
I65533
aI0
aI10223005
aa(lp4775
I54288
aI168
aI10223325
aa(lp4776
I54289
aI9
aI10223329
aa(lp4777
I54286
aI97
aI10223389
aa(lp4778
I54287
aI6
aI10223393
aa(lp4779
I54293
aI6
aI10223501
aa(lp4780
I54294
aI48
aI10223531
aa(lp4781
I54296
aI31
aI10223549
aa(lp4782
I65533
aI0
aI10223571
aa(lp4783
I54288
aI171
aI10223893
aa(lp4784
I54289
aI9
aI10223897
aa(lp4785
I54286
aI90
aI10223957
aa(lp4786
I54287
aI6
aI10223961
aa(lp4787
I54293
aI4
aI10224069
aa(lp4788
I54294
aI47
aI10224099
aa(lp4789
I54296
aI31
aI10224117
aa(lp4790
I65533
aI0
aI10224139
aa(lp4791
I54296
aI31
aI10224268
aa(lp4792
I54288
aI174
aI10224511
aa(lp4793
I54289
aI9
aI10224515
aa(lp4794
I54286
aI83
aI10224575
aa(lp4795
I54287
aI6
aI10224579
aa(lp4796
I54293
aI2
aI10224687
aa(lp4797
I54294
aI46
aI10224717
aa(lp4798
I54296
aI31
aI10224735
aa(lp4799
I65533
aI0
aI10224757
aa(lp4800
I54272
aI129
aI10224981
aa(lp4801
I54273
aI18
aI10224985
aa(lp4802
I54288
aI177
aI10225142
aa(lp4803
I54289
aI9
aI10225146
aa(lp4804
I54286
aI76
aI10225206
aa(lp4805
I54287
aI6
aI10225210
aa(lp4806
I54293
aI0
aI10225318
aa(lp4807
I54294
aI45
aI10225348
aa(lp4808
I54296
aI31
aI10225366
aa(lp4809
I65533
aI0
aI10225388
aa(lp4810
I54288
aI180
aI10225708
aa(lp4811
I54289
aI9
aI10225712
aa(lp4812
I54286
aI69
aI10225772
aa(lp4813
I54287
aI6
aI10225776
aa(lp4814
I54293
aI6
aI10225884
aa(lp4815
I54294
aI43
aI10225914
aa(lp4816
I54296
aI31
aI10225932
aa(lp4817
I65533
aI0
aI10225954
aa(lp4818
I54288
aI183
aI10226276
aa(lp4819
I54289
aI9
aI10226280
aa(lp4820
I54286
aI76
aI10226346
aa(lp4821
I54287
aI6
aI10226350
aa(lp4822
I54293
aI4
aI10226458
aa(lp4823
I54294
aI42
aI10226488
aa(lp4824
I54296
aI31
aI10226506
aa.I4824
.I0
.F69.32
.(lp0
I1
aI1
aI0
a.I9
.F1.0
.