(lp0
(lp1
I65533
aI0
aI9959564
aa(lp2
I54296
aI31
aI9959693
aa(lp3
I54283
aI8
aI9959882
aa(lp4
I54279
aI239
aI9959902
aa(lp5
I54280
aI34
aI9959906
aa(lp6
I54281
aI0
aI9959918
aa(lp7
I54282
aI0
aI9959922
aa(lp8
I54284
aI0
aI9959930
aa(lp9
I54285
aI242
aI9959938
aa(lp10
I54283
aI17
aI9959952
aa(lp11
I54288
aI186
aI9960315
aa(lp12
I54289
aI9
aI9960319
aa(lp13
I54286
aI201
aI9960385
aa(lp14
I54287
aI10
aI9960389
aa(lp15
I54293
aI2
aI9960497
aa(lp16
I54294
aI41
aI9960527
aa(lp17
I54296
aI31
aI9960545
aa(lp18
I65533
aI0
aI9960567
aa(lp19
I54272
aI96
aI9960791
aa(lp20
I54273
aI29
aI9960795
aa(lp21
I54279
aI159
aI9960932
aa(lp22
I54280
aI39
aI9960936
aa(lp23
I54288
aI189
aI9961056
aa(lp24
I54289
aI9
aI9961060
aa(lp25
I54286
aI208
aI9961126
aa(lp26
I54287
aI10
aI9961130
aa(lp27
I54293
aI0
aI9961238
aa(lp28
I54294
aI40
aI9961268
aa(lp29
I54296
aI31
aI9961286
aa(lp30
I65533
aI0
aI9961308
aa(lp31
I54279
aI79
aI9961608
aa(lp32
I54280
aI44
aI9961612
aa(lp33
I54288
aI192
aI9961732
aa(lp34
I54289
aI9
aI9961736
aa(lp35
I54286
aI215
aI9961802
aa(lp36
I54287
aI10
aI9961806
aa(lp37
I54293
aI2
aI9961920
aa(lp38
I54294
aI41
aI9961950
aa(lp39
I54296
aI31
aI9961968
aa(lp40
I65533
aI0
aI9961990
aa(lp41
I54279
aI255
aI9962292
aa(lp42
I54280
aI48
aI9962296
aa(lp43
I54288
aI195
aI9962416
aa(lp44
I54289
aI9
aI9962420
aa(lp45
I54286
aI222
aI9962486
aa(lp46
I54287
aI10
aI9962490
aa(lp47
I54293
aI4
aI9962604
aa(lp48
I54294
aI42
aI9962634
aa(lp49
I54296
aI31
aI9962652
aa(lp50
I65533
aI0
aI9962674
aa(lp51
I54296
aI31
aI9962803
aa(lp52
I54279
aI175
aI9963026
aa(lp53
I54280
aI53
aI9963030
aa(lp54
I54288
aI198
aI9963150
aa(lp55
I54289
aI9
aI9963154
aa(lp56
I54286
aI229
aI9963220
aa(lp57
I54287
aI10
aI9963224
aa(lp58
I54293
aI6
aI9963338
aa(lp59
I54294
aI43
aI9963368
aa(lp60
I54296
aI31
aI9963386
aa(lp61
I65533
aI0
aI9963408
aa(lp62
I54272
aI2
aI9963632
aa(lp63
I54273
aI22
aI9963636
aa(lp64
I54283
aI16
aI9963717
aa(lp65
I54279
aI95
aI9963782
aa(lp66
I54280
aI58
aI9963786
aa(lp67
I54288
aI201
aI9963906
aa(lp68
I54289
aI9
aI9963910
aa(lp69
I54286
aI236
aI9963976
aa(lp70
I54287
aI10
aI9963980
aa(lp71
I54293
aI0
aI9964094
aa(lp72
I54294
aI45
aI9964124
aa(lp73
I54296
aI31
aI9964142
aa(lp74
I65533
aI0
aI9964164
aa(lp75
I54279
aI15
aI9964463
aa(lp76
I54280
aI63
aI9964467
aa(lp77
I54288
aI204
aI9964587
aa(lp78
I54289
aI9
aI9964591
aa(lp79
I54286
aI243
aI9964657
aa(lp80
I54287
aI10
aI9964661
aa(lp81
I54293
aI2
aI9964775
aa(lp82
I54294
aI46
aI9964805
aa(lp83
I54296
aI31
aI9964823
aa(lp84
I65533
aI0
aI9964845
aa(lp85
I54279
aI191
aI9965146
aa(lp86
I54280
aI67
aI9965150
aa(lp87
I54288
aI207
aI9965270
aa(lp88
I54289
aI9
aI9965274
aa(lp89
I54286
aI250
aI9965340
aa(lp90
I54287
aI10
aI9965344
aa(lp91
I54293
aI4
aI9965458
aa(lp92
I54294
aI47
aI9965488
aa(lp93
I54296
aI31
aI9965506
aa(lp94
I65533
aI0
aI9965528
aa(lp95
I54296
aI31
aI9965657
aa(lp96
I54279
aI111
aI9965879
aa(lp97
I54280
aI72
aI9965883
aa(lp98
I54288
aI210
aI9966003
aa(lp99
I54289
aI9
aI9966007
aa(lp100
I54286
aI1
aI9966073
aa(lp101
I54287
aI11
aI9966077
aa(lp102
I54293
aI6
aI9966191
aa(lp103
I54294
aI48
aI9966221
aa(lp104
I54296
aI31
aI9966239
aa(lp105
I65533
aI0
aI9966261
aa(lp106
I54272
aI129
aI9966485
aa(lp107
I54273
aI18
aI9966489
aa(lp108
I54279
aI31
aI9966625
aa(lp109
I54280
aI77
aI9966629
aa(lp110
I54288
aI213
aI9966749
aa(lp111
I54289
aI9
aI9966753
aa(lp112
I54286
aI8
aI9966882
aa(lp113
I54287
aI11
aI9966886
aa(lp114
I54293
aI0
aI9967000
aa(lp115
I54294
aI50
aI9967030
aa(lp116
I54296
aI31
aI9967048
aa(lp117
I65533
aI0
aI9967070
aa(lp118
I54279
aI207
aI9967369
aa(lp119
I54280
aI81
aI9967373
aa(lp120
I54288
aI216
aI9967493
aa(lp121
I54289
aI9
aI9967497
aa(lp122
I54286
aI15
aI9967551
aa(lp123
I54287
aI11
aI9967555
aa(lp124
I54293
aI2
aI9967732
aa(lp125
I54294
aI51
aI9967762
aa(lp126
I54296
aI31
aI9967780
aa(lp127
I65533
aI0
aI9967802
aa(lp128
I54285
aI0
aI9968043
aa(lp129
I54284
aI0
aI9968053
aa(lp130
I54283
aI0
aI9968063
aa(lp131
I54282
aI0
aI9968073
aa(lp132
I54281
aI0
aI9968083
aa(lp133
I54280
aI0
aI9968093
aa(lp134
I54279
aI0
aI9968103
aa(lp135
I54288
aI219
aI9968222
aa(lp136
I54289
aI9
aI9968226
aa(lp137
I54286
aI22
aI9968280
aa(lp138
I54287
aI11
aI9968284
aa(lp139
I54293
aI4
aI9968386
aa(lp140
I54294
aI52
aI9968416
aa(lp141
I54296
aI31
aI9968434
aa(lp142
I65533
aI0
aI9968456
aa(lp143
I54296
aI31
aI9968585
aa(lp144
I54288
aI222
aI9968828
aa(lp145
I54289
aI9
aI9968832
aa(lp146
I54286
aI29
aI9968886
aa(lp147
I54287
aI11
aI9968890
aa(lp148
I54293
aI6
aI9968992
aa(lp149
I54294
aI53
aI9969022
aa(lp150
I54296
aI31
aI9969040
aa(lp151
I65533
aI0
aI9969062
aa(lp152
I54272
aI176
aI9969286
aa(lp153
I54273
aI14
aI9969290
aa(lp154
I54288
aI225
aI9969447
aa(lp155
I54289
aI9
aI9969451
aa(lp156
I54286
aI36
aI9969505
aa(lp157
I54287
aI11
aI9969509
aa(lp158
I54293
aI0
aI9969611
aa(lp159
I54294
aI55
aI9969641
aa(lp160
I54296
aI31
aI9969659
aa(lp161
I65533
aI0
aI9969681
aa(lp162
I54288
aI228
aI9970001
aa(lp163
I54289
aI9
aI9970005
aa(lp164
I54286
aI43
aI9970059
aa(lp165
I54287
aI11
aI9970063
aa(lp166
I54293
aI2
aI9970165
aa(lp167
I54294
aI56
aI9970195
aa(lp168
I54296
aI31
aI9970213
aa(lp169
I65533
aI0
aI9970235
aa(lp170
I54288
aI231
aI9970557
aa(lp171
I54289
aI9
aI9970561
aa(lp172
I54286
aI50
aI9970615
aa(lp173
I54287
aI11
aI9970619
aa(lp174
I54293
aI4
aI9970721
aa(lp175
I54294
aI57
aI9970751
aa(lp176
I54296
aI31
aI9970769
aa(lp177
I65533
aI0
aI9970791
aa(lp178
I54296
aI31
aI9970920
aa(lp179
I54288
aI234
aI9971163
aa(lp180
I54289
aI9
aI9971167
aa(lp181
I54286
aI57
aI9971221
aa(lp182
I54287
aI11
aI9971225
aa(lp183
I54293
aI6
aI9971327
aa(lp184
I54294
aI58
aI9971357
aa(lp185
I54296
aI31
aI9971375
aa(lp186
I65533
aI0
aI9971397
aa(lp187
I54272
aI96
aI9971624
aa(lp188
I54273
aI29
aI9971628
aa(lp189
I54288
aI237
aI9971785
aa(lp190
I54289
aI9
aI9971789
aa(lp191
I54286
aI64
aI9971843
aa(lp192
I54287
aI11
aI9971847
aa(lp193
I54293
aI0
aI9971949
aa(lp194
I54294
aI60
aI9971979
aa(lp195
I54296
aI31
aI9971997
aa(lp196
I65533
aI0
aI9972019
aa(lp197
I54288
aI240
aI9972339
aa(lp198
I54289
aI9
aI9972343
aa(lp199
I54286
aI71
aI9972397
aa(lp200
I54287
aI11
aI9972401
aa(lp201
I54293
aI6
aI9972509
aa(lp202
I54294
aI58
aI9972539
aa(lp203
I54296
aI31
aI9972557
aa(lp204
I65533
aI0
aI9972579
aa(lp205
I54288
aI243
aI9972901
aa(lp206
I54289
aI9
aI9972905
aa(lp207
I54286
aI64
aI9972965
aa(lp208
I54287
aI11
aI9972969
aa(lp209
I54293
aI4
aI9973077
aa(lp210
I54294
aI57
aI9973107
aa(lp211
I54296
aI31
aI9973125
aa(lp212
I65533
aI0
aI9973147
aa(lp213
I54296
aI31
aI9973276
aa(lp214
I54288
aI246
aI9973519
aa(lp215
I54289
aI9
aI9973523
aa(lp216
I54286
aI57
aI9973583
aa(lp217
I54287
aI11
aI9973587
aa(lp218
I54293
aI2
aI9973695
aa(lp219
I54294
aI56
aI9973725
aa(lp220
I54296
aI31
aI9973743
aa(lp221
I65533
aI0
aI9973765
aa(lp222
I54272
aI192
aI9973989
aa(lp223
I54273
aI58
aI9973993
aa(lp224
I54288
aI249
aI9974150
aa(lp225
I54289
aI9
aI9974154
aa(lp226
I54286
aI50
aI9974214
aa(lp227
I54287
aI11
aI9974218
aa(lp228
I54293
aI0
aI9974326
aa(lp229
I54294
aI55
aI9974356
aa(lp230
I54296
aI31
aI9974374
aa(lp231
I65533
aI0
aI9974396
aa(lp232
I54288
aI252
aI9974716
aa(lp233
I54289
aI9
aI9974720
aa(lp234
I54286
aI43
aI9974780
aa(lp235
I54287
aI11
aI9974784
aa(lp236
I54293
aI6
aI9974892
aa(lp237
I54294
aI53
aI9974922
aa(lp238
I54296
aI31
aI9974940
aa(lp239
I65533
aI0
aI9974962
aa(lp240
I54290
aI64
aI9975247
aa(lp241
I54288
aI255
aI9975303
aa(lp242
I54289
aI9
aI9975307
aa(lp243
I54286
aI36
aI9975367
aa(lp244
I54287
aI11
aI9975371
aa(lp245
I54293
aI4
aI9975479
aa(lp246
I54294
aI52
aI9975509
aa(lp247
I54296
aI31
aI9975527
aa(lp248
I65533
aI0
aI9975549
aa(lp249
I54296
aI31
aI9975678
aa(lp250
I54288
aI2
aI9975932
aa(lp251
I54289
aI10
aI9975936
aa(lp252
I54286
aI29
aI9975996
aa(lp253
I54287
aI11
aI9976000
aa(lp254
I54293
aI2
aI9976108
aa(lp255
I54294
aI51
aI9976138
aa(lp256
I54296
aI31
aI9976156
aa(lp257
I65533
aI0
aI9976178
aa(lp258
I54272
aI96
aI9976402
aa(lp259
I54273
aI29
aI9976406
aa(lp260
I54288
aI5
aI9976574
aa(lp261
I54289
aI10
aI9976578
aa(lp262
I54286
aI22
aI9976638
aa(lp263
I54287
aI11
aI9976642
aa(lp264
I54293
aI0
aI9976750
aa(lp265
I54294
aI50
aI9976780
aa(lp266
I54296
aI31
aI9976798
aa(lp267
I65533
aI0
aI9976820
aa(lp268
I54288
aI8
aI9977151
aa(lp269
I54289
aI10
aI9977155
aa(lp270
I54286
aI15
aI9977215
aa(lp271
I54287
aI11
aI9977219
aa(lp272
I54293
aI6
aI9977327
aa(lp273
I54294
aI48
aI9977357
aa(lp274
I54296
aI31
aI9977375
aa(lp275
I65533
aI0
aI9977397
aa(lp276
I54288
aI11
aI9977730
aa(lp277
I54289
aI10
aI9977734
aa(lp278
I54286
aI8
aI9977794
aa(lp279
I54287
aI11
aI9977798
aa(lp280
I54293
aI4
aI9977906
aa(lp281
I54294
aI47
aI9977936
aa(lp282
I54296
aI31
aI9977954
aa(lp283
I65533
aI0
aI9977976
aa(lp284
I54296
aI31
aI9978105
aa(lp285
I54288
aI14
aI9978359
aa(lp286
I54289
aI10
aI9978363
aa(lp287
I54286
aI1
aI9978423
aa(lp288
I54287
aI11
aI9978427
aa(lp289
I54293
aI2
aI9978535
aa(lp290
I54294
aI46
aI9978565
aa(lp291
I54296
aI31
aI9978583
aa(lp292
I65533
aI0
aI9978605
aa(lp293
I54272
aI2
aI9978829
aa(lp294
I54273
aI22
aI9978833
aa(lp295
I54288
aI17
aI9979001
aa(lp296
I54289
aI10
aI9979005
aa(lp297
I54286
aI250
aI9979065
aa(lp298
I54287
aI10
aI9979069
aa(lp299
I54293
aI0
aI9979177
aa(lp300
I54294
aI45
aI9979207
aa(lp301
I54296
aI31
aI9979225
aa(lp302
I65533
aI0
aI9979247
aa(lp303
I54288
aI20
aI9979578
aa(lp304
I54289
aI10
aI9979582
aa(lp305
I54286
aI243
aI9979642
aa(lp306
I54287
aI10
aI9979646
aa(lp307
I54293
aI6
aI9979754
aa(lp308
I54294
aI43
aI9979784
aa(lp309
I54296
aI31
aI9979802
aa(lp310
I65533
aI0
aI9979824
aa(lp311
I54288
aI23
aI9980157
aa(lp312
I54289
aI10
aI9980161
aa(lp313
I54286
aI236
aI9980221
aa(lp314
I54287
aI10
aI9980225
aa(lp315
I54293
aI4
aI9980333
aa(lp316
I54294
aI42
aI9980363
aa(lp317
I54296
aI31
aI9980381
aa(lp318
I65533
aI0
aI9980403
aa(lp319
I54296
aI31
aI9980532
aa(lp320
I54288
aI26
aI9980786
aa(lp321
I54289
aI10
aI9980790
aa(lp322
I54286
aI229
aI9980850
aa(lp323
I54287
aI10
aI9980854
aa(lp324
I54293
aI2
aI9980962
aa(lp325
I54294
aI41
aI9980992
aa(lp326
I54296
aI31
aI9981010
aa(lp327
I65533
aI0
aI9981032
aa(lp328
I54272
aI129
aI9981256
aa(lp329
I54273
aI18
aI9981260
aa(lp330
I54288
aI29
aI9981428
aa(lp331
I54289
aI10
aI9981432
aa(lp332
I54286
aI222
aI9981492
aa(lp333
I54287
aI10
aI9981496
aa(lp334
I54293
aI0
aI9981604
aa(lp335
I54294
aI40
aI9981634
aa(lp336
I54296
aI31
aI9981652
aa(lp337
I65533
aI0
aI9981674
aa(lp338
I54288
aI32
aI9982005
aa(lp339
I54289
aI10
aI9982009
aa(lp340
I54286
aI215
aI9982069
aa(lp341
I54287
aI10
aI9982073
aa(lp342
I54293
aI2
aI9982187
aa(lp343
I54294
aI41
aI9982217
aa(lp344
I54296
aI31
aI9982235
aa(lp345
I65533
aI0
aI9982257
aa(lp346
I54288
aI35
aI9982590
aa(lp347
I54289
aI10
aI9982594
aa(lp348
I54286
aI208
aI9982654
aa(lp349
I54287
aI10
aI9982658
aa(lp350
I54293
aI4
aI9982772
aa(lp351
I54294
aI42
aI9982802
aa(lp352
I54296
aI31
aI9982820
aa.I352
.I352
.I77
.(lp0
I0
aI1
aI0
a.I3
.F1.0
.