(lp0
(lp1
I65533
aI0
aI18344044
aa(lp2
I54296
aI15
aI18344226
aa(lp3
I54287
aI3
aI18344303
aa(lp4
I54286
aI66
aI18344317
aa(lp5
I54290
aI65
aI18344366
aa(lp6
I54288
aI160
aI18344375
aa(lp7
I54289
aI1
aI18344384
aa(lp8
I54291
aI12
aI18344393
aa(lp9
I54292
aI205
aI18344402
aa(lp10
I54296
aI15
aI18344581
aa(lp11
I54280
aI43
aI18344660
aa(lp12
I54279
aI214
aI18344674
aa(lp13
I54283
aI129
aI18344723
aa(lp14
I54281
aI128
aI18344732
aa(lp15
I54282
aI8
aI18344741
aa(lp16
I54284
aI9
aI18344750
aa(lp17
I54285
aI10
aI18344759
aa(lp18
I54296
aI15
aI18344938
aa(lp19
I54273
aI52
aI18345017
aa(lp20
I54272
aI38
aI18345031
aa(lp21
I54276
aI21
aI18345080
aa(lp22
I54274
aI128
aI18345089
aa(lp23
I54275
aI1
aI18345098
aa(lp24
I54277
aI10
aI18345107
aa(lp25
I54278
aI12
aI18345116
aa(lp26
I65533
aI0
aI18345169
aa(lp27
I54288
aI161
aI18345311
aa(lp28
I54287
aI3
aI18345375
aa(lp29
I54290
aI128
aI18345382
aa(lp30
I54287
aI6
aI18345443
aa(lp31
I54286
aI133
aI18345452
aa(lp32
I54279
aI36
aI18345722
aa(lp33
I54280
aI45
aI18345731
aa(lp34
I54280
aI43
aI18345808
aa(lp35
I54283
aI128
aI18345815
aa(lp36
I54280
aI87
aI18345878
aa(lp37
I54279
aI172
aI18345887
aa(lp38
I54272
aI180
aI18346157
aa(lp39
I54273
aI53
aI18346166
aa(lp40
I54273
aI52
aI18346243
aa(lp41
I54276
aI128
aI18346250
aa(lp42
I54273
aI104
aI18346313
aa(lp43
I54272
aI76
aI18346322
aa(lp44
I65533
aI0
aI18346338
aa(lp45
I54288
aI162
aI18346480
aa(lp46
I54287
aI3
aI18346544
aa(lp47
I54290
aI128
aI18346551
aa(lp48
I54287
aI6
aI18346612
aa(lp49
I54286
aI133
aI18346621
aa(lp50
I54279
aI203
aI18346924
aa(lp51
I54280
aI45
aI18346933
aa(lp52
I54280
aI43
aI18347010
aa(lp53
I54283
aI128
aI18347017
aa(lp54
I54280
aI87
aI18347080
aa(lp55
I54279
aI172
aI18347089
aa(lp56
I54272
aI123
aI18347392
aa(lp57
I54273
aI54
aI18347401
aa(lp58
I54273
aI52
aI18347478
aa(lp59
I54276
aI128
aI18347485
aa(lp60
I54273
aI104
aI18347548
aa(lp61
I54272
aI76
aI18347557
aa(lp62
I65533
aI0
aI18347573
aa(lp63
I54288
aI163
aI18347757
aa(lp64
I54287
aI3
aI18347827
aa(lp65
I54290
aI64
aI18347841
aa(lp66
I54287
aI3
aI18347896
aa(lp67
I54286
aI66
aI18347905
aa(lp68
I54279
aI203
aI18348250
aa(lp69
I54280
aI45
aI18348259
aa(lp70
I54280
aI43
aI18348342
aa(lp71
I54283
aI128
aI18348356
aa(lp72
I54280
aI43
aI18348413
aa(lp73
I54279
aI214
aI18348422
aa(lp74
I54272
aI123
aI18348767
aa(lp75
I54273
aI54
aI18348776
aa(lp76
I54273
aI52
aI18348859
aa(lp77
I54276
aI20
aI18348873
aa(lp78
I54273
aI52
aI18348930
aa(lp79
I54272
aI38
aI18348939
aa(lp80
I65533
aI0
aI18348955
aa(lp81
I54288
aI164
aI18349097
aa(lp82
I54287
aI2
aI18349167
aa(lp83
I54290
aI64
aI18349181
aa(lp84
I54287
aI3
aI18349236
aa(lp85
I54286
aI66
aI18349245
aa(lp86
I54279
aI36
aI18349516
aa(lp87
I54280
aI45
aI18349525
aa(lp88
I54280
aI42
aI18349608
aa(lp89
I54283
aI128
aI18349622
aa(lp90
I54280
aI43
aI18349679
aa(lp91
I54279
aI214
aI18349688
aa(lp92
I54272
aI180
aI18349959
aa(lp93
I54273
aI53
aI18349968
aa(lp94
I54273
aI51
aI18350051
aa(lp95
I54276
aI20
aI18350065
aa(lp96
I54273
aI52
aI18350122
aa(lp97
I54272
aI38
aI18350131
aa(lp98
I65533
aI0
aI18350147
aa(lp99
I54288
aI165
aI18350289
aa(lp100
I54287
aI1
aI18350359
aa(lp101
I54290
aI64
aI18350373
aa(lp102
I54287
aI3
aI18350428
aa(lp103
I54286
aI66
aI18350437
aa(lp104
I54279
aI125
aI18350675
aa(lp105
I54280
aI44
aI18350684
aa(lp106
I54280
aI41
aI18350767
aa(lp107
I54283
aI128
aI18350781
aa(lp108
I54280
aI43
aI18350838
aa(lp109
I54279
aI214
aI18350847
aa(lp110
I54272
aI237
aI18351085
aa(lp111
I54273
aI52
aI18351094
aa(lp112
I54273
aI50
aI18351177
aa(lp113
I54276
aI20
aI18351191
aa(lp114
I54273
aI52
aI18351248
aa(lp115
I54272
aI38
aI18351257
aa(lp116
I65533
aI0
aI18351273
aa(lp117
I54288
aI166
aI18351457
aa(lp118
I54287
aI3
aI18351542
aa(lp119
I54286
aI66
aI18351551
aa(lp120
I54279
aI214
aI18351797
aa(lp121
I54280
aI43
aI18351806
aa(lp122
I54280
aI40
aI18351889
aa(lp123
I54283
aI128
aI18351903
aa(lp124
I54280
aI43
aI18351960
aa(lp125
I54279
aI214
aI18351969
aa(lp126
I54272
aI38
aI18352215
aa(lp127
I54273
aI52
aI18352224
aa(lp128
I54273
aI49
aI18352307
aa(lp129
I54276
aI20
aI18352321
aa(lp130
I54273
aI52
aI18352378
aa(lp131
I54272
aI38
aI18352387
aa(lp132
I65533
aI0
aI18352403
aa(lp133
I54288
aI167
aI18352545
aa(lp134
I54287
aI6
aI18352636
aa(lp135
I54286
aI133
aI18352645
aa(lp136
I54279
aI214
aI18352849
aa(lp137
I54280
aI43
aI18352858
aa(lp138
I54280
aI39
aI18352941
aa(lp139
I54283
aI128
aI18352955
aa(lp140
I54280
aI87
aI18353018
aa(lp141
I54279
aI172
aI18353027
aa(lp142
I54272
aI38
aI18353231
aa(lp143
I54273
aI52
aI18353240
aa(lp144
I54273
aI48
aI18353323
aa(lp145
I54276
aI20
aI18353337
aa(lp146
I54273
aI104
aI18353400
aa(lp147
I54272
aI76
aI18353409
aa(lp148
I65533
aI0
aI18353425
aa(lp149
I54288
aI168
aI18353567
aa(lp150
I54287
aI6
aI18353658
aa(lp151
I54286
aI133
aI18353667
aa(lp152
I54279
aI125
aI18353904
aa(lp153
I54280
aI44
aI18353913
aa(lp154
I54280
aI38
aI18353996
aa(lp155
I54283
aI128
aI18354010
aa(lp156
I54280
aI87
aI18354073
aa(lp157
I54279
aI172
aI18354082
aa(lp158
I54272
aI237
aI18354319
aa(lp159
I54273
aI52
aI18354328
aa(lp160
I54273
aI47
aI18354411
aa(lp161
I54276
aI20
aI18354425
aa(lp162
I54273
aI104
aI18354488
aa(lp163
I54272
aI76
aI18354497
aa(lp164
I65533
aI0
aI18354513
aa(lp165
I54288
aI169
aI18354697
aa(lp166
I54287
aI6
aI18354788
aa(lp167
I54286
aI133
aI18354797
aa(lp168
I54279
aI36
aI18355108
aa(lp169
I54280
aI45
aI18355117
aa(lp170
I54280
aI37
aI18355200
aa(lp171
I54283
aI128
aI18355214
aa(lp172
I54280
aI87
aI18355277
aa(lp173
I54279
aI172
aI18355286
aa(lp174
I54272
aI180
aI18355597
aa(lp175
I54273
aI53
aI18355606
aa(lp176
I54273
aI46
aI18355689
aa(lp177
I54276
aI20
aI18355703
aa(lp178
I54273
aI104
aI18355766
aa(lp179
I54272
aI76
aI18355775
aa(lp180
I65533
aI0
aI18355791
aa(lp181
I54288
aI170
aI18355933
aa(lp182
I54287
aI6
aI18356024
aa(lp183
I54286
aI133
aI18356033
aa(lp184
I54279
aI203
aI18356336
aa(lp185
I54280
aI45
aI18356345
aa(lp186
I54280
aI36
aI18356428
aa(lp187
I54283
aI128
aI18356442
aa(lp188
I54280
aI87
aI18356505
aa(lp189
I54279
aI172
aI18356514
aa(lp190
I54272
aI123
aI18356817
aa(lp191
I54273
aI54
aI18356826
aa(lp192
I54273
aI45
aI18356909
aa(lp193
I54276
aI20
aI18356923
aa(lp194
I54273
aI104
aI18356986
aa(lp195
I54272
aI76
aI18356995
aa(lp196
I65533
aI0
aI18357011
aa(lp197
I54288
aI171
aI18357153
aa(lp198
I54287
aI3
aI18357238
aa(lp199
I54286
aI66
aI18357247
aa(lp200
I54279
aI203
aI18357551
aa(lp201
I54280
aI45
aI18357560
aa(lp202
I54280
aI35
aI18357643
aa(lp203
I54283
aI128
aI18357657
aa(lp204
I54280
aI43
aI18357714
aa(lp205
I54279
aI214
aI18357723
aa(lp206
I54272
aI123
aI18358027
aa(lp207
I54273
aI54
aI18358036
aa(lp208
I54273
aI44
aI18358119
aa(lp209
I54276
aI20
aI18358133
aa(lp210
I54273
aI52
aI18358190
aa(lp211
I54272
aI38
aI18358199
aa(lp212
I65533
aI0
aI18358215
aa(lp213
I54288
aI172
aI18358399
aa(lp214
I54287
aI3
aI18358484
aa(lp215
I54286
aI66
aI18358493
aa(lp216
I54279
aI36
aI18358805
aa(lp217
I54280
aI45
aI18358814
aa(lp218
I54280
aI34
aI18358897
aa(lp219
I54283
aI128
aI18358911
aa(lp220
I54280
aI43
aI18358968
aa(lp221
I54279
aI214
aI18358977
aa(lp222
I54272
aI180
aI18359289
aa(lp223
I54273
aI53
aI18359298
aa(lp224
I54273
aI43
aI18359381
aa(lp225
I54276
aI20
aI18359395
aa(lp226
I54273
aI52
aI18359452
aa(lp227
I54272
aI38
aI18359461
aa(lp228
I65533
aI0
aI18359477
aa(lp229
I54288
aI173
aI18359619
aa(lp230
I54287
aI3
aI18359704
aa(lp231
I54286
aI66
aI18359713
aa(lp232
I54279
aI125
aI18359951
aa(lp233
I54280
aI44
aI18359960
aa(lp234
I54280
aI33
aI18360043
aa(lp235
I54283
aI128
aI18360057
aa(lp236
I54280
aI43
aI18360114
aa(lp237
I54279
aI214
aI18360123
aa(lp238
I54272
aI237
aI18360361
aa(lp239
I54273
aI52
aI18360370
aa(lp240
I54273
aI42
aI18360453
aa(lp241
I54276
aI20
aI18360467
aa(lp242
I54273
aI52
aI18360524
aa(lp243
I54272
aI38
aI18360533
aa(lp244
I65533
aI0
aI18360549
aa(lp245
I54288
aI174
aI18360691
aa(lp246
I54287
aI3
aI18360776
aa(lp247
I54286
aI66
aI18360785
aa(lp248
I54279
aI214
aI18360990
aa(lp249
I54280
aI43
aI18360999
aa(lp250
I54280
aI32
aI18361082
aa(lp251
I54283
aI128
aI18361096
aa(lp252
I54280
aI43
aI18361153
aa(lp253
I54279
aI214
aI18361162
aa(lp254
I54272
aI38
aI18361367
aa(lp255
I54273
aI52
aI18361376
aa(lp256
I54273
aI41
aI18361459
aa(lp257
I54276
aI20
aI18361473
aa(lp258
I54273
aI52
aI18361530
aa(lp259
I54272
aI38
aI18361539
aa(lp260
I65533
aI0
aI18361555
aa(lp261
I54288
aI175
aI18361739
aa(lp262
I54287
aI6
aI18361830
aa(lp263
I54286
aI133
aI18361839
aa(lp264
I54279
aI214
aI18362084
aa(lp265
I54280
aI43
aI18362093
aa(lp266
I54280
aI31
aI18362176
aa(lp267
I54283
aI128
aI18362190
aa(lp268
I54280
aI87
aI18362253
aa(lp269
I54279
aI172
aI18362262
aa(lp270
I54272
aI38
aI18362507
aa(lp271
I54273
aI52
aI18362516
aa(lp272
I54273
aI40
aI18362599
aa(lp273
I54276
aI20
aI18362613
aa(lp274
I54273
aI104
aI18362676
aa(lp275
I54272
aI76
aI18362685
aa(lp276
I65533
aI0
aI18362701
aa(lp277
I54288
aI176
aI18362843
aa(lp278
I54287
aI6
aI18362934
aa(lp279
I54286
aI133
aI18362943
aa(lp280
I54279
aI125
aI18363180
aa(lp281
I54280
aI44
aI18363189
aa(lp282
I54280
aI30
aI18363272
aa(lp283
I54283
aI128
aI18363286
aa(lp284
I54280
aI87
aI18363349
aa(lp285
I54279
aI172
aI18363358
aa(lp286
I54272
aI237
aI18363595
aa(lp287
I54273
aI52
aI18363604
aa(lp288
I54273
aI39
aI18363687
aa(lp289
I54276
aI20
aI18363701
aa(lp290
I54273
aI104
aI18363764
aa(lp291
I54272
aI76
aI18363773
aa(lp292
I65533
aI0
aI18363789
aa(lp293
I54288
aI177
aI18363931
aa(lp294
I54287
aI6
aI18364022
aa(lp295
I54286
aI133
aI18364031
aa(lp296
I54279
aI36
aI18364301
aa(lp297
I54280
aI45
aI18364310
aa(lp298
I54280
aI29
aI18364393
aa(lp299
I54283
aI128
aI18364407
aa(lp300
I54280
aI87
aI18364470
aa(lp301
I54279
aI172
aI18364479
aa(lp302
I54272
aI180
aI18364749
aa(lp303
I54273
aI53
aI18364758
aa(lp304
I54273
aI38
aI18364841
aa(lp305
I54276
aI20
aI18364855
aa(lp306
I54273
aI104
aI18364918
aa(lp307
I54272
aI76
aI18364927
aa(lp308
I65533
aI0
aI18364943
aa(lp309
I54288
aI178
aI18365127
aa(lp310
I54287
aI6
aI18365218
aa(lp311
I54286
aI133
aI18365227
aa(lp312
I54279
aI203
aI18365571
aa(lp313
I54280
aI45
aI18365580
aa(lp314
I54280
aI28
aI18365663
aa(lp315
I54283
aI128
aI18365677
aa(lp316
I54280
aI87
aI18365740
aa(lp317
I54279
aI172
aI18365749
aa(lp318
I54272
aI123
aI18366093
aa(lp319
I54273
aI54
aI18366102
aa(lp320
I54273
aI37
aI18366185
aa(lp321
I54276
aI20
aI18366199
aa(lp322
I54273
aI104
aI18366262
aa(lp323
I54272
aI76
aI18366271
aa(lp324
I65533
aI0
aI18366287
aa(lp325
I54288
aI179
aI18366429
aa(lp326
I54287
aI3
aI18366514
aa(lp327
I54286
aI66
aI18366523
aa(lp328
I54279
aI203
aI18366827
aa(lp329
I54280
aI45
aI18366836
aa(lp330
I54280
aI27
aI18366919
aa(lp331
I54283
aI128
aI18366933
aa(lp332
I54280
aI43
aI18366990
aa(lp333
I54279
aI214
aI18366999
aa(lp334
I54272
aI123
aI18367303
aa(lp335
I54273
aI54
aI18367312
aa(lp336
I54273
aI36
aI18367395
aa(lp337
I54276
aI20
aI18367409
aa(lp338
I54273
aI52
aI18367466
aa(lp339
I54272
aI38
aI18367475
aa(lp340
I65533
aI0
aI18367491
aa(lp341
I54288
aI180
aI18367633
aa(lp342
I54287
aI3
aI18367718
aa(lp343
I54286
aI66
aI18367727
aa(lp344
I54279
aI36
aI18367998
aa(lp345
I54280
aI45
aI18368007
aa(lp346
I54280
aI26
aI18368090
aa(lp347
I54283
aI128
aI18368104
aa(lp348
I54280
aI43
aI18368161
aa(lp349
I54279
aI214
aI18368170
aa(lp350
I54272
aI180
aI18368441
aa(lp351
I54273
aI53
aI18368450
aa(lp352
I54273
aI35
aI18368533
aa(lp353
I54276
aI20
aI18368547
aa(lp354
I54273
aI52
aI18368604
aa(lp355
I54272
aI38
aI18368613
aa(lp356
I65533
aI0
aI18368629
aa(lp357
I54288
aI181
aI18368813
aa(lp358
I54287
aI3
aI18368898
aa(lp359
I54286
aI66
aI18368907
aa(lp360
I54279
aI125
aI18369186
aa(lp361
I54280
aI44
aI18369195
aa(lp362
I54280
aI25
aI18369278
aa(lp363
I54283
aI128
aI18369292
aa(lp364
I54280
aI43
aI18369349
aa(lp365
I54279
aI214
aI18369358
aa(lp366
I54272
aI237
aI18369637
aa(lp367
I54273
aI52
aI18369646
aa(lp368
I54273
aI34
aI18369729
aa(lp369
I54276
aI20
aI18369743
aa(lp370
I54273
aI52
aI18369800
aa(lp371
I54272
aI38
aI18369809
aa(lp372
I65533
aI0
aI18369825
aa(lp373
I54288
aI182
aI18369967
aa(lp374
I54287
aI3
aI18370052
aa(lp375
I54286
aI66
aI18370061
aa(lp376
I54279
aI214
aI18370266
aa(lp377
I54280
aI43
aI18370275
aa(lp378
I54280
aI24
aI18370358
aa(lp379
I54283
aI128
aI18370372
aa(lp380
I54280
aI43
aI18370429
aa(lp381
I54279
aI214
aI18370438
aa(lp382
I54272
aI38
aI18370643
aa(lp383
I54273
aI52
aI18370652
aa(lp384
I54273
aI33
aI18370735
aa(lp385
I54276
aI20
aI18370749
aa(lp386
I54273
aI52
aI18370806
aa(lp387
I54272
aI38
aI18370815
aa(lp388
I65533
aI0
aI18370831
aa(lp389
I54288
aI183
aI18370973
aa(lp390
I54287
aI6
aI18371064
aa(lp391
I54286
aI133
aI18371073
aa(lp392
I54279
aI214
aI18371277
aa(lp393
I54280
aI43
aI18371286
aa(lp394
I54280
aI23
aI18371369
aa(lp395
I54283
aI128
aI18371383
aa(lp396
I54280
aI87
aI18371446
aa(lp397
I54279
aI172
aI18371455
aa(lp398
I54272
aI38
aI18371659
aa(lp399
I54273
aI52
aI18371668
aa(lp400
I54273
aI32
aI18371751
aa(lp401
I54276
aI20
aI18371765
aa(lp402
I54273
aI104
aI18371828
aa(lp403
I54272
aI76
aI18371837
aa(lp404
I65533
aI0
aI18371853
aa(lp405
I54288
aI184
aI18372037
aa(lp406
I54287
aI6
aI18372128
aa(lp407
I54286
aI133
aI18372137
aa(lp408
I54279
aI125
aI18372415
aa(lp409
I54280
aI44
aI18372424
aa(lp410
I54280
aI22
aI18372507
aa(lp411
I54283
aI128
aI18372521
aa(lp412
I54280
aI87
aI18372584
aa(lp413
I54279
aI172
aI18372593
aa(lp414
I54272
aI237
aI18372871
aa(lp415
I54273
aI52
aI18372880
aa(lp416
I54273
aI31
aI18372963
aa(lp417
I54276
aI20
aI18372977
aa(lp418
I54273
aI104
aI18373040
aa(lp419
I54272
aI76
aI18373049
aa(lp420
I65533
aI0
aI18373065
aa(lp421
I54288
aI185
aI18373207
aa(lp422
I54287
aI6
aI18373298
aa(lp423
I54286
aI133
aI18373307
aa(lp424
I54279
aI36
aI18373577
aa(lp425
I54280
aI45
aI18373586
aa(lp426
I54280
aI21
aI18373669
aa(lp427
I54283
aI128
aI18373683
aa(lp428
I54280
aI87
aI18373746
aa(lp429
I54279
aI172
aI18373755
aa(lp430
I54272
aI180
aI18374025
aa(lp431
I54273
aI53
aI18374034
aa(lp432
I54273
aI30
aI18374117
aa(lp433
I54276
aI20
aI18374131
aa(lp434
I54273
aI104
aI18374194
aa(lp435
I54272
aI76
aI18374203
aa(lp436
I65533
aI0
aI18374219
aa(lp437
I54288
aI186
aI18374361
aa(lp438
I54287
aI6
aI18374452
aa(lp439
I54286
aI133
aI18374461
aa(lp440
I54279
aI203
aI18374764
aa(lp441
I54280
aI45
aI18374773
aa(lp442
I54280
aI20
aI18374856
aa(lp443
I54283
aI128
aI18374870
aa(lp444
I54280
aI87
aI18374933
aa(lp445
I54279
aI172
aI18374942
aa(lp446
I54272
aI123
aI18375245
aa(lp447
I54273
aI54
aI18375254
aa(lp448
I54273
aI29
aI18375337
aa(lp449
I54276
aI20
aI18375351
aa(lp450
I54273
aI104
aI18375414
aa(lp451
I54272
aI76
aI18375423
aa(lp452
I65533
aI0
aI18375439
aa(lp453
I54288
aI187
aI18375623
aa(lp454
I54287
aI3
aI18375708
aa(lp455
I54286
aI66
aI18375717
aa(lp456
I54279
aI203
aI18376062
aa(lp457
I54280
aI45
aI18376071
aa(lp458
I54280
aI19
aI18376154
aa(lp459
I54283
aI128
aI18376168
aa(lp460
I54280
aI43
aI18376225
aa(lp461
I54279
aI214
aI18376234
aa(lp462
I54272
aI123
aI18376579
aa(lp463
I54273
aI54
aI18376588
aa(lp464
I54273
aI28
aI18376671
aa(lp465
I54276
aI20
aI18376685
aa(lp466
I54273
aI52
aI18376742
aa(lp467
I54272
aI38
aI18376751
aa(lp468
I65533
aI0
aI18376767
aa(lp469
I54288
aI188
aI18376909
aa(lp470
I54287
aI3
aI18376994
aa(lp471
I54286
aI66
aI18377003
aa(lp472
I54279
aI36
aI18377274
aa(lp473
I54280
aI45
aI18377283
aa(lp474
I54280
aI18
aI18377366
aa(lp475
I54283
aI128
aI18377380
aa(lp476
I54280
aI43
aI18377437
aa(lp477
I54279
aI214
aI18377446
aa(lp478
I54272
aI180
aI18377717
aa(lp479
I54273
aI53
aI18377726
aa(lp480
I54273
aI27
aI18377809
aa(lp481
I54276
aI20
aI18377823
aa(lp482
I54273
aI52
aI18377880
aa(lp483
I54272
aI38
aI18377889
aa(lp484
I65533
aI0
aI18377905
aa(lp485
I54288
aI189
aI18378047
aa(lp486
I54287
aI3
aI18378132
aa(lp487
I54286
aI66
aI18378141
aa(lp488
I54279
aI125
aI18378379
aa(lp489
I54280
aI44
aI18378388
aa(lp490
I54280
aI17
aI18378471
aa(lp491
I54283
aI128
aI18378485
aa(lp492
I54280
aI43
aI18378542
aa(lp493
I54279
aI214
aI18378551
aa(lp494
I54272
aI237
aI18378789
aa(lp495
I54273
aI52
aI18378798
aa(lp496
I54273
aI26
aI18378881
aa(lp497
I54276
aI20
aI18378895
aa(lp498
I54273
aI52
aI18378952
aa(lp499
I54272
aI38
aI18378961
aa(lp500
I65533
aI0
aI18378977
aa(lp501
I54288
aI190
aI18379161
aa(lp502
I54287
aI3
aI18379246
aa(lp503
I54286
aI66
aI18379255
aa(lp504
I54279
aI214
aI18379501
aa(lp505
I54280
aI43
aI18379510
aa(lp506
I54280
aI16
aI18379593
aa(lp507
I54283
aI128
aI18379607
aa(lp508
I54280
aI43
aI18379664
aa(lp509
I54279
aI214
aI18379673
aa(lp510
I54272
aI38
aI18379919
aa(lp511
I54273
aI52
aI18379928
aa(lp512
I54273
aI25
aI18380011
aa(lp513
I54276
aI20
aI18380025
aa(lp514
I54273
aI52
aI18380082
aa(lp515
I54272
aI38
aI18380091
aa(lp516
I65533
aI0
aI18380107
aa(lp517
I54288
aI191
aI18380249
aa(lp518
I54287
aI6
aI18380340
aa(lp519
I54286
aI133
aI18380349
aa(lp520
I54279
aI214
aI18380553
aa(lp521
I54280
aI43
aI18380562
aa(lp522
I54280
aI15
aI18380645
aa(lp523
I54283
aI128
aI18380659
aa(lp524
I54280
aI87
aI18380722
aa(lp525
I54279
aI172
aI18380731
aa(lp526
I54272
aI38
aI18380935
aa(lp527
I54273
aI52
aI18380944
aa(lp528
I54273
aI24
aI18381027
aa(lp529
I54276
aI20
aI18381041
aa(lp530
I54273
aI104
aI18381104
aa(lp531
I54272
aI76
aI18381113
aa(lp532
I65533
aI0
aI18381129
aa(lp533
I54288
aI192
aI18381271
aa(lp534
I54287
aI6
aI18381362
aa(lp535
I54286
aI133
aI18381371
aa(lp536
I54279
aI125
aI18381608
aa(lp537
I54280
aI44
aI18381617
aa(lp538
I54280
aI14
aI18381700
aa(lp539
I54283
aI128
aI18381714
aa(lp540
I54280
aI87
aI18381777
aa(lp541
I54279
aI172
aI18381786
aa(lp542
I54272
aI237
aI18382023
aa(lp543
I54273
aI52
aI18382032
aa(lp544
I54273
aI23
aI18382115
aa(lp545
I54276
aI20
aI18382129
aa(lp546
I54273
aI104
aI18382192
aa(lp547
I54272
aI76
aI18382201
aa(lp548
I65533
aI0
aI18382217
aa(lp549
I54288
aI193
aI18382401
aa(lp550
I54287
aI6
aI18382492
aa(lp551
I54286
aI133
aI18382501
aa(lp552
I54279
aI36
aI18382812
aa(lp553
I54280
aI45
aI18382821
aa(lp554
I54280
aI13
aI18382904
aa(lp555
I54283
aI128
aI18382918
aa(lp556
I54280
aI87
aI18382981
aa(lp557
I54279
aI172
aI18382990
aa(lp558
I54272
aI180
aI18383301
aa(lp559
I54273
aI53
aI18383310
aa(lp560
I54273
aI22
aI18383393
aa(lp561
I54276
aI20
aI18383407
aa(lp562
I54273
aI104
aI18383470
aa(lp563
I54272
aI76
aI18383479
aa(lp564
I65533
aI0
aI18383495
aa(lp565
I54288
aI194
aI18383637
aa(lp566
I54287
aI6
aI18383728
aa(lp567
I54286
aI133
aI18383737
aa(lp568
I54279
aI203
aI18384040
aa(lp569
I54280
aI45
aI18384049
aa(lp570
I54280
aI12
aI18384132
aa(lp571
I54283
aI128
aI18384146
aa(lp572
I54280
aI87
aI18384209
aa(lp573
I54279
aI172
aI18384218
aa(lp574
I54272
aI123
aI18384521
aa(lp575
I54273
aI54
aI18384530
aa(lp576
I54273
aI21
aI18384613
aa(lp577
I54276
aI20
aI18384627
aa(lp578
I54273
aI104
aI18384690
aa(lp579
I54272
aI76
aI18384699
aa(lp580
I65533
aI0
aI18384715
aa(lp581
I54288
aI195
aI18384857
aa(lp582
I54287
aI3
aI18384942
aa(lp583
I54286
aI66
aI18384951
aa(lp584
I54279
aI203
aI18385255
aa(lp585
I54280
aI45
aI18385264
aa(lp586
I54280
aI11
aI18385347
aa(lp587
I54283
aI128
aI18385361
aa(lp588
I54280
aI43
aI18385418
aa(lp589
I54279
aI214
aI18385427
aa(lp590
I54272
aI123
aI18385731
aa(lp591
I54273
aI54
aI18385740
aa(lp592
I54273
aI20
aI18385823
aa(lp593
I54276
aI20
aI18385837
aa(lp594
I54273
aI52
aI18385894
aa(lp595
I54272
aI38
aI18385903
aa(lp596
I65533
aI0
aI18385919
aa(lp597
I54288
aI196
aI18386103
aa(lp598
I54287
aI3
aI18386188
aa(lp599
I54286
aI66
aI18386197
aa(lp600
I54279
aI36
aI18386509
aa(lp601
I54280
aI45
aI18386518
aa(lp602
I54280
aI10
aI18386601
aa(lp603
I54283
aI128
aI18386615
aa(lp604
I54280
aI43
aI18386672
aa(lp605
I54279
aI214
aI18386681
aa(lp606
I54272
aI180
aI18386993
aa(lp607
I54273
aI53
aI18387002
aa(lp608
I54273
aI19
aI18387085
aa(lp609
I54276
aI20
aI18387099
aa(lp610
I54273
aI52
aI18387156
aa(lp611
I54272
aI38
aI18387165
aa(lp612
I65533
aI0
aI18387181
aa(lp613
I54288
aI197
aI18387323
aa(lp614
I54287
aI3
aI18387408
aa(lp615
I54286
aI66
aI18387417
aa(lp616
I54279
aI125
aI18387655
aa(lp617
I54280
aI44
aI18387664
aa(lp618
I54280
aI9
aI18387747
aa(lp619
I54283
aI128
aI18387761
aa(lp620
I54280
aI43
aI18387818
aa(lp621
I54279
aI214
aI18387827
aa(lp622
I54272
aI237
aI18388065
aa(lp623
I54273
aI52
aI18388074
aa(lp624
I54273
aI18
aI18388157
aa(lp625
I54276
aI20
aI18388171
aa(lp626
I54273
aI52
aI18388228
aa(lp627
I54272
aI38
aI18388237
aa(lp628
I65533
aI0
aI18388253
aa(lp629
I54288
aI198
aI18388402
aa(lp630
I54287
aI3
aI18388487
aa(lp631
I54286
aI66
aI18388496
aa(lp632
I54279
aI214
aI18388701
aa(lp633
I54280
aI43
aI18388710
aa(lp634
I54280
aI8
aI18388793
aa(lp635
I54283
aI128
aI18388807
aa(lp636
I54280
aI43
aI18388864
aa(lp637
I54279
aI214
aI18388873
aa(lp638
I54272
aI38
aI18389078
aa(lp639
I54273
aI52
aI18389087
aa(lp640
I54273
aI17
aI18389170
aa(lp641
I54276
aI20
aI18389184
aa(lp642
I54273
aI52
aI18389241
aa(lp643
I54272
aI38
aI18389250
aa(lp644
I65533
aI0
aI18389266
aa(lp645
I54288
aI199
aI18389450
aa(lp646
I54287
aI6
aI18389541
aa(lp647
I54286
aI133
aI18389550
aa(lp648
I54279
aI214
aI18389795
aa(lp649
I54280
aI43
aI18389804
aa(lp650
I54280
aI7
aI18389887
aa(lp651
I54283
aI128
aI18389901
aa(lp652
I54280
aI87
aI18389964
aa(lp653
I54279
aI172
aI18389973
aa(lp654
I54272
aI38
aI18390218
aa(lp655
I54273
aI52
aI18390227
aa(lp656
I54273
aI16
aI18390310
aa(lp657
I54276
aI20
aI18390324
aa(lp658
I54273
aI104
aI18390387
aa(lp659
I54272
aI76
aI18390396
aa(lp660
I65533
aI0
aI18390412
aa(lp661
I54288
aI200
aI18390554
aa(lp662
I54287
aI6
aI18390645
aa(lp663
I54286
aI133
aI18390654
aa(lp664
I54279
aI125
aI18390891
aa(lp665
I54280
aI44
aI18390900
aa(lp666
I54280
aI6
aI18390983
aa(lp667
I54283
aI128
aI18390997
aa(lp668
I54280
aI87
aI18391060
aa(lp669
I54279
aI172
aI18391069
aa(lp670
I54272
aI237
aI18391306
aa(lp671
I54273
aI52
aI18391315
aa(lp672
I54273
aI15
aI18391398
aa(lp673
I54276
aI20
aI18391412
aa(lp674
I54273
aI104
aI18391475
aa(lp675
I54272
aI76
aI18391484
aa(lp676
I65533
aI0
aI18391500
aa(lp677
I54288
aI201
aI18391642
aa(lp678
I54287
aI6
aI18391733
aa(lp679
I54286
aI133
aI18391742
aa(lp680
I54279
aI36
aI18392012
aa(lp681
I54280
aI45
aI18392021
aa(lp682
I54280
aI5
aI18392104
aa(lp683
I54283
aI128
aI18392118
aa(lp684
I54280
aI87
aI18392181
aa(lp685
I54279
aI172
aI18392190
aa(lp686
I54272
aI180
aI18392460
aa(lp687
I54273
aI53
aI18392469
aa(lp688
I54273
aI14
aI18392552
aa(lp689
I54276
aI20
aI18392566
aa(lp690
I54273
aI104
aI18392629
aa(lp691
I54272
aI76
aI18392638
aa(lp692
I65533
aI0
aI18392654
aa(lp693
I54288
aI202
aI18392838
aa(lp694
I54287
aI6
aI18392929
aa(lp695
I54286
aI133
aI18392938
aa(lp696
I54279
aI203
aI18393282
aa(lp697
I54280
aI45
aI18393291
aa(lp698
I54280
aI4
aI18393374
aa(lp699
I54283
aI128
aI18393388
aa(lp700
I54280
aI87
aI18393451
aa(lp701
I54279
aI172
aI18393460
aa(lp702
I54272
aI123
aI18393804
aa(lp703
I54273
aI54
aI18393813
aa(lp704
I54273
aI13
aI18393896
aa(lp705
I54276
aI20
aI18393910
aa(lp706
I54273
aI104
aI18393973
aa(lp707
I54272
aI76
aI18393982
aa(lp708
I65533
aI0
aI18393998
aa(lp709
I54288
aI203
aI18394140
aa(lp710
I54287
aI3
aI18394225
aa(lp711
I54286
aI66
aI18394234
aa(lp712
I54279
aI203
aI18394538
aa(lp713
I54280
aI45
aI18394547
aa(lp714
I54280
aI3
aI18394630
aa(lp715
I54283
aI128
aI18394644
aa(lp716
I54280
aI43
aI18394701
aa(lp717
I54279
aI214
aI18394710
aa(lp718
I54272
aI123
aI18395014
aa(lp719
I54273
aI54
aI18395023
aa(lp720
I54273
aI12
aI18395106
aa(lp721
I54276
aI20
aI18395120
aa(lp722
I54273
aI52
aI18395177
aa(lp723
I54272
aI38
aI18395186
aa(lp724
I65533
aI0
aI18395202
aa(lp725
I54288
aI204
aI18395344
aa(lp726
I54287
aI3
aI18395429
aa(lp727
I54286
aI66
aI18395438
aa(lp728
I54279
aI36
aI18395709
aa(lp729
I54280
aI45
aI18395718
aa(lp730
I54280
aI2
aI18395801
aa(lp731
I54283
aI128
aI18395815
aa(lp732
I54280
aI43
aI18395872
aa(lp733
I54279
aI214
aI18395881
aa(lp734
I54272
aI180
aI18396152
aa(lp735
I54273
aI53
aI18396161
aa(lp736
I54273
aI11
aI18396244
aa(lp737
I54276
aI20
aI18396258
aa(lp738
I54273
aI52
aI18396315
aa(lp739
I54272
aI38
aI18396324
aa(lp740
I65533
aI0
aI18396340
aa(lp741
I54288
aI205
aI18396524
aa(lp742
I54287
aI3
aI18396609
aa(lp743
I54286
aI66
aI18396618
aa(lp744
I54283
aI128
aI18396700
aa(lp745
I54284
aI0
aI18396707
aa(lp746
I54285
aI0
aI18396712
aa(lp747
I54279
aI125
aI18396919
aa(lp748
I54280
aI44
aI18396928
aa(lp749
I54280
aI43
aI18397034
aa(lp750
I54279
aI214
aI18397043
aa(lp751
I54276
aI20
aI18397125
aa(lp752
I54277
aI0
aI18397132
aa(lp753
I54278
aI0
aI18397137
aa(lp754
I54272
aI237
aI18397344
aa(lp755
I54273
aI52
aI18397353
aa(lp756
I54273
aI52
aI18397459
aa(lp757
I54272
aI38
aI18397468
aa(lp758
I65533
aI0
aI18397484
aa(lp759
I54288
aI206
aI18397626
aa(lp760
I54287
aI3
aI18397711
aa(lp761
I54286
aI66
aI18397720
aa(lp762
I54279
aI214
aI18397925
aa(lp763
I54280
aI43
aI18397934
aa(lp764
I54280
aI43
aI18398040
aa(lp765
I54279
aI214
aI18398049
aa(lp766
I54272
aI38
aI18398254
aa(lp767
I54273
aI52
aI18398263
aa(lp768
I54273
aI52
aI18398369
aa(lp769
I54272
aI38
aI18398378
aa(lp770
I65533
aI0
aI18398394
aa(lp771
I54288
aI207
aI18398536
aa(lp772
I54287
aI6
aI18398627
aa(lp773
I54286
aI133
aI18398636
aa(lp774
I54279
aI214
aI18398840
aa(lp775
I54280
aI43
aI18398849
aa(lp776
I54280
aI87
aI18398961
aa(lp777
I54279
aI172
aI18398970
aa(lp778
I54272
aI38
aI18399174
aa(lp779
I54273
aI52
aI18399183
aa(lp780
I54273
aI104
aI18399295
aa(lp781
I54272
aI76
aI18399304
aa(lp782
I65533
aI0
aI18399320
aa(lp783
I54288
aI208
aI18399504
aa(lp784
I54287
aI6
aI18399595
aa(lp785
I54286
aI133
aI18399604
aa(lp786
I54296
aI15
aI18399746
aa(lp787
I54280
aI17
aI18399823
aa(lp788
I54279
aI104
aI18399837
aa(lp789
I54283
aI129
aI18399886
aa(lp790
I54281
aI0
aI18399895
aa(lp791
I54282
aI2
aI18399904
aa(lp792
I54284
aI11
aI18399913
aa(lp793
I54285
aI12
aI18399922
aa(lp794
I54296
aI15
aI18400101
aa(lp795
I54273
aI16
aI18400178
aa(lp796
I54272
aI110
aI18400192
aa(lp797
I54276
aI65
aI18400241
aa(lp798
I54274
aI0
aI18400250
aa(lp799
I54275
aI8
aI18400259
aa(lp800
I54277
aI10
aI18400268
aa(lp801
I54278
aI10
aI18400277
aa(lp802
I65533
aI0
aI18400330
aa(lp803
I54288
aI209
aI18400472
aa(lp804
I54287
aI6
aI18400563
aa(lp805
I54286
aI133
aI18400572
aa(lp806
I54280
aI17
aI18400724
aa(lp807
I54283
aI128
aI18400731
aa(lp808
I54280
aI34
aI18400792
aa(lp809
I54279
aI208
aI18400801
aa(lp810
I54273
aI16
aI18400953
aa(lp811
I54276
aI128
aI18400960
aa(lp812
I65533
aI0
aI18400994
aa(lp813
I54288
aI210
aI18401136
aa(lp814
I54287
aI6
aI18401227
aa(lp815
I54286
aI133
aI18401236
aa(lp816
I54280
aI17
aI18401388
aa(lp817
I54283
aI128
aI18401395
aa(lp818
I54280
aI34
aI18401456
aa(lp819
I54279
aI208
aI18401465
aa(lp820
I54273
aI16
aI18401617
aa(lp821
I54276
aI128
aI18401624
aa(lp822
I65533
aI0
aI18401658
aa(lp823
I54288
aI211
aI18401842
aa(lp824
I54287
aI3
aI18401927
aa(lp825
I54286
aI66
aI18401936
aa(lp826
I54280
aI17
aI18402135
aa(lp827
I54283
aI128
aI18402149
aa(lp828
I54280
aI17
aI18402204
aa(lp829
I54279
aI104
aI18402213
aa(lp830
I54273
aI16
aI18402412
aa(lp831
I54276
aI64
aI18402426
aa(lp832
I65533
aI0
aI18402460
aa(lp833
I54288
aI212
aI18402602
aa(lp834
I54287
aI3
aI18402687
aa(lp835
I54286
aI66
aI18402696
aa(lp836
I54280
aI16
aI18402854
aa(lp837
I54283
aI128
aI18402868
aa(lp838
I54280
aI17
aI18402923
aa(lp839
I54279
aI104
aI18402932
aa(lp840
I54273
aI15
aI18403090
aa(lp841
I54276
aI64
aI18403104
aa(lp842
I65533
aI0
aI18403138
aa(lp843
I54288
aI213
aI18403280
aa(lp844
I54287
aI3
aI18403365
aa(lp845
I54286
aI66
aI18403374
aa(lp846
I54280
aI15
aI18403532
aa(lp847
I54283
aI128
aI18403546
aa(lp848
I54280
aI17
aI18403601
aa(lp849
I54279
aI104
aI18403610
aa(lp850
I54273
aI14
aI18403768
aa(lp851
I54276
aI64
aI18403782
aa(lp852
I65533
aI0
aI18403816
aa(lp853
I54288
aI214
aI18404000
aa(lp854
I54287
aI3
aI18404085
aa(lp855
I54286
aI66
aI18404094
aa(lp856
I54280
aI14
aI18404293
aa(lp857
I54283
aI128
aI18404307
aa(lp858
I54280
aI17
aI18404362
aa(lp859
I54279
aI104
aI18404371
aa(lp860
I54273
aI13
aI18404570
aa(lp861
I54276
aI64
aI18404584
aa(lp862
I65533
aI0
aI18404618
aa(lp863
I54288
aI215
aI18404760
aa(lp864
I54287
aI6
aI18404851
aa(lp865
I54286
aI133
aI18404860
aa(lp866
I54280
aI13
aI18405018
aa(lp867
I54283
aI128
aI18405032
aa(lp868
I54280
aI34
aI18405093
aa(lp869
I54279
aI208
aI18405102
aa(lp870
I54273
aI12
aI18405260
aa(lp871
I54276
aI64
aI18405274
aa(lp872
I65533
aI0
aI18405308
aa(lp873
I54288
aI216
aI18405450
aa(lp874
I54287
aI6
aI18405541
aa(lp875
I54286
aI133
aI18405550
aa(lp876
I54280
aI12
aI18405708
aa(lp877
I54283
aI128
aI18405722
aa(lp878
I54280
aI34
aI18405783
aa(lp879
I54279
aI208
aI18405792
aa(lp880
I54273
aI11
aI18405950
aa(lp881
I54276
aI64
aI18405964
aa(lp882
I65533
aI0
aI18405998
aa(lp883
I54288
aI217
aI18406182
aa(lp884
I54287
aI6
aI18406273
aa(lp885
I54286
aI133
aI18406282
aa(lp886
I54280
aI11
aI18406481
aa(lp887
I54283
aI128
aI18406495
aa(lp888
I54280
aI34
aI18406556
aa(lp889
I54279
aI208
aI18406565
aa(lp890
I54273
aI10
aI18406764
aa(lp891
I54276
aI64
aI18406778
aa(lp892
I65533
aI0
aI18406812
aa(lp893
I54288
aI218
aI18406954
aa(lp894
I54287
aI6
aI18407045
aa(lp895
I54286
aI133
aI18407054
aa(lp896
I54280
aI10
aI18407212
aa(lp897
I54283
aI128
aI18407226
aa(lp898
I54280
aI34
aI18407287
aa(lp899
I54279
aI208
aI18407296
aa(lp900
I54273
aI9
aI18407454
aa(lp901
I54276
aI64
aI18407468
aa(lp902
I65533
aI0
aI18407502
aa(lp903
I54288
aI219
aI18407644
aa(lp904
I54287
aI3
aI18407729
aa(lp905
I54286
aI66
aI18407738
aa(lp906
I54280
aI9
aI18407896
aa(lp907
I54283
aI128
aI18407910
aa(lp908
I54280
aI17
aI18407965
aa(lp909
I54279
aI104
aI18407974
aa(lp910
I54273
aI8
aI18408132
aa(lp911
I54276
aI64
aI18408146
aa(lp912
I65533
aI0
aI18408180
aa(lp913
I54288
aI220
aI18408364
aa(lp914
I54287
aI3
aI18408449
aa(lp915
I54286
aI66
aI18408458
aa(lp916
I54280
aI8
aI18408657
aa(lp917
I54283
aI128
aI18408671
aa(lp918
I54280
aI17
aI18408726
aa(lp919
I54279
aI104
aI18408735
aa(lp920
I54273
aI7
aI18408934
aa(lp921
I54276
aI64
aI18408948
aa(lp922
I65533
aI0
aI18408982
aa(lp923
I54288
aI221
aI18409124
aa(lp924
I54287
aI3
aI18409209
aa(lp925
I54286
aI66
aI18409218
aa(lp926
I54280
aI7
aI18409376
aa(lp927
I54283
aI128
aI18409390
aa(lp928
I54280
aI17
aI18409445
aa(lp929
I54279
aI104
aI18409454
aa(lp930
I54273
aI6
aI18409612
aa(lp931
I54276
aI64
aI18409626
aa(lp932
I65533
aI0
aI18409660
aa(lp933
I54288
aI222
aI18409802
aa(lp934
I54287
aI3
aI18409887
aa(lp935
I54286
aI66
aI18409896
aa(lp936
I54280
aI6
aI18410054
aa(lp937
I54283
aI128
aI18410068
aa(lp938
I54280
aI17
aI18410123
aa(lp939
I54279
aI104
aI18410132
aa(lp940
I54273
aI5
aI18410290
aa(lp941
I54276
aI64
aI18410304
aa(lp942
I65533
aI0
aI18410338
aa(lp943
I54288
aI223
aI18410522
aa(lp944
I54287
aI6
aI18410613
aa(lp945
I54286
aI133
aI18410622
aa(lp946
I54280
aI5
aI18410821
aa(lp947
I54283
aI128
aI18410835
aa(lp948
I54280
aI34
aI18410896
aa(lp949
I54279
aI208
aI18410905
aa(lp950
I54273
aI4
aI18411104
aa(lp951
I54276
aI64
aI18411118
aa(lp952
I65533
aI0
aI18411152
aa(lp953
I54288
aI224
aI18411294
aa(lp954
I54287
aI6
aI18411385
aa(lp955
I54286
aI133
aI18411394
aa(lp956
I54280
aI4
aI18411552
aa(lp957
I54283
aI128
aI18411566
aa(lp958
I54280
aI34
aI18411627
aa(lp959
I54279
aI208
aI18411636
aa(lp960
I54273
aI3
aI18411794
aa(lp961
I54276
aI64
aI18411808
aa(lp962
I65533
aI0
aI18411842
aa(lp963
I54288
aI225
aI18411984
aa(lp964
I54287
aI6
aI18412075
aa(lp965
I54286
aI133
aI18412084
aa(lp966
I54280
aI3
aI18412242
aa(lp967
I54283
aI128
aI18412256
aa(lp968
I54280
aI34
aI18412317
aa(lp969
I54279
aI208
aI18412326
aa(lp970
I54273
aI2
aI18412484
aa(lp971
I54276
aI64
aI18412498
aa(lp972
I65533
aI0
aI18412532
aa(lp973
I54288
aI226
aI18412716
aa(lp974
I54287
aI6
aI18412807
aa(lp975
I54286
aI133
aI18412816
aa(lp976
I54280
aI2
aI18413015
aa(lp977
I54283
aI128
aI18413029
aa(lp978
I54280
aI34
aI18413090
aa(lp979
I54279
aI208
aI18413099
aa(lp980
I54273
aI1
aI18413298
aa(lp981
I54276
aI64
aI18413312
aa(lp982
I65533
aI0
aI18413346
aa(lp983
I54288
aI227
aI18413488
aa(lp984
I54287
aI3
aI18413573
aa(lp985
I54286
aI66
aI18413582
aa(lp986
I54280
aI1
aI18413740
aa(lp987
I54283
aI128
aI18413754
aa(lp988
I54280
aI17
aI18413809
aa(lp989
I54279
aI104
aI18413818
aa(lp990
I65533
aI0
aI18413970
aa(lp991
I54288
aI228
aI18414112
aa(lp992
I54287
aI3
aI18414197
aa(lp993
I54286
aI66
aI18414206
aa(lp994
I54280
aI17
aI18414379
aa(lp995
I54279
aI104
aI18414388
aa(lp996
I65533
aI0
aI18414540
aa(lp997
I54288
aI229
aI18414724
aa(lp998
I54287
aI3
aI18414809
aa(lp999
I54286
aI66
aI18414818
aa(lp1000
I54280
aI17
aI18415032
aa(lp1001
I54279
aI104
aI18415041
aa(lp1002
I54276
aI64
aI18415123
aa(lp1003
I54277
aI0
aI18415130
aa(lp1004
I54278
aI0
aI18415135
aa(lp1005
I65533
aI0
aI18415256
aa(lp1006
I54288
aI230
aI18415398
aa(lp1007
I54287
aI3
aI18415483
aa(lp1008
I54286
aI66
aI18415492
aa(lp1009
I54280
aI17
aI18415665
aa(lp1010
I54279
aI104
aI18415674
aa(lp1011
I65533
aI0
aI18415826
aa(lp1012
I54288
aI231
aI18415968
aa(lp1013
I54287
aI6
aI18416059
aa(lp1014
I54286
aI133
aI18416068
aa(lp1015
I54280
aI34
aI18416247
aa(lp1016
I54279
aI208
aI18416256
aa(lp1017
I65533
aI0
aI18416408
aa(lp1018
I54288
aI232
aI18416592
aa(lp1019
I54287
aI6
aI18416683
aa(lp1020
I54286
aI133
aI18416692
aa(lp1021
I54280
aI34
aI18416912
aa(lp1022
I54279
aI208
aI18416921
aa(lp1023
I54296
aI15
aI18417063
aa(lp1024
I54273
aI16
aI18417119
aa(lp1025
I54272
aI110
aI18417133
aa(lp1026
I54276
aI65
aI18417182
aa(lp1027
I54274
aI0
aI18417191
aa(lp1028
I54275
aI8
aI18417200
aa(lp1029
I54277
aI10
aI18417209
aa(lp1030
I54278
aI10
aI18417218
aa(lp1031
I65533
aI0
aI18417271
aa(lp1032
I54288
aI233
aI18417413
aa(lp1033
I54287
aI6
aI18417504
aa(lp1034
I54286
aI133
aI18417513
aa(lp1035
I54280
aI34
aI18417692
aa(lp1036
I54279
aI208
aI18417701
aa(lp1037
I54273
aI16
aI18417853
aa(lp1038
I54276
aI128
aI18417860
aa(lp1039
I65533
aI0
aI18417894
aa(lp1040
I54288
aI234
aI18418036
aa(lp1041
I54287
aI6
aI18418127
aa(lp1042
I54286
aI133
aI18418136
aa(lp1043
I54280
aI34
aI18418315
aa(lp1044
I54279
aI208
aI18418324
aa(lp1045
I54273
aI16
aI18418476
aa(lp1046
I54276
aI128
aI18418483
aa(lp1047
I65533
aI0
aI18418517
aa(lp1048
I54288
aI235
aI18418701
aa(lp1049
I54287
aI3
aI18418786
aa(lp1050
I54286
aI66
aI18418795
aa(lp1051
I54280
aI17
aI18419009
aa(lp1052
I54279
aI104
aI18419018
aa(lp1053
I54273
aI16
aI18419217
aa(lp1054
I54276
aI64
aI18419231
aa(lp1055
I65533
aI0
aI18419265
aa(lp1056
I54288
aI236
aI18419407
aa(lp1057
I54287
aI3
aI18419492
aa(lp1058
I54286
aI66
aI18419501
aa(lp1059
I54280
aI17
aI18419674
aa(lp1060
I54279
aI104
aI18419683
aa(lp1061
I54273
aI15
aI18419841
aa(lp1062
I54276
aI64
aI18419855
aa(lp1063
I65533
aI0
aI18419889
aa(lp1064
I54288
aI237
aI18420031
aa(lp1065
I54287
aI3
aI18420116
aa(lp1066
I54286
aI66
aI18420125
aa(lp1067
I54280
aI17
aI18420298
aa(lp1068
I54279
aI104
aI18420307
aa(lp1069
I54273
aI14
aI18420465
aa(lp1070
I54276
aI64
aI18420479
aa(lp1071
I65533
aI0
aI18420513
aa(lp1072
I54288
aI238
aI18420697
aa(lp1073
I54287
aI3
aI18420782
aa(lp1074
I54286
aI66
aI18420791
aa(lp1075
I54280
aI17
aI18421005
aa(lp1076
I54279
aI104
aI18421014
aa(lp1077
I54273
aI13
aI18421213
aa(lp1078
I54276
aI64
aI18421227
aa(lp1079
I65533
aI0
aI18421261
aa(lp1080
I54288
aI239
aI18421403
aa(lp1081
I54287
aI6
aI18421494
aa(lp1082
I54286
aI133
aI18421503
aa(lp1083
I54280
aI34
aI18421682
aa(lp1084
I54279
aI208
aI18421691
aa(lp1085
I54273
aI12
aI18421849
aa(lp1086
I54276
aI64
aI18421863
aa(lp1087
I65533
aI0
aI18421897
aa(lp1088
I54288
aI240
aI18422039
aa(lp1089
I54287
aI6
aI18422130
aa(lp1090
I54286
aI133
aI18422139
aa(lp1091
I54280
aI34
aI18422318
aa(lp1092
I54279
aI208
aI18422327
aa(lp1093
I54273
aI11
aI18422485
aa(lp1094
I54276
aI64
aI18422499
aa(lp1095
I65533
aI0
aI18422533
aa(lp1096
I54288
aI241
aI18422717
aa(lp1097
I54287
aI6
aI18422808
aa(lp1098
I54286
aI133
aI18422817
aa(lp1099
I54280
aI34
aI18423037
aa(lp1100
I54279
aI208
aI18423046
aa(lp1101
I54273
aI10
aI18423245
aa(lp1102
I54276
aI64
aI18423259
aa(lp1103
I65533
aI0
aI18423293
aa(lp1104
I54288
aI242
aI18423435
aa(lp1105
I54287
aI6
aI18423526
aa(lp1106
I54286
aI133
aI18423535
aa(lp1107
I54280
aI34
aI18423714
aa(lp1108
I54279
aI208
aI18423723
aa(lp1109
I54273
aI9
aI18423881
aa(lp1110
I54276
aI64
aI18423895
aa(lp1111
I65533
aI0
aI18423929
aa(lp1112
I54288
aI243
aI18424071
aa(lp1113
I54287
aI3
aI18424156
aa(lp1114
I54286
aI66
aI18424165
aa(lp1115
I54280
aI17
aI18424338
aa(lp1116
I54279
aI104
aI18424347
aa(lp1117
I54273
aI8
aI18424505
aa(lp1118
I54276
aI64
aI18424519
aa(lp1119
I65533
aI0
aI18424553
aa(lp1120
I54288
aI244
aI18424737
aa(lp1121
I54287
aI3
aI18424822
aa(lp1122
I54286
aI66
aI18424831
aa(lp1123
I54280
aI17
aI18425045
aa(lp1124
I54279
aI104
aI18425054
aa(lp1125
I54273
aI7
aI18425253
aa(lp1126
I54276
aI64
aI18425267
aa(lp1127
I65533
aI0
aI18425301
aa(lp1128
I54288
aI245
aI18425443
aa(lp1129
I54287
aI3
aI18425528
aa(lp1130
I54286
aI66
aI18425537
aa(lp1131
I54280
aI17
aI18425710
aa(lp1132
I54279
aI104
aI18425719
aa(lp1133
I54273
aI6
aI18425877
aa(lp1134
I54276
aI64
aI18425891
aa(lp1135
I65533
aI0
aI18425925
aa(lp1136
I54288
aI246
aI18426067
aa(lp1137
I54287
aI3
aI18426152
aa(lp1138
I54286
aI66
aI18426161
aa(lp1139
I54280
aI17
aI18426334
aa(lp1140
I54279
aI104
aI18426343
aa(lp1141
I54273
aI5
aI18426501
aa(lp1142
I54276
aI64
aI18426515
aa(lp1143
I65533
aI0
aI18426549
aa(lp1144
I54288
aI247
aI18426733
aa(lp1145
I54287
aI6
aI18426824
aa(lp1146
I54286
aI133
aI18426833
aa(lp1147
I54280
aI34
aI18427053
aa(lp1148
I54279
aI208
aI18427062
aa(lp1149
I54273
aI4
aI18427261
aa(lp1150
I54276
aI64
aI18427275
aa(lp1151
I65533
aI0
aI18427309
aa(lp1152
I54288
aI248
aI18427451
aa(lp1153
I54287
aI6
aI18427542
aa(lp1154
I54286
aI133
aI18427551
aa(lp1155
I54280
aI34
aI18427730
aa(lp1156
I54279
aI208
aI18427739
aa(lp1157
I54273
aI3
aI18427897
aa(lp1158
I54276
aI64
aI18427911
aa(lp1159
I65533
aI0
aI18427945
aa(lp1160
I54288
aI249
aI18428087
aa(lp1161
I54287
aI6
aI18428178
aa(lp1162
I54286
aI133
aI18428187
aa(lp1163
I54280
aI34
aI18428366
aa(lp1164
I54279
aI208
aI18428375
aa(lp1165
I54273
aI2
aI18428533
aa(lp1166
I54276
aI64
aI18428547
aa(lp1167
I65533
aI0
aI18428581
aa(lp1168
I54288
aI250
aI18428765
aa(lp1169
I54287
aI6
aI18428856
aa(lp1170
I54286
aI133
aI18428865
aa(lp1171
I54280
aI34
aI18429085
aa(lp1172
I54279
aI208
aI18429094
aa(lp1173
I54273
aI1
aI18429293
aa(lp1174
I54276
aI64
aI18429307
aa(lp1175
I65533
aI0
aI18429341
aa(lp1176
I54288
aI251
aI18429483
aa(lp1177
I54287
aI3
aI18429568
aa(lp1178
I54286
aI66
aI18429577
aa(lp1179
I54280
aI17
aI18429750
aa(lp1180
I54279
aI104
aI18429759
aa(lp1181
I65533
aI0
aI18429911
aa(lp1182
I54288
aI252
aI18430053
aa(lp1183
I54287
aI3
aI18430138
aa(lp1184
I54286
aI66
aI18430147
aa(lp1185
I54280
aI17
aI18430320
aa(lp1186
I54279
aI104
aI18430329
aa(lp1187
I65533
aI0
aI18430481
aa(lp1188
I54288
aI253
aI18430665
aa(lp1189
I54287
aI3
aI18430750
aa(lp1190
I54286
aI66
aI18430759
aa(lp1191
I54283
aI128
aI18430841
aa(lp1192
I54284
aI0
aI18430848
aa(lp1193
I54285
aI0
aI18430853
aa(lp1194
I54280
aI17
aI18430995
aa(lp1195
I54279
aI104
aI18431004
aa(lp1196
I54276
aI64
aI18431086
aa(lp1197
I54277
aI0
aI18431093
aa(lp1198
I54278
aI0
aI18431098
aa(lp1199
I65533
aI0
aI18431219
aa(lp1200
I54288
aI254
aI18431361
aa(lp1201
I54287
aI3
aI18431446
aa(lp1202
I54286
aI66
aI18431455
aa(lp1203
I54280
aI17
aI18431628
aa(lp1204
I54279
aI104
aI18431637
aa(lp1205
I65533
aI0
aI18431789
aa(lp1206
I54288
aI255
aI18431931
aa(lp1207
I54287
aI6
aI18432022
aa(lp1208
I54286
aI133
aI18432031
aa(lp1209
I54280
aI34
aI18432210
aa(lp1210
I54279
aI208
aI18432219
aa(lp1211
I65533
aI0
aI18432371
aa(lp1212
I54296
aI15
aI18432553
aa(lp1213
I54287
aI3
aI18432609
aa(lp1214
I54286
aI66
aI18432623
aa(lp1215
I54290
aI65
aI18432672
aa(lp1216
I54288
aI255
aI18432681
aa(lp1217
I54289
aI1
aI18432690
aa(lp1218
I54291
aI12
aI18432699
aa(lp1219
I54292
aI205
aI18432708
aa(lp1220
I54296
aI15
aI18432900
aa(lp1221
I54280
aI43
aI18432979
aa(lp1222
I54279
aI214
aI18432993
aa(lp1223
I54283
aI129
aI18433042
aa(lp1224
I54281
aI128
aI18433051
aa(lp1225
I54282
aI8
aI18433060
aa(lp1226
I54284
aI9
aI18433069
aa(lp1227
I54285
aI10
aI18433078
aa(lp1228
I54296
aI15
aI18433257
aa(lp1229
I54273
aI104
aI18433336
aa(lp1230
I54272
aI76
aI18433350
aa(lp1231
I54276
aI21
aI18433399
aa(lp1232
I54274
aI128
aI18433408
aa(lp1233
I54275
aI1
aI18433417
aa(lp1234
I54277
aI10
aI18433426
aa(lp1235
I54278
aI12
aI18433435
aa(lp1236
I65533
aI0
aI18433488
aa(lp1237
I54288
aI0
aI18433630
aa(lp1238
I54287
aI3
aI18433694
aa(lp1239
I54290
aI128
aI18433701
aa(lp1240
I54287
aI6
aI18433762
aa(lp1241
I54286
aI133
aI18433771
aa(lp1242
I54279
aI36
aI18434041
aa(lp1243
I54280
aI45
aI18434050
aa(lp1244
I54280
aI43
aI18434127
aa(lp1245
I54283
aI128
aI18434134
aa(lp1246
I54280
aI87
aI18434197
aa(lp1247
I54279
aI172
aI18434206
aa(lp1248
I54272
aI76
aI18434402
aa(lp1249
I54273
aI104
aI18434411
aa(lp1250
I54273
aI104
aI18434488
aa(lp1251
I54276
aI128
aI18434495
aa(lp1252
I54273
aI208
aI18434558
aa(lp1253
I54272
aI152
aI18434567
aa(lp1254
I65533
aI0
aI18434583
aa(lp1255
I54288
aI1
aI18434725
aa(lp1256
I54287
aI3
aI18434789
aa(lp1257
I54290
aI128
aI18434796
aa(lp1258
I54287
aI6
aI18434857
aa(lp1259
I54286
aI133
aI18434866
aa(lp1260
I54279
aI203
aI18435169
aa(lp1261
I54280
aI45
aI18435178
aa(lp1262
I54280
aI43
aI18435255
aa(lp1263
I54283
aI128
aI18435262
aa(lp1264
I54280
aI87
aI18435325
aa(lp1265
I54279
aI172
aI18435334
aa(lp1266
I54272
aI76
aI18435530
aa(lp1267
I54273
aI104
aI18435539
aa(lp1268
I54273
aI104
aI18435616
aa(lp1269
I54276
aI128
aI18435623
aa(lp1270
I54273
aI208
aI18435686
aa(lp1271
I54272
aI152
aI18435695
aa(lp1272
I65533
aI0
aI18435711
aa(lp1273
I54288
aI2
aI18435901
aa(lp1274
I54287
aI3
aI18435971
aa(lp1275
I54290
aI64
aI18435985
aa(lp1276
I54287
aI3
aI18436040
aa(lp1277
I54286
aI66
aI18436049
aa(lp1278
I54279
aI203
aI18436394
aa(lp1279
I54280
aI45
aI18436403
aa(lp1280
I54280
aI43
aI18436486
aa(lp1281
I54283
aI128
aI18436500
aa(lp1282
I54280
aI43
aI18436557
aa(lp1283
I54279
aI214
aI18436566
aa(lp1284
I54272
aI76
aI18436804
aa(lp1285
I54273
aI104
aI18436813
aa(lp1286
I54273
aI104
aI18436896
aa(lp1287
I54276
aI20
aI18436910
aa(lp1288
I54273
aI104
aI18436967
aa(lp1289
I54272
aI76
aI18436976
aa(lp1290
I65533
aI0
aI18436992
aa(lp1291
I54288
aI3
aI18437134
aa(lp1292
I54287
aI2
aI18437204
aa(lp1293
I54290
aI64
aI18437218
aa(lp1294
I54287
aI3
aI18437273
aa(lp1295
I54286
aI66
aI18437282
aa(lp1296
I54279
aI36
aI18437553
aa(lp1297
I54280
aI45
aI18437562
aa(lp1298
I54280
aI42
aI18437645
aa(lp1299
I54283
aI128
aI18437659
aa(lp1300
I54280
aI43
aI18437716
aa(lp1301
I54279
aI214
aI18437725
aa(lp1302
I54272
aI76
aI18437922
aa(lp1303
I54273
aI104
aI18437931
aa(lp1304
I54273
aI103
aI18438014
aa(lp1305
I54276
aI20
aI18438028
aa(lp1306
I54273
aI104
aI18438085
aa(lp1307
I54272
aI76
aI18438094
aa(lp1308
I65533
aI0
aI18438110
aa(lp1309
I54288
aI4
aI18438252
aa(lp1310
I54287
aI1
aI18438322
aa(lp1311
I54290
aI64
aI18438336
aa(lp1312
I54287
aI3
aI18438391
aa(lp1313
I54286
aI66
aI18438400
aa(lp1314
I54279
aI125
aI18438638
aa(lp1315
I54280
aI44
aI18438647
aa(lp1316
I54280
aI41
aI18438730
aa(lp1317
I54283
aI128
aI18438744
aa(lp1318
I54280
aI43
aI18438801
aa(lp1319
I54279
aI214
aI18438810
aa(lp1320
I54272
aI76
aI18439007
aa(lp1321
I54273
aI104
aI18439016
aa(lp1322
I54273
aI102
aI18439099
aa(lp1323
I54276
aI20
aI18439113
aa(lp1324
I54273
aI104
aI18439170
aa(lp1325
I54272
aI76
aI18439179
aa(lp1326
I65533
aI0
aI18439195
aa(lp1327
I54288
aI5
aI18439385
aa(lp1328
I54287
aI3
aI18439470
aa(lp1329
I54286
aI66
aI18439479
aa(lp1330
I54279
aI214
aI18439725
aa(lp1331
I54280
aI43
aI18439734
aa(lp1332
I54280
aI40
aI18439817
aa(lp1333
I54283
aI128
aI18439831
aa(lp1334
I54280
aI43
aI18439888
aa(lp1335
I54279
aI214
aI18439897
aa(lp1336
I54272
aI76
aI18440135
aa(lp1337
I54273
aI104
aI18440144
aa(lp1338
I54273
aI101
aI18440227
aa(lp1339
I54276
aI20
aI18440241
aa(lp1340
I54273
aI104
aI18440298
aa(lp1341
I54272
aI76
aI18440307
aa(lp1342
I65533
aI0
aI18440323
aa(lp1343
I54288
aI6
aI18440465
aa(lp1344
I54287
aI6
aI18440556
aa(lp1345
I54286
aI133
aI18440565
aa(lp1346
I54279
aI214
aI18440769
aa(lp1347
I54280
aI43
aI18440778
aa(lp1348
I54280
aI39
aI18440861
aa(lp1349
I54283
aI128
aI18440875
aa(lp1350
I54280
aI87
aI18440938
aa(lp1351
I54279
aI172
aI18440947
aa(lp1352
I54272
aI76
aI18441143
aa(lp1353
I54273
aI104
aI18441152
aa(lp1354
I54273
aI100
aI18441235
aa(lp1355
I54276
aI20
aI18441249
aa(lp1356
I54273
aI208
aI18441312
aa(lp1357
I54272
aI152
aI18441321
aa(lp1358
I65533
aI0
aI18441337
aa(lp1359
I54288
aI7
aI18441479
aa(lp1360
I54287
aI6
aI18441570
aa(lp1361
I54286
aI133
aI18441579
aa(lp1362
I54279
aI125
aI18441816
aa(lp1363
I54280
aI44
aI18441825
aa(lp1364
I54280
aI38
aI18441908
aa(lp1365
I54283
aI128
aI18441922
aa(lp1366
I54280
aI87
aI18441985
aa(lp1367
I54279
aI172
aI18441994
aa(lp1368
I54272
aI76
aI18442190
aa(lp1369
I54273
aI104
aI18442199
aa(lp1370
I54273
aI99
aI18442282
aa(lp1371
I54276
aI20
aI18442296
aa(lp1372
I54273
aI208
aI18442359
aa(lp1373
I54272
aI152
aI18442368
aa(lp1374
I65533
aI0
aI18442384
aa(lp1375
I54288
aI8
aI18442574
aa(lp1376
I54287
aI6
aI18442665
aa(lp1377
I54286
aI133
aI18442674
aa(lp1378
I54279
aI36
aI18442985
aa(lp1379
I54280
aI45
aI18442994
aa(lp1380
I54280
aI37
aI18443077
aa(lp1381
I54283
aI128
aI18443091
aa(lp1382
I54280
aI87
aI18443154
aa(lp1383
I54279
aI172
aI18443163
aa(lp1384
I54272
aI76
aI18443400
aa(lp1385
I54273
aI104
aI18443409
aa(lp1386
I54273
aI98
aI18443492
aa(lp1387
I54276
aI20
aI18443506
aa(lp1388
I54273
aI208
aI18443569
aa(lp1389
I54272
aI152
aI18443578
aa(lp1390
I65533
aI0
aI18443594
aa(lp1391
I54288
aI9
aI18443736
aa(lp1392
I54287
aI6
aI18443827
aa(lp1393
I54286
aI133
aI18443836
aa(lp1394
I54279
aI203
aI18444139
aa(lp1395
I54280
aI45
aI18444148
aa(lp1396
I54280
aI36
aI18444231
aa(lp1397
I54283
aI128
aI18444245
aa(lp1398
I54280
aI87
aI18444308
aa(lp1399
I54279
aI172
aI18444317
aa(lp1400
I54272
aI76
aI18444513
aa(lp1401
I54273
aI104
aI18444522
aa(lp1402
I54273
aI97
aI18444605
aa(lp1403
I54276
aI20
aI18444619
aa(lp1404
I54273
aI208
aI18444682
aa(lp1405
I54272
aI152
aI18444691
aa(lp1406
I65533
aI0
aI18444707
aa(lp1407
I54288
aI10
aI18444849
aa(lp1408
I54287
aI3
aI18444934
aa(lp1409
I54286
aI66
aI18444943
aa(lp1410
I54279
aI203
aI18445247
aa(lp1411
I54280
aI45
aI18445256
aa(lp1412
I54280
aI35
aI18445339
aa(lp1413
I54283
aI128
aI18445353
aa(lp1414
I54280
aI43
aI18445410
aa(lp1415
I54279
aI214
aI18445419
aa(lp1416
I54272
aI76
aI18445616
aa(lp1417
I54273
aI104
aI18445625
aa(lp1418
I54273
aI96
aI18445708
aa(lp1419
I54276
aI20
aI18445722
aa(lp1420
I54273
aI104
aI18445779
aa(lp1421
I54272
aI76
aI18445788
aa(lp1422
I65533
aI0
aI18445804
aa(lp1423
I54288
aI11
aI18445994
aa(lp1424
I54287
aI3
aI18446079
aa(lp1425
I54286
aI66
aI18446088
aa(lp1426
I54279
aI36
aI18446400
aa(lp1427
I54280
aI45
aI18446409
aa(lp1428
I54280
aI34
aI18446492
aa(lp1429
I54283
aI128
aI18446506
aa(lp1430
I54280
aI43
aI18446563
aa(lp1431
I54279
aI214
aI18446572
aa(lp1432
I54272
aI76
aI18446810
aa(lp1433
I54273
aI104
aI18446819
aa(lp1434
I54273
aI95
aI18446902
aa(lp1435
I54276
aI20
aI18446916
aa(lp1436
I54273
aI104
aI18446973
aa(lp1437
I54272
aI76
aI18446982
aa(lp1438
I65533
aI0
aI18446998
aa(lp1439
I54288
aI12
aI18447140
aa(lp1440
I54287
aI3
aI18447225
aa(lp1441
I54286
aI66
aI18447234
aa(lp1442
I54279
aI125
aI18447472
aa(lp1443
I54280
aI44
aI18447481
aa(lp1444
I54280
aI33
aI18447564
aa(lp1445
I54283
aI128
aI18447578
aa(lp1446
I54280
aI43
aI18447635
aa(lp1447
I54279
aI214
aI18447644
aa(lp1448
I54272
aI76
aI18447841
aa(lp1449
I54273
aI104
aI18447850
aa(lp1450
I54273
aI94
aI18447933
aa(lp1451
I54276
aI20
aI18447947
aa(lp1452
I54273
aI104
aI18448004
aa(lp1453
I54272
aI76
aI18448013
aa(lp1454
I65533
aI0
aI18448029
aa(lp1455
I54288
aI13
aI18448171
aa(lp1456
I54287
aI3
aI18448256
aa(lp1457
I54286
aI66
aI18448265
aa(lp1458
I54279
aI214
aI18448470
aa(lp1459
I54280
aI43
aI18448479
aa(lp1460
I54280
aI32
aI18448562
aa(lp1461
I54283
aI128
aI18448576
aa(lp1462
I54280
aI43
aI18448633
aa(lp1463
I54279
aI214
aI18448642
aa(lp1464
I54272
aI76
aI18448839
aa(lp1465
I54273
aI104
aI18448848
aa(lp1466
I54273
aI93
aI18448931
aa(lp1467
I54276
aI20
aI18448945
aa(lp1468
I54273
aI104
aI18449002
aa(lp1469
I54272
aI76
aI18449011
aa(lp1470
I65533
aI0
aI18449027
aa(lp1471
I54288
aI14
aI18449217
aa(lp1472
I54287
aI6
aI18449308
aa(lp1473
I54286
aI133
aI18449317
aa(lp1474
I54279
aI214
aI18449562
aa(lp1475
I54280
aI43
aI18449571
aa(lp1476
I54280
aI31
aI18449654
aa(lp1477
I54283
aI128
aI18449668
aa(lp1478
I54280
aI87
aI18449731
aa(lp1479
I54279
aI172
aI18449740
aa(lp1480
I54272
aI76
aI18449977
aa(lp1481
I54273
aI104
aI18449986
aa(lp1482
I54273
aI92
aI18450069
aa(lp1483
I54276
aI20
aI18450083
aa(lp1484
I54273
aI208
aI18450146
aa(lp1485
I54272
aI152
aI18450155
aa(lp1486
I65533
aI0
aI18450171
aa(lp1487
I54288
aI15
aI18450313
aa(lp1488
I54287
aI6
aI18450404
aa(lp1489
I54286
aI133
aI18450413
aa(lp1490
I54279
aI125
aI18450650
aa(lp1491
I54280
aI44
aI18450659
aa(lp1492
I54280
aI30
aI18450742
aa(lp1493
I54283
aI128
aI18450756
aa(lp1494
I54280
aI87
aI18450819
aa(lp1495
I54279
aI172
aI18450828
aa(lp1496
I54272
aI76
aI18451024
aa(lp1497
I54273
aI104
aI18451033
aa(lp1498
I54273
aI91
aI18451116
aa(lp1499
I54276
aI20
aI18451130
aa(lp1500
I54273
aI208
aI18451193
aa(lp1501
I54272
aI152
aI18451202
aa(lp1502
I65533
aI0
aI18451218
aa(lp1503
I54288
aI16
aI18451360
aa(lp1504
I54287
aI6
aI18451451
aa(lp1505
I54286
aI133
aI18451460
aa(lp1506
I54279
aI36
aI18451730
aa(lp1507
I54280
aI45
aI18451739
aa(lp1508
I54280
aI29
aI18451822
aa(lp1509
I54283
aI128
aI18451836
aa(lp1510
I54280
aI87
aI18451899
aa(lp1511
I54279
aI172
aI18451908
aa(lp1512
I54272
aI76
aI18452104
aa(lp1513
I54273
aI104
aI18452113
aa(lp1514
I54273
aI90
aI18452196
aa(lp1515
I54276
aI20
aI18452210
aa(lp1516
I54273
aI208
aI18452273
aa(lp1517
I54272
aI152
aI18452282
aa(lp1518
I65533
aI0
aI18452298
aa(lp1519
I54288
aI17
aI18452488
aa(lp1520
I54287
aI6
aI18452579
aa(lp1521
I54286
aI133
aI18452588
aa(lp1522
I54279
aI203
aI18452932
aa(lp1523
I54280
aI45
aI18452941
aa(lp1524
I54280
aI28
aI18453024
aa(lp1525
I54283
aI128
aI18453038
aa(lp1526
I54280
aI87
aI18453101
aa(lp1527
I54279
aI172
aI18453110
aa(lp1528
I54272
aI76
aI18453347
aa(lp1529
I54273
aI104
aI18453356
aa(lp1530
I54273
aI89
aI18453439
aa(lp1531
I54276
aI20
aI18453453
aa(lp1532
I54273
aI208
aI18453516
aa(lp1533
I54272
aI152
aI18453525
aa(lp1534
I65533
aI0
aI18453541
aa(lp1535
I54288
aI18
aI18453683
aa(lp1536
I54287
aI3
aI18453768
aa(lp1537
I54286
aI66
aI18453777
aa(lp1538
I54279
aI203
aI18454081
aa(lp1539
I54280
aI45
aI18454090
aa(lp1540
I54280
aI27
aI18454173
aa(lp1541
I54283
aI128
aI18454187
aa(lp1542
I54280
aI43
aI18454244
aa(lp1543
I54279
aI214
aI18454253
aa(lp1544
I54272
aI76
aI18454450
aa(lp1545
I54273
aI104
aI18454459
aa(lp1546
I54273
aI88
aI18454542
aa(lp1547
I54276
aI20
aI18454556
aa(lp1548
I54273
aI104
aI18454613
aa(lp1549
I54272
aI76
aI18454622
aa(lp1550
I65533
aI0
aI18454638
aa(lp1551
I54288
aI19
aI18454780
aa(lp1552
I54287
aI3
aI18454865
aa(lp1553
I54286
aI66
aI18454874
aa(lp1554
I54279
aI36
aI18455145
aa(lp1555
I54280
aI45
aI18455154
aa(lp1556
I54280
aI26
aI18455237
aa(lp1557
I54283
aI128
aI18455251
aa(lp1558
I54280
aI43
aI18455308
aa(lp1559
I54279
aI214
aI18455317
aa(lp1560
I54272
aI76
aI18455514
aa(lp1561
I54273
aI104
aI18455523
aa(lp1562
I54273
aI87
aI18455606
aa(lp1563
I54276
aI20
aI18455620
aa(lp1564
I54273
aI104
aI18455677
aa(lp1565
I54272
aI76
aI18455686
aa(lp1566
I65533
aI0
aI18455702
aa(lp1567
I54288
aI20
aI18455892
aa(lp1568
I54287
aI3
aI18455977
aa(lp1569
I54286
aI66
aI18455986
aa(lp1570
I54279
aI125
aI18456265
aa(lp1571
I54280
aI44
aI18456274
aa(lp1572
I54280
aI25
aI18456357
aa(lp1573
I54283
aI128
aI18456371
aa(lp1574
I54280
aI43
aI18456428
aa(lp1575
I54279
aI214
aI18456437
aa(lp1576
I54276
aI20
aI18456519
aa(lp1577
I54277
aI0
aI18456526
aa(lp1578
I54278
aI0
aI18456531
aa(lp1579
I54272
aI76
aI18456697
aa(lp1580
I54273
aI104
aI18456706
aa(lp1581
I54273
aI104
aI18456812
aa(lp1582
I54272
aI76
aI18456821
aa(lp1583
I65533
aI0
aI18456837
aa(lp1584
I54288
aI21
aI18456979
aa(lp1585
I54287
aI3
aI18457064
aa(lp1586
I54286
aI66
aI18457073
aa(lp1587
I54279
aI214
aI18457278
aa(lp1588
I54280
aI43
aI18457287
aa(lp1589
I54280
aI24
aI18457370
aa(lp1590
I54283
aI128
aI18457384
aa(lp1591
I54280
aI43
aI18457441
aa(lp1592
I54279
aI214
aI18457450
aa(lp1593
I54272
aI76
aI18457647
aa(lp1594
I54273
aI104
aI18457656
aa(lp1595
I54273
aI104
aI18457762
aa(lp1596
I54272
aI76
aI18457771
aa(lp1597
I65533
aI0
aI18457787
aa(lp1598
I54288
aI22
aI18457929
aa(lp1599
I54287
aI6
aI18458020
aa(lp1600
I54286
aI133
aI18458029
aa(lp1601
I54279
aI214
aI18458233
aa(lp1602
I54280
aI43
aI18458242
aa(lp1603
I54280
aI23
aI18458325
aa(lp1604
I54283
aI128
aI18458339
aa(lp1605
I54280
aI87
aI18458402
aa(lp1606
I54279
aI172
aI18458411
aa(lp1607
I54272
aI76
aI18458607
aa(lp1608
I54273
aI104
aI18458616
aa(lp1609
I54273
aI208
aI18458728
aa(lp1610
I54272
aI152
aI18458737
aa(lp1611
I65533
aI0
aI18458753
aa(lp1612
I54288
aI23
aI18458943
aa(lp1613
I54287
aI6
aI18459034
aa(lp1614
I54286
aI133
aI18459043
aa(lp1615
I54279
aI125
aI18459321
aa(lp1616
I54280
aI44
aI18459330
aa(lp1617
I54280
aI22
aI18459413
aa(lp1618
I54283
aI128
aI18459427
aa(lp1619
I54280
aI87
aI18459490
aa(lp1620
I54279
aI172
aI18459499
aa(lp1621
I54296
aI15
aI18459641
aa(lp1622
I54273
aI52
aI18459699
aa(lp1623
I54272
aI38
aI18459713
aa(lp1624
I54276
aI21
aI18459762
aa(lp1625
I54274
aI128
aI18459771
aa(lp1626
I54275
aI1
aI18459780
aa(lp1627
I54277
aI10
aI18459789
aa(lp1628
I54278
aI12
aI18459798
aa(lp1629
I65533
aI0
aI18459851
aa(lp1630
I54288
aI24
aI18459993
aa(lp1631
I54287
aI6
aI18460084
aa(lp1632
I54286
aI133
aI18460093
aa(lp1633
I54279
aI36
aI18460363
aa(lp1634
I54280
aI45
aI18460372
aa(lp1635
I54280
aI21
aI18460455
aa(lp1636
I54283
aI128
aI18460469
aa(lp1637
I54280
aI87
aI18460532
aa(lp1638
I54279
aI172
aI18460541
aa(lp1639
I54272
aI38
aI18460737
aa(lp1640
I54273
aI52
aI18460746
aa(lp1641
I54273
aI52
aI18460823
aa(lp1642
I54276
aI128
aI18460830
aa(lp1643
I54273
aI104
aI18460893
aa(lp1644
I54272
aI76
aI18460902
aa(lp1645
I65533
aI0
aI18460918
aa(lp1646
I54288
aI25
aI18461060
aa(lp1647
I54287
aI6
aI18461151
aa(lp1648
I54286
aI133
aI18461160
aa(lp1649
I54279
aI203
aI18461463
aa(lp1650
I54280
aI45
aI18461472
aa(lp1651
I54280
aI20
aI18461555
aa(lp1652
I54283
aI128
aI18461569
aa(lp1653
I54280
aI87
aI18461632
aa(lp1654
I54279
aI172
aI18461641
aa(lp1655
I54272
aI38
aI18461837
aa(lp1656
I54273
aI52
aI18461846
aa(lp1657
I54273
aI52
aI18461923
aa(lp1658
I54276
aI128
aI18461930
aa(lp1659
I54273
aI104
aI18461993
aa(lp1660
I54272
aI76
aI18462002
aa(lp1661
I65533
aI0
aI18462018
aa(lp1662
I54288
aI26
aI18462208
aa(lp1663
I54287
aI3
aI18462293
aa(lp1664
I54286
aI66
aI18462302
aa(lp1665
I54279
aI203
aI18462647
aa(lp1666
I54280
aI45
aI18462656
aa(lp1667
I54280
aI19
aI18462739
aa(lp1668
I54283
aI128
aI18462753
aa(lp1669
I54280
aI43
aI18462810
aa(lp1670
I54279
aI214
aI18462819
aa(lp1671
I54272
aI38
aI18463057
aa(lp1672
I54273
aI52
aI18463066
aa(lp1673
I54273
aI52
aI18463149
aa(lp1674
I54276
aI20
aI18463163
aa(lp1675
I54273
aI52
aI18463220
aa(lp1676
I54272
aI38
aI18463229
aa(lp1677
I65533
aI0
aI18463245
aa(lp1678
I54288
aI27
aI18463387
aa(lp1679
I54287
aI3
aI18463472
aa(lp1680
I54286
aI66
aI18463481
aa(lp1681
I54279
aI36
aI18463752
aa(lp1682
I54280
aI45
aI18463761
aa(lp1683
I54280
aI18
aI18463844
aa(lp1684
I54283
aI128
aI18463858
aa(lp1685
I54280
aI43
aI18463915
aa(lp1686
I54279
aI214
aI18463924
aa(lp1687
I54272
aI38
aI18464121
aa(lp1688
I54273
aI52
aI18464130
aa(lp1689
I54273
aI51
aI18464213
aa(lp1690
I54276
aI20
aI18464227
aa(lp1691
I54273
aI52
aI18464284
aa(lp1692
I54272
aI38
aI18464293
aa(lp1693
I65533
aI0
aI18464309
aa(lp1694
I54288
aI28
aI18464451
aa(lp1695
I54287
aI3
aI18464536
aa(lp1696
I54286
aI66
aI18464545
aa(lp1697
I54279
aI125
aI18464783
aa(lp1698
I54280
aI44
aI18464792
aa(lp1699
I54280
aI17
aI18464875
aa(lp1700
I54283
aI128
aI18464889
aa(lp1701
I54280
aI43
aI18464946
aa(lp1702
I54279
aI214
aI18464955
aa(lp1703
I54272
aI38
aI18465152
aa(lp1704
I54273
aI52
aI18465161
aa(lp1705
I54273
aI50
aI18465244
aa(lp1706
I54276
aI20
aI18465258
aa(lp1707
I54273
aI52
aI18465315
aa(lp1708
I54272
aI38
aI18465324
aa(lp1709
I65533
aI0
aI18465340
aa(lp1710
I54288
aI29
aI18465530
aa(lp1711
I54287
aI3
aI18465615
aa(lp1712
I54286
aI66
aI18465624
aa(lp1713
I54279
aI214
aI18465870
aa(lp1714
I54280
aI43
aI18465879
aa(lp1715
I54280
aI16
aI18465962
aa(lp1716
I54283
aI128
aI18465976
aa(lp1717
I54280
aI43
aI18466033
aa(lp1718
I54279
aI214
aI18466042
aa(lp1719
I54272
aI38
aI18466280
aa(lp1720
I54273
aI52
aI18466289
aa(lp1721
I54273
aI49
aI18466372
aa(lp1722
I54276
aI20
aI18466386
aa(lp1723
I54273
aI52
aI18466443
aa(lp1724
I54272
aI38
aI18466452
aa(lp1725
I65533
aI0
aI18466468
aa(lp1726
I54288
aI30
aI18466610
aa(lp1727
I54287
aI6
aI18466701
aa(lp1728
I54286
aI133
aI18466710
aa(lp1729
I54279
aI214
aI18466914
aa(lp1730
I54280
aI43
aI18466923
aa(lp1731
I54280
aI15
aI18467006
aa(lp1732
I54283
aI128
aI18467020
aa(lp1733
I54280
aI87
aI18467083
aa(lp1734
I54279
aI172
aI18467092
aa(lp1735
I54272
aI38
aI18467288
aa(lp1736
I54273
aI52
aI18467297
aa(lp1737
I54273
aI48
aI18467380
aa(lp1738
I54276
aI20
aI18467394
aa(lp1739
I54273
aI104
aI18467457
aa(lp1740
I54272
aI76
aI18467466
aa(lp1741
I65533
aI0
aI18467482
aa(lp1742
I54288
aI31
aI18467624
aa(lp1743
I54287
aI6
aI18467715
aa(lp1744
I54286
aI133
aI18467724
aa(lp1745
I54279
aI125
aI18467961
aa(lp1746
I54280
aI44
aI18467970
aa(lp1747
I54280
aI14
aI18468053
aa(lp1748
I54283
aI128
aI18468067
aa(lp1749
I54280
aI87
aI18468130
aa(lp1750
I54279
aI172
aI18468139
aa(lp1751
I54272
aI38
aI18468335
aa(lp1752
I54273
aI52
aI18468344
aa(lp1753
I54273
aI47
aI18468427
aa(lp1754
I54276
aI20
aI18468441
aa(lp1755
I54273
aI104
aI18468504
aa(lp1756
I54272
aI76
aI18468513
aa(lp1757
I65533
aI0
aI18468529
aa(lp1758
I54288
aI32
aI18468719
aa(lp1759
I54287
aI6
aI18468810
aa(lp1760
I54286
aI133
aI18468819
aa(lp1761
I54279
aI36
aI18469130
aa(lp1762
I54280
aI45
aI18469139
aa(lp1763
I54280
aI13
aI18469222
aa(lp1764
I54283
aI128
aI18469236
aa(lp1765
I54280
aI87
aI18469299
aa(lp1766
I54279
aI172
aI18469308
aa(lp1767
I54272
aI38
aI18469545
aa(lp1768
I54273
aI52
aI18469554
aa(lp1769
I54273
aI46
aI18469637
aa(lp1770
I54276
aI20
aI18469651
aa(lp1771
I54273
aI104
aI18469714
aa(lp1772
I54272
aI76
aI18469723
aa(lp1773
I65533
aI0
aI18469739
aa(lp1774
I54288
aI33
aI18469881
aa(lp1775
I54287
aI6
aI18469972
aa(lp1776
I54286
aI133
aI18469981
aa(lp1777
I54279
aI203
aI18470284
aa(lp1778
I54280
aI45
aI18470293
aa(lp1779
I54280
aI12
aI18470376
aa(lp1780
I54283
aI128
aI18470390
aa(lp1781
I54280
aI87
aI18470453
aa(lp1782
I54279
aI172
aI18470462
aa(lp1783
I54272
aI38
aI18470658
aa(lp1784
I54273
aI52
aI18470667
aa(lp1785
I54273
aI45
aI18470750
aa(lp1786
I54276
aI20
aI18470764
aa(lp1787
I54273
aI104
aI18470827
aa(lp1788
I54272
aI76
aI18470836
aa(lp1789
I65533
aI0
aI18470852
aa(lp1790
I54288
aI34
aI18470994
aa(lp1791
I54287
aI3
aI18471079
aa(lp1792
I54286
aI66
aI18471088
aa(lp1793
I54279
aI203
aI18471392
aa(lp1794
I54280
aI45
aI18471401
aa(lp1795
I54280
aI11
aI18471484
aa(lp1796
I54283
aI128
aI18471498
aa(lp1797
I54280
aI43
aI18471555
aa(lp1798
I54279
aI214
aI18471564
aa(lp1799
I54272
aI38
aI18471761
aa(lp1800
I54273
aI52
aI18471770
aa(lp1801
I54273
aI44
aI18471853
aa(lp1802
I54276
aI20
aI18471867
aa(lp1803
I54273
aI52
aI18471924
aa(lp1804
I54272
aI38
aI18471933
aa(lp1805
I65533
aI0
aI18471949
aa(lp1806
I54288
aI35
aI18472139
aa(lp1807
I54287
aI3
aI18472224
aa(lp1808
I54286
aI66
aI18472233
aa(lp1809
I54279
aI36
aI18472545
aa(lp1810
I54280
aI45
aI18472554
aa(lp1811
I54280
aI10
aI18472637
aa(lp1812
I54283
aI128
aI18472651
aa(lp1813
I54280
aI43
aI18472708
aa(lp1814
I54279
aI214
aI18472717
aa(lp1815
I54272
aI38
aI18472955
aa(lp1816
I54273
aI52
aI18472964
aa(lp1817
I54273
aI43
aI18473047
aa(lp1818
I54276
aI20
aI18473061
aa(lp1819
I54273
aI52
aI18473118
aa(lp1820
I54272
aI38
aI18473127
aa(lp1821
I65533
aI0
aI18473143
aa(lp1822
I54288
aI36
aI18473285
aa(lp1823
I54287
aI3
aI18473370
aa(lp1824
I54286
aI66
aI18473379
aa(lp1825
I54279
aI125
aI18473617
aa(lp1826
I54280
aI44
aI18473626
aa(lp1827
I54280
aI9
aI18473709
aa(lp1828
I54283
aI128
aI18473723
aa(lp1829
I54280
aI43
aI18473780
aa(lp1830
I54279
aI214
aI18473789
aa(lp1831
I54272
aI38
aI18473986
aa(lp1832
I54273
aI52
aI18473995
aa(lp1833
I54273
aI42
aI18474078
aa(lp1834
I54276
aI20
aI18474092
aa(lp1835
I54273
aI52
aI18474149
aa(lp1836
I54272
aI38
aI18474158
aa(lp1837
I65533
aI0
aI18474174
aa(lp1838
I54288
aI37
aI18474316
aa(lp1839
I54287
aI3
aI18474401
aa(lp1840
I54286
aI66
aI18474410
aa(lp1841
I54279
aI214
aI18474615
aa(lp1842
I54280
aI43
aI18474624
aa(lp1843
I54280
aI8
aI18474707
aa(lp1844
I54283
aI128
aI18474721
aa(lp1845
I54280
aI43
aI18474778
aa(lp1846
I54279
aI214
aI18474787
aa(lp1847
I54272
aI38
aI18474984
aa(lp1848
I54273
aI52
aI18474993
aa(lp1849
I54273
aI41
aI18475076
aa(lp1850
I54276
aI20
aI18475090
aa(lp1851
I54273
aI52
aI18475147
aa(lp1852
I54272
aI38
aI18475156
aa(lp1853
I65533
aI0
aI18475172
aa(lp1854
I54288
aI38
aI18475362
aa(lp1855
I54287
aI6
aI18475453
aa(lp1856
I54286
aI133
aI18475462
aa(lp1857
I54279
aI214
aI18475707
aa(lp1858
I54280
aI43
aI18475716
aa(lp1859
I54280
aI7
aI18475799
aa(lp1860
I54283
aI128
aI18475813
aa(lp1861
I54280
aI87
aI18475876
aa(lp1862
I54279
aI172
aI18475885
aa(lp1863
I54272
aI38
aI18476122
aa(lp1864
I54273
aI52
aI18476131
aa(lp1865
I54273
aI40
aI18476214
aa(lp1866
I54276
aI20
aI18476228
aa(lp1867
I54273
aI104
aI18476291
aa(lp1868
I54272
aI76
aI18476300
aa(lp1869
I65533
aI0
aI18476316
aa(lp1870
I54288
aI39
aI18476458
aa(lp1871
I54287
aI6
aI18476549
aa(lp1872
I54286
aI133
aI18476558
aa(lp1873
I54279
aI125
aI18476795
aa(lp1874
I54280
aI44
aI18476804
aa(lp1875
I54280
aI6
aI18476887
aa(lp1876
I54283
aI128
aI18476901
aa(lp1877
I54280
aI87
aI18476964
aa(lp1878
I54279
aI172
aI18476973
aa(lp1879
I54272
aI38
aI18477169
aa(lp1880
I54273
aI52
aI18477178
aa(lp1881
I54273
aI39
aI18477261
aa(lp1882
I54276
aI20
aI18477275
aa(lp1883
I54273
aI104
aI18477338
aa(lp1884
I54272
aI76
aI18477347
aa(lp1885
I65533
aI0
aI18477363
aa(lp1886
I54288
aI40
aI18477505
aa(lp1887
I54287
aI6
aI18477596
aa(lp1888
I54286
aI133
aI18477605
aa(lp1889
I54279
aI36
aI18477875
aa(lp1890
I54280
aI45
aI18477884
aa(lp1891
I54280
aI5
aI18477967
aa(lp1892
I54283
aI128
aI18477981
aa(lp1893
I54280
aI87
aI18478044
aa(lp1894
I54279
aI172
aI18478053
aa(lp1895
I54272
aI38
aI18478249
aa(lp1896
I54273
aI52
aI18478258
aa(lp1897
I54273
aI38
aI18478341
aa(lp1898
I54276
aI20
aI18478355
aa(lp1899
I54273
aI104
aI18478418
aa(lp1900
I54272
aI76
aI18478427
aa(lp1901
I65533
aI0
aI18478443
aa(lp1902
I54288
aI41
aI18478633
aa(lp1903
I54287
aI6
aI18478724
aa(lp1904
I54286
aI133
aI18478733
aa(lp1905
I54279
aI203
aI18479077
aa(lp1906
I54280
aI45
aI18479086
aa(lp1907
I54280
aI4
aI18479169
aa(lp1908
I54283
aI128
aI18479183
aa(lp1909
I54280
aI87
aI18479246
aa(lp1910
I54279
aI172
aI18479255
aa(lp1911
I54272
aI38
aI18479492
aa(lp1912
I54273
aI52
aI18479501
aa(lp1913
I54273
aI37
aI18479584
aa(lp1914
I54276
aI20
aI18479598
aa(lp1915
I54273
aI104
aI18479661
aa(lp1916
I54272
aI76
aI18479670
aa(lp1917
I65533
aI0
aI18479686
aa(lp1918
I54288
aI42
aI18479828
aa(lp1919
I54287
aI3
aI18479913
aa(lp1920
I54286
aI66
aI18479922
aa(lp1921
I54279
aI203
aI18480226
aa(lp1922
I54280
aI45
aI18480235
aa(lp1923
I54280
aI3
aI18480318
aa(lp1924
I54283
aI128
aI18480332
aa(lp1925
I54280
aI43
aI18480389
aa(lp1926
I54279
aI214
aI18480398
aa(lp1927
I54272
aI38
aI18480595
aa(lp1928
I54273
aI52
aI18480604
aa(lp1929
I54273
aI36
aI18480687
aa(lp1930
I54276
aI20
aI18480701
aa(lp1931
I54273
aI52
aI18480758
aa(lp1932
I54272
aI38
aI18480767
aa(lp1933
I65533
aI0
aI18480783
aa(lp1934
I54288
aI43
aI18480925
aa(lp1935
I54287
aI3
aI18481010
aa(lp1936
I54286
aI66
aI18481019
aa(lp1937
I54279
aI36
aI18481290
aa(lp1938
I54280
aI45
aI18481299
aa(lp1939
I54280
aI2
aI18481382
aa(lp1940
I54283
aI128
aI18481396
aa(lp1941
I54280
aI43
aI18481453
aa(lp1942
I54279
aI214
aI18481462
aa(lp1943
I54272
aI38
aI18481659
aa(lp1944
I54273
aI52
aI18481668
aa(lp1945
I54273
aI35
aI18481751
aa(lp1946
I54276
aI20
aI18481765
aa(lp1947
I54273
aI52
aI18481822
aa(lp1948
I54272
aI38
aI18481831
aa(lp1949
I65533
aI0
aI18481847
aa(lp1950
I54288
aI44
aI18482037
aa(lp1951
I54287
aI3
aI18482122
aa(lp1952
I54286
aI66
aI18482131
aa(lp1953
I54283
aI128
aI18482213
aa(lp1954
I54284
aI0
aI18482220
aa(lp1955
I54285
aI0
aI18482225
aa(lp1956
I54279
aI125
aI18482432
aa(lp1957
I54280
aI44
aI18482441
aa(lp1958
I54280
aI43
aI18482547
aa(lp1959
I54279
aI214
aI18482556
aa(lp1960
I54276
aI20
aI18482638
aa(lp1961
I54277
aI0
aI18482645
aa(lp1962
I54278
aI0
aI18482650
aa(lp1963
I54272
aI38
aI18482816
aa(lp1964
I54273
aI52
aI18482825
aa(lp1965
I54273
aI52
aI18482931
aa(lp1966
I54272
aI38
aI18482940
aa(lp1967
I65533
aI0
aI18482956
aa(lp1968
I54288
aI45
aI18483098
aa(lp1969
I54287
aI3
aI18483183
aa(lp1970
I54286
aI66
aI18483192
aa(lp1971
I54279
aI214
aI18483397
aa(lp1972
I54280
aI43
aI18483406
aa(lp1973
I54280
aI43
aI18483512
aa(lp1974
I54279
aI214
aI18483521
aa(lp1975
I54272
aI38
aI18483718
aa(lp1976
I54273
aI52
aI18483727
aa(lp1977
I54273
aI52
aI18483833
aa(lp1978
I54272
aI38
aI18483842
aa(lp1979
I65533
aI0
aI18483858
aa(lp1980
I54288
aI46
aI18484000
aa(lp1981
I54287
aI6
aI18484091
aa(lp1982
I54286
aI133
aI18484100
aa(lp1983
I54279
aI214
aI18484304
aa(lp1984
I54280
aI43
aI18484313
aa(lp1985
I54280
aI87
aI18484425
aa(lp1986
I54279
aI172
aI18484434
aa(lp1987
I54272
aI38
aI18484630
aa(lp1988
I54273
aI52
aI18484639
aa(lp1989
I54273
aI104
aI18484751
aa(lp1990
I54272
aI76
aI18484760
aa(lp1991
I65533
aI0
aI18484776
aa(lp1992
I54288
aI47
aI18484966
aa(lp1993
I54287
aI6
aI18485057
aa(lp1994
I54286
aI133
aI18485066
aa(lp1995
I54296
aI15
aI18485208
aa(lp1996
I54280
aI17
aI18485285
aa(lp1997
I54279
aI104
aI18485299
aa(lp1998
I54283
aI129
aI18485348
aa(lp1999
I54281
aI0
aI18485357
aa(lp2000
I54282
aI2
aI18485366
aa(lp2001
I54284
aI11
aI18485375
aa(lp2002
I54285
aI12
aI18485384
aa(lp2003
I54296
aI15
aI18485563
aa(lp2004
I54273
aI13
aI18485640
aa(lp2005
I54272
aI208
aI18485654
aa(lp2006
I54276
aI65
aI18485703
aa(lp2007
I54274
aI0
aI18485712
aa(lp2008
I54275
aI8
aI18485721
aa(lp2009
I54277
aI10
aI18485730
aa(lp2010
I54278
aI10
aI18485739
aa(lp2011
I65533
aI0
aI18485792
aa(lp2012
I54288
aI48
aI18485934
aa(lp2013
I54287
aI6
aI18486025
aa(lp2014
I54286
aI133
aI18486034
aa(lp2015
I54280
aI17
aI18486186
aa(lp2016
I54283
aI128
aI18486193
aa(lp2017
I54280
aI34
aI18486254
aa(lp2018
I54279
aI208
aI18486263
aa(lp2019
I54273
aI13
aI18486415
aa(lp2020
I54276
aI128
aI18486422
aa(lp2021
I65533
aI0
aI18486456
aa(lp2022
I54288
aI49
aI18486598
aa(lp2023
I54287
aI6
aI18486689
aa(lp2024
I54286
aI133
aI18486698
aa(lp2025
I54280
aI17
aI18486850
aa(lp2026
I54283
aI128
aI18486857
aa(lp2027
I54280
aI34
aI18486918
aa(lp2028
I54279
aI208
aI18486927
aa(lp2029
I54273
aI13
aI18487079
aa(lp2030
I54276
aI128
aI18487086
aa(lp2031
I65533
aI0
aI18487120
aa(lp2032
I54288
aI50
aI18487310
aa(lp2033
I54287
aI3
aI18487395
aa(lp2034
I54286
aI66
aI18487404
aa(lp2035
I54280
aI17
aI18487603
aa(lp2036
I54283
aI128
aI18487617
aa(lp2037
I54280
aI17
aI18487672
aa(lp2038
I54279
aI104
aI18487681
aa(lp2039
I54273
aI13
aI18487880
aa(lp2040
I54276
aI64
aI18487894
aa(lp2041
I65533
aI0
aI18487928
aa(lp2042
I54288
aI51
aI18488070
aa(lp2043
I54287
aI3
aI18488155
aa(lp2044
I54286
aI66
aI18488164
aa(lp2045
I54280
aI16
aI18488322
aa(lp2046
I54283
aI128
aI18488336
aa(lp2047
I54280
aI17
aI18488391
aa(lp2048
I54279
aI104
aI18488400
aa(lp2049
I54273
aI12
aI18488558
aa(lp2050
I54276
aI64
aI18488572
aa(lp2051
I65533
aI0
aI18488606
aa(lp2052
I54288
aI52
aI18488748
aa(lp2053
I54287
aI3
aI18488833
aa(lp2054
I54286
aI66
aI18488842
aa(lp2055
I54280
aI15
aI18489000
aa(lp2056
I54283
aI128
aI18489014
aa(lp2057
I54280
aI17
aI18489069
aa(lp2058
I54279
aI104
aI18489078
aa(lp2059
I54273
aI11
aI18489236
aa(lp2060
I54276
aI64
aI18489250
aa(lp2061
I65533
aI0
aI18489284
aa(lp2062
I54288
aI53
aI18489474
aa(lp2063
I54287
aI3
aI18489559
aa(lp2064
I54286
aI66
aI18489568
aa(lp2065
I54280
aI14
aI18489767
aa(lp2066
I54283
aI128
aI18489781
aa(lp2067
I54280
aI17
aI18489836
aa(lp2068
I54279
aI104
aI18489845
aa(lp2069
I54273
aI10
aI18490044
aa(lp2070
I54276
aI64
aI18490058
aa(lp2071
I65533
aI0
aI18490092
aa(lp2072
I54288
aI54
aI18490234
aa(lp2073
I54287
aI6
aI18490325
aa(lp2074
I54286
aI133
aI18490334
aa(lp2075
I54280
aI13
aI18490492
aa(lp2076
I54283
aI128
aI18490506
aa(lp2077
I54280
aI34
aI18490567
aa(lp2078
I54279
aI208
aI18490576
aa(lp2079
I54273
aI9
aI18490734
aa(lp2080
I54276
aI64
aI18490748
aa(lp2081
I65533
aI0
aI18490782
aa(lp2082
I54288
aI55
aI18490924
aa(lp2083
I54287
aI6
aI18491015
aa(lp2084
I54286
aI133
aI18491024
aa(lp2085
I54280
aI12
aI18491182
aa(lp2086
I54283
aI128
aI18491196
aa(lp2087
I54280
aI34
aI18491257
aa(lp2088
I54279
aI208
aI18491266
aa(lp2089
I54273
aI8
aI18491424
aa(lp2090
I54276
aI64
aI18491438
aa(lp2091
I65533
aI0
aI18491472
aa(lp2092
I54288
aI56
aI18491662
aa(lp2093
I54287
aI6
aI18491753
aa(lp2094
I54286
aI133
aI18491762
aa(lp2095
I54280
aI11
aI18491961
aa(lp2096
I54283
aI128
aI18491975
aa(lp2097
I54280
aI34
aI18492036
aa(lp2098
I54279
aI208
aI18492045
aa(lp2099
I54273
aI7
aI18492244
aa(lp2100
I54276
aI64
aI18492258
aa(lp2101
I65533
aI0
aI18492292
aa(lp2102
I54288
aI57
aI18492434
aa(lp2103
I54287
aI6
aI18492525
aa(lp2104
I54286
aI133
aI18492534
aa(lp2105
I54280
aI10
aI18492692
aa(lp2106
I54283
aI128
aI18492706
aa(lp2107
I54280
aI34
aI18492767
aa(lp2108
I54279
aI208
aI18492776
aa(lp2109
I54273
aI6
aI18492934
aa(lp2110
I54276
aI64
aI18492948
aa(lp2111
I65533
aI0
aI18492982
aa(lp2112
I54288
aI58
aI18493124
aa(lp2113
I54287
aI3
aI18493209
aa(lp2114
I54286
aI66
aI18493218
aa(lp2115
I54280
aI9
aI18493376
aa(lp2116
I54283
aI128
aI18493390
aa(lp2117
I54280
aI17
aI18493445
aa(lp2118
I54279
aI104
aI18493454
aa(lp2119
I54273
aI5
aI18493612
aa(lp2120
I54276
aI64
aI18493626
aa(lp2121
I65533
aI0
aI18493660
aa(lp2122
I54288
aI59
aI18493850
aa(lp2123
I54287
aI3
aI18493935
aa(lp2124
I54286
aI66
aI18493944
aa(lp2125
I54280
aI8
aI18494143
aa(lp2126
I54283
aI128
aI18494157
aa(lp2127
I54280
aI17
aI18494212
aa(lp2128
I54279
aI104
aI18494221
aa(lp2129
I54273
aI4
aI18494420
aa(lp2130
I54276
aI64
aI18494434
aa(lp2131
I65533
aI0
aI18494468
aa(lp2132
I54288
aI60
aI18494610
aa(lp2133
I54287
aI3
aI18494695
aa(lp2134
I54286
aI66
aI18494704
aa(lp2135
I54280
aI7
aI18494862
aa(lp2136
I54283
aI128
aI18494876
aa(lp2137
I54280
aI17
aI18494931
aa(lp2138
I54279
aI104
aI18494940
aa(lp2139
I54273
aI3
aI18495098
aa(lp2140
I54276
aI64
aI18495112
aa(lp2141
I65533
aI0
aI18495146
aa(lp2142
I54288
aI61
aI18495288
aa(lp2143
I54287
aI3
aI18495373
aa(lp2144
I54286
aI66
aI18495382
aa(lp2145
I54280
aI6
aI18495540
aa(lp2146
I54283
aI128
aI18495554
aa(lp2147
I54280
aI17
aI18495609
aa(lp2148
I54279
aI104
aI18495618
aa(lp2149
I54273
aI2
aI18495776
aa(lp2150
I54276
aI64
aI18495790
aa(lp2151
I65533
aI0
aI18495824
aa(lp2152
I54288
aI62
aI18496014
aa(lp2153
I54287
aI6
aI18496105
aa(lp2154
I54286
aI133
aI18496114
aa(lp2155
I54280
aI5
aI18496313
aa(lp2156
I54283
aI128
aI18496327
aa(lp2157
I54280
aI34
aI18496388
aa(lp2158
I54279
aI208
aI18496397
aa(lp2159
I54273
aI1
aI18496596
aa(lp2160
I54276
aI64
aI18496610
aa(lp2161
I65533
aI0
aI18496644
aa(lp2162
I54288
aI63
aI18496786
aa(lp2163
I54287
aI6
aI18496877
aa(lp2164
I54286
aI133
aI18496886
aa(lp2165
I54280
aI4
aI18497044
aa(lp2166
I54283
aI128
aI18497058
aa(lp2167
I54280
aI34
aI18497119
aa(lp2168
I54279
aI208
aI18497128
aa(lp2169
I65533
aI0
aI18497280
aa(lp2170
I54288
aI64
aI18497422
aa(lp2171
I54287
aI6
aI18497513
aa(lp2172
I54286
aI133
aI18497522
aa(lp2173
I54280
aI3
aI18497680
aa(lp2174
I54283
aI128
aI18497694
aa(lp2175
I54280
aI34
aI18497755
aa(lp2176
I54279
aI208
aI18497764
aa(lp2177
I65533
aI0
aI18497916
aa(lp2178
I54288
aI65
aI18498106
aa(lp2179
I54287
aI6
aI18498197
aa(lp2180
I54286
aI133
aI18498206
aa(lp2181
I54280
aI2
aI18498405
aa(lp2182
I54283
aI128
aI18498419
aa(lp2183
I54280
aI34
aI18498480
aa(lp2184
I54279
aI208
aI18498489
aa(lp2185
I65533
aI0
aI18498682
aa(lp2186
I54288
aI66
aI18498824
aa(lp2187
I54287
aI3
aI18498909
aa(lp2188
I54286
aI66
aI18498918
aa(lp2189
I54280
aI1
aI18499076
aa(lp2190
I54283
aI128
aI18499090
aa(lp2191
I54280
aI17
aI18499145
aa(lp2192
I54279
aI104
aI18499154
aa(lp2193
I65533
aI0
aI18499306
aa(lp2194
I54288
aI67
aI18499448
aa(lp2195
I54287
aI3
aI18499533
aa(lp2196
I54286
aI66
aI18499542
aa(lp2197
I54280
aI17
aI18499715
aa(lp2198
I54279
aI104
aI18499724
aa(lp2199
I65533
aI0
aI18499876
aa(lp2200
I54288
aI68
aI18500066
aa(lp2201
I54287
aI3
aI18500151
aa(lp2202
I54286
aI66
aI18500160
aa(lp2203
I54283
aI128
aI18500242
aa(lp2204
I54284
aI0
aI18500249
aa(lp2205
I54285
aI0
aI18500254
aa(lp2206
I54280
aI17
aI18500396
aa(lp2207
I54279
aI104
aI18500405
aa(lp2208
I54276
aI64
aI18500487
aa(lp2209
I54277
aI0
aI18500494
aa(lp2210
I54278
aI0
aI18500499
aa(lp2211
I65533
aI0
aI18500620
aa(lp2212
I54288
aI69
aI18500762
aa(lp2213
I54287
aI3
aI18500847
aa(lp2214
I54286
aI66
aI18500856
aa(lp2215
I54280
aI17
aI18501029
aa(lp2216
I54279
aI104
aI18501038
aa(lp2217
I65533
aI0
aI18501190
aa(lp2218
I54288
aI70
aI18501332
aa(lp2219
I54287
aI6
aI18501423
aa(lp2220
I54286
aI133
aI18501432
aa(lp2221
I54280
aI34
aI18501611
aa(lp2222
I54279
aI208
aI18501620
aa(lp2223
I65533
aI0
aI18501772
aa(lp2224
I54288
aI71
aI18501962
aa(lp2225
I54287
aI6
aI18502053
aa(lp2226
I54286
aI133
aI18502062
aa(lp2227
I54296
aI15
aI18502204
aa(lp2228
I54280
aI13
aI18502260
aa(lp2229
I54279
aI208
aI18502274
aa(lp2230
I54283
aI129
aI18502323
aa(lp2231
I54281
aI0
aI18502332
aa(lp2232
I54282
aI2
aI18502341
aa(lp2233
I54284
aI11
aI18502350
aa(lp2234
I54285
aI12
aI18502359
aa(lp2235
I54296
aI15
aI18502551
aa(lp2236
I54273
aI13
aI18502607
aa(lp2237
I54272
aI208
aI18502621
aa(lp2238
I54276
aI65
aI18502670
aa(lp2239
I54274
aI0
aI18502679
aa(lp2240
I54275
aI8
aI18502688
aa(lp2241
I54277
aI10
aI18502697
aa(lp2242
I54278
aI10
aI18502706
aa(lp2243
I65533
aI0
aI18502772
aa(lp2244
I54288
aI72
aI18502914
aa(lp2245
I54287
aI6
aI18503005
aa(lp2246
I54286
aI133
aI18503014
aa(lp2247
I54280
aI13
aI18503166
aa(lp2248
I54283
aI128
aI18503173
aa(lp2249
I54280
aI27
aI18503234
aa(lp2250
I54279
aI161
aI18503243
aa(lp2251
I54273
aI13
aI18503395
aa(lp2252
I54276
aI128
aI18503402
aa(lp2253
I65533
aI0
aI18503436
aa(lp2254
I54288
aI73
aI18503578
aa(lp2255
I54287
aI6
aI18503669
aa(lp2256
I54286
aI133
aI18503678
aa(lp2257
I54280
aI13
aI18503830
aa(lp2258
I54283
aI128
aI18503837
aa(lp2259
I54280
aI27
aI18503898
aa(lp2260
I54279
aI161
aI18503907
aa(lp2261
I54273
aI13
aI18504059
aa(lp2262
I54276
aI128
aI18504066
aa(lp2263
I65533
aI0
aI18504100
aa(lp2264
I54288
aI74
aI18504290
aa(lp2265
I54287
aI3
aI18504375
aa(lp2266
I54286
aI66
aI18504384
aa(lp2267
I54280
aI13
aI18504583
aa(lp2268
I54283
aI128
aI18504597
aa(lp2269
I54280
aI13
aI18504652
aa(lp2270
I54279
aI208
aI18504661
aa(lp2271
I54273
aI13
aI18504860
aa(lp2272
I54276
aI64
aI18504874
aa(lp2273
I65533
aI0
aI18504908
aa(lp2274
I54288
aI75
aI18505050
aa(lp2275
I54287
aI3
aI18505135
aa(lp2276
I54286
aI66
aI18505144
aa(lp2277
I54280
aI12
aI18505302
aa(lp2278
I54283
aI128
aI18505316
aa(lp2279
I54280
aI13
aI18505371
aa(lp2280
I54279
aI208
aI18505380
aa(lp2281
I54273
aI12
aI18505538
aa(lp2282
I54276
aI64
aI18505552
aa(lp2283
I65533
aI0
aI18505586
aa(lp2284
I54288
aI76
aI18505728
aa(lp2285
I54287
aI3
aI18505813
aa(lp2286
I54286
aI66
aI18505822
aa(lp2287
I54280
aI11
aI18505980
aa(lp2288
I54283
aI128
aI18505994
aa(lp2289
I54280
aI13
aI18506049
aa(lp2290
I54279
aI208
aI18506058
aa(lp2291
I54273
aI11
aI18506216
aa(lp2292
I54276
aI64
aI18506230
aa(lp2293
I65533
aI0
aI18506264
aa(lp2294
I54288
aI77
aI18506454
aa(lp2295
I54287
aI3
aI18506539
aa(lp2296
I54286
aI66
aI18506548
aa(lp2297
I54280
aI10
aI18506747
aa(lp2298
I54283
aI128
aI18506761
aa(lp2299
I54280
aI13
aI18506816
aa(lp2300
I54279
aI208
aI18506825
aa(lp2301
I54273
aI10
aI18507024
aa(lp2302
I54276
aI64
aI18507038
aa(lp2303
I65533
aI0
aI18507072
aa(lp2304
I54288
aI78
aI18507214
aa(lp2305
I54287
aI6
aI18507305
aa(lp2306
I54286
aI133
aI18507314
aa(lp2307
I54280
aI9
aI18507472
aa(lp2308
I54283
aI128
aI18507486
aa(lp2309
I54280
aI27
aI18507547
aa(lp2310
I54279
aI161
aI18507556
aa(lp2311
I54273
aI9
aI18507714
aa(lp2312
I54276
aI64
aI18507728
aa(lp2313
I65533
aI0
aI18507762
aa(lp2314
I54288
aI79
aI18507904
aa(lp2315
I54287
aI6
aI18507995
aa(lp2316
I54286
aI133
aI18508004
aa(lp2317
I54280
aI8
aI18508162
aa(lp2318
I54283
aI128
aI18508176
aa(lp2319
I54280
aI27
aI18508237
aa(lp2320
I54279
aI161
aI18508246
aa(lp2321
I54273
aI8
aI18508404
aa(lp2322
I54276
aI64
aI18508418
aa(lp2323
I65533
aI0
aI18508452
aa(lp2324
I54288
aI80
aI18508642
aa(lp2325
I54287
aI6
aI18508733
aa(lp2326
I54286
aI133
aI18508742
aa(lp2327
I54280
aI7
aI18508941
aa(lp2328
I54283
aI128
aI18508955
aa(lp2329
I54280
aI27
aI18509016
aa(lp2330
I54279
aI161
aI18509025
aa(lp2331
I54273
aI7
aI18509224
aa(lp2332
I54276
aI64
aI18509238
aa(lp2333
I65533
aI0
aI18509272
aa(lp2334
I54288
aI81
aI18509414
aa(lp2335
I54287
aI6
aI18509505
aa(lp2336
I54286
aI133
aI18509514
aa(lp2337
I54280
aI6
aI18509672
aa(lp2338
I54283
aI128
aI18509686
aa(lp2339
I54280
aI27
aI18509747
aa(lp2340
I54279
aI161
aI18509756
aa(lp2341
I54273
aI6
aI18509914
aa(lp2342
I54276
aI64
aI18509928
aa(lp2343
I65533
aI0
aI18509962
aa(lp2344
I54288
aI82
aI18510104
aa(lp2345
I54287
aI3
aI18510189
aa(lp2346
I54286
aI66
aI18510198
aa(lp2347
I54280
aI5
aI18510356
aa(lp2348
I54283
aI128
aI18510370
aa(lp2349
I54280
aI13
aI18510425
aa(lp2350
I54279
aI208
aI18510434
aa(lp2351
I54273
aI5
aI18510592
aa(lp2352
I54276
aI64
aI18510606
aa(lp2353
I65533
aI0
aI18510640
aa(lp2354
I54288
aI83
aI18510830
aa(lp2355
I54287
aI3
aI18510915
aa(lp2356
I54286
aI66
aI18510924
aa(lp2357
I54280
aI4
aI18511123
aa(lp2358
I54283
aI128
aI18511137
aa(lp2359
I54280
aI13
aI18511192
aa(lp2360
I54279
aI208
aI18511201
aa(lp2361
I54273
aI4
aI18511400
aa(lp2362
I54276
aI64
aI18511414
aa(lp2363
I65533
aI0
aI18511448
aa(lp2364
I54288
aI84
aI18511590
aa(lp2365
I54287
aI3
aI18511675
aa(lp2366
I54286
aI66
aI18511684
aa(lp2367
I54280
aI3
aI18511842
aa(lp2368
I54283
aI128
aI18511856
aa(lp2369
I54280
aI13
aI18511911
aa(lp2370
I54279
aI208
aI18511920
aa(lp2371
I54273
aI3
aI18512078
aa(lp2372
I54276
aI64
aI18512092
aa(lp2373
I65533
aI0
aI18512126
aa(lp2374
I54288
aI85
aI18512268
aa(lp2375
I54287
aI3
aI18512353
aa(lp2376
I54286
aI66
aI18512362
aa(lp2377
I54280
aI2
aI18512520
aa(lp2378
I54283
aI128
aI18512534
aa(lp2379
I54280
aI13
aI18512589
aa(lp2380
I54279
aI208
aI18512598
aa(lp2381
I54273
aI2
aI18512756
aa(lp2382
I54276
aI64
aI18512770
aa(lp2383
I65533
aI0
aI18512804
aa(lp2384
I54288
aI86
aI18512994
aa(lp2385
I54287
aI6
aI18513085
aa(lp2386
I54286
aI133
aI18513094
aa(lp2387
I54280
aI1
aI18513293
aa(lp2388
I54283
aI128
aI18513307
aa(lp2389
I54280
aI27
aI18513368
aa(lp2390
I54279
aI161
aI18513377
aa(lp2391
I54273
aI1
aI18513576
aa(lp2392
I54276
aI64
aI18513590
aa(lp2393
I65533
aI0
aI18513624
aa(lp2394
I54288
aI87
aI18513766
aa(lp2395
I54287
aI6
aI18513857
aa(lp2396
I54286
aI133
aI18513866
aa(lp2397
I54280
aI27
aI18514045
aa(lp2398
I54279
aI161
aI18514054
aa(lp2399
I65533
aI0
aI18514206
aa(lp2400
I54288
aI88
aI18514348
aa(lp2401
I54287
aI6
aI18514439
aa(lp2402
I54286
aI133
aI18514448
aa(lp2403
I54280
aI27
aI18514627
aa(lp2404
I54279
aI161
aI18514636
aa(lp2405
I65533
aI0
aI18514788
aa(lp2406
I54288
aI89
aI18514978
aa(lp2407
I54287
aI6
aI18515069
aa(lp2408
I54286
aI133
aI18515078
aa(lp2409
I54280
aI27
aI18515298
aa(lp2410
I54279
aI161
aI18515307
aa(lp2411
I65533
aI0
aI18515500
aa(lp2412
I54288
aI90
aI18515642
aa(lp2413
I54287
aI3
aI18515727
aa(lp2414
I54286
aI66
aI18515736
aa(lp2415
I54280
aI13
aI18515909
aa(lp2416
I54279
aI208
aI18515918
aa(lp2417
I65533
aI0
aI18516070
aa(lp2418
I54288
aI91
aI18516212
aa(lp2419
I54287
aI3
aI18516297
aa(lp2420
I54286
aI66
aI18516306
aa(lp2421
I54280
aI13
aI18516479
aa(lp2422
I54279
aI208
aI18516488
aa(lp2423
I65533
aI0
aI18516640
aa(lp2424
I54290
aI64
aI18516762
aa(lp2425
I54291
aI0
aI18516769
aa(lp2426
I54292
aI0
aI18516774
aa(lp2427
I54288
aI92
aI18516852
aa(lp2428
I54287
aI3
aI18516937
aa(lp2429
I54286
aI66
aI18516946
aa(lp2430
I54283
aI128
aI18517028
aa(lp2431
I54284
aI0
aI18517035
aa(lp2432
I54285
aI0
aI18517040
aa(lp2433
I54280
aI13
aI18517182
aa(lp2434
I54279
aI208
aI18517191
aa(lp2435
I54276
aI64
aI18517273
aa(lp2436
I54277
aI0
aI18517280
aa(lp2437
I54278
aI0
aI18517285
aa(lp2438
I65533
aI0
aI18517406
aa(lp2439
I54288
aI93
aI18517548
aa(lp2440
I54287
aI3
aI18517633
aa(lp2441
I54286
aI66
aI18517642
aa(lp2442
I54280
aI13
aI18517815
aa(lp2443
I54279
aI208
aI18517824
aa(lp2444
I65533
aI0
aI18517976
aa(lp2445
I54288
aI94
aI18518118
aa(lp2446
I54287
aI6
aI18518209
aa(lp2447
I54286
aI133
aI18518218
aa(lp2448
I54280
aI27
aI18518397
aa(lp2449
I54279
aI161
aI18518406
aa.I2449
.I0
.F76.251
.(lp0
I0
aI1
aI1
a.I9
.F0.25
.