(lp0
(lp1
I64
aI59
aI0
aI0
aI0
aI0
aI0
aI63
aI0
aI0
aI0
aI127
aI0
aI0
aI0
aI0
aI94
aI59
aI90
aI85
aI0
aI0
aI3
aI6
aI1
aI6
aI1
aI0
aI3
aI6
aI3
aI0
aI0
aI0
aI0
aI0
aI0
aI0
aI0
aI0
aI63
aI89
aI0
aI67
aI0
aI0
aI0
aI0
aI0
aI0
aI0
aI0
aI0
aI0
aI0
aI0
aI0
aI0
aI0
aI0
aI0
aI0
aI0
aI0
aI0
aI0
aI0
aI0
aI0
aI0
aI0
aI127
aI52
aI31
aI22
aI104
aI28
aI0
aI0
aI36
aI0
aI105
aI50
aI83
aI0
aI103
aI0
aI0
aI0
aI0
aI42
aI24
aI0
aI73
aI0
aI0
aI0
aI0
aI0
aI0
aI0
aI0
aI0
aI0
aI0
aI0
aI0
aI0
aI0
aI0
aI0
aI0
aI65
aI0
aI65
aI0
aI0
aI0
aI0
aI0
aI0
aI0
aI0
aI0
aI0
aI0
aI0
aI127
aI0
aI0
aI0
aI0
aI0
aI0
aI0
aI0
aI0
aI0
aI0
aI0
aI0
aI0
aI0
aI0
aI0
aI0
aI0
aI0
aI0
aI0
aI0
aI0
aI0
aI0
aI0
aI0
aI0
aI0
aI0
aI0
aI0
aI0
aI0
aI0
aI0
aI0
aI0
aI0
aI0
aI0
aI0
aI0
aI0
aI0
aI0
aI0
aI0
aI0
aI0
aI0
aI0
aI0
aI0
aI0
aI0
aI0
aI0
aI0
aI0
aI0
aI0
aI0
aI0
aI0
aI0
aI0
aI0
aI0
aI0
aI0
aI0
aI0
aI0
aI0
aI0
aI0
aI0
aI0
aI0
aI0
aI0
aI0
aI0
aI0
aI0
aI0
aI0
aI0
aI0
aI0
aI0
aI0
aI0
aI0
aI0
aI0
aI0
aI0
aI0
aI0
aI0
aI0
aI0
aI0
aI0
aI0
aI0
aI0
aI0
aI0
aI0
aI0
aI0
aI0
aI0
aI0
aI0
aI0
aI0
aI0
aI0
aI0
aI0
aI0
aI0
aI0
aa(lp2
I0
aI0
aI0
aa(lp3
I10
aI8
aI12
aa(lp4
I2
aI3
aI5
aa(lp5
I7
aI7
aI9
aa.